; Listing generated by Microsoft (R) Optimizing Compiler Version 19.29.30152.0 

	TITLE	c:\dev\stringliterals\bin\intermediates\win32\release\main.obj
	.686P
	.XMM
	include listing.inc
	.model	flat

INCLUDELIB OLDNAMES

PUBLIC	??_C@_0BC@EOODALEL@Unknown?5exception@		; `string'
PUBLIC	??_C@_0BF@KINCDENJ@bad?5array?5new?5length@	; `string'
PUBLIC	??_C@_0BA@JFNIOLAK@string?5too?5long@		; `string'
PUBLIC	??_C@_0BA@ELKIONDK@bad?5locale?5name@		; `string'
PUBLIC	??_C@_01NBENCBCI@?$CK@				; `string'
PUBLIC	??_C@_02PLJDPFIO@00@				; `string'
PUBLIC	??_C@_05FBADLLFO@Ethan@				; `string'
PUBLIC	??_C@_15CNAMGDF@?$AA0?$AA1@			; `string'
PUBLIC	??_C@_1M@MIBHDLFD@?$AAE?$AAt?$AAh?$AAa?$AAn@	; `string'
PUBLIC	??_C@_15BAGFGJNL@?$AA0?$AA2@			; `string'
PUBLIC	??_C@_2M@JLEBFLAK@?$AA?$AA?$AA0?$AA?$AA?$AA3@	; `string'
PUBLIC	??_C@_2BI@CPCKAEFF@?$AA?$AA?$AAE?$AA?$AA?$AAt?$AA?$AA?$AAh?$AA?$AA?$AAa?$AA?$AA?$AAn@ ; `string'
PUBLIC	??_C@_0BC@GBLLDDOB@Line1?6Line2?6Line3@		; `string'
PUBLIC	??_C@_0BD@CGOJJEID@line4?6line5?6line6?6@	; `string'
PUBLIC	??_C@_03LFPOMIKD@chs@				; `string'
PUBLIC	??_C@_01LOCGONAA@?$AA@				; `string'
PUBLIC	??_C@_1M@PAFHHBLA@?$AAE?$AAt?$AAa?$AAh?$AAn@	; `string'
PUBLIC	??_C@_2BI@GPPIDABK@?$AA?$AA?$AAE?$AA?$AA?$AAt?$AA?$AA?$AAa?$AA?$AA?$AAh?$AA?$AA?$AAn@ ; `string'
PUBLIC	??_C@_05HKGIJGOH@name?3@			; `string'
PUBLIC	??_C@_0N@LPFKKEBD@?3AM?3am?3PM?3pm@		; `string'
PUBLIC	??_C@_1BK@MHIKGOKE@?$AA?3?$AAA?$AAM?$AA?3?$AAa?$AAm?$AA?3?$AAP?$AAM?$AA?3?$AAp?$AAm@ ; `string'
PUBLIC	??_R4exception@std@@6B@				; std::exception::`RTTI Complete Object Locator'
PUBLIC	??_R2bad_array_new_length@std@@8		; std::bad_array_new_length::`RTTI Base Class Array'
PUBLIC	??_R0?AVbad_alloc@std@@@8			; std::bad_alloc `RTTI Type Descriptor'
PUBLIC	??_R2bad_alloc@std@@8				; std::bad_alloc::`RTTI Base Class Array'
PUBLIC	__CTA3?AVbad_array_new_length@std@@
PUBLIC	??_7bad_array_new_length@std@@6B@		; std::bad_array_new_length::`vftable'
PUBLIC	??_R1A@?0A@EA@exception@std@@8			; std::exception::`RTTI Base Class Descriptor at (0,-1,0,64)'
PUBLIC	??_R1A@?0A@EA@bad_alloc@std@@8			; std::bad_alloc::`RTTI Base Class Descriptor at (0,-1,0,64)'
PUBLIC	__CT??_R0?AVbad_alloc@std@@@8??0bad_alloc@std@@QAE@ABV01@@Z12
PUBLIC	??_7bad_alloc@std@@6B@				; std::bad_alloc::`vftable'
PUBLIC	??_R2exception@std@@8				; std::exception::`RTTI Base Class Array'
PUBLIC	??_7exception@std@@6B@				; std::exception::`vftable'
PUBLIC	??_R3exception@std@@8				; std::exception::`RTTI Class Hierarchy Descriptor'
PUBLIC	??_R4bad_alloc@std@@6B@				; std::bad_alloc::`RTTI Complete Object Locator'
PUBLIC	??_R3bad_array_new_length@std@@8		; std::bad_array_new_length::`RTTI Class Hierarchy Descriptor'
PUBLIC	??_R3bad_alloc@std@@8				; std::bad_alloc::`RTTI Class Hierarchy Descriptor'
PUBLIC	__CT??_R0?AVexception@std@@@8??0exception@std@@QAE@ABV01@@Z12
PUBLIC	??_R4bad_array_new_length@std@@6B@		; std::bad_array_new_length::`RTTI Complete Object Locator'
PUBLIC	??_R1A@?0A@EA@bad_array_new_length@std@@8	; std::bad_array_new_length::`RTTI Base Class Descriptor at (0,-1,0,64)'
PUBLIC	__TI3?AVbad_array_new_length@std@@
PUBLIC	__CT??_R0?AVbad_array_new_length@std@@@8??0bad_array_new_length@std@@QAE@ABV01@@Z12
PUBLIC	??_R0?AVexception@std@@@8			; std::exception `RTTI Type Descriptor'
PUBLIC	??_R0?AVbad_array_new_length@std@@@8		; std::bad_array_new_length `RTTI Type Descriptor'
EXTRN	__imp_??0_Locinfo@std@@QAE@HPBD@Z:PROC
EXTRN	__imp_??1_Locinfo@std@@QAE@XZ:PROC
EXTRN	__imp_?_Getname@_Locinfo@std@@QBEPBDXZ:PROC
EXTRN	__imp_?_Getcvt@_Locinfo@std@@QBE?AU_Cvtvec@@XZ:PROC
EXTRN	__imp_?_Getdays@_Locinfo@std@@QBEPBDXZ:PROC
EXTRN	__imp_?_Getmonths@_Locinfo@std@@QBEPBDXZ:PROC
EXTRN	__imp_?_W_Getdays@_Locinfo@std@@QBEPBGXZ:PROC
EXTRN	__imp_?_W_Getmonths@_Locinfo@std@@QBEPBGXZ:PROC
EXTRN	__imp_?rdstate@ios_base@std@@QBEHXZ:PROC
EXTRN	__imp_?good@ios_base@std@@QBE_NXZ:PROC
EXTRN	__imp_?flags@ios_base@std@@QBEHXZ:PROC
EXTRN	__imp_?width@ios_base@std@@QBE_JXZ:PROC
EXTRN	__imp_?width@ios_base@std@@QAE_J_J@Z:PROC
EXTRN	__imp_?get@?$basic_istream@DU?$char_traits@D@std@@@std@@QAEHXZ:PROC
EXTRN	__imp_??6?$basic_ostream@_WU?$char_traits@_W@std@@@std@@QAEAAV01@P6AAAV01@AAV01@@Z@Z:PROC
EXTRN	__imp_??6?$basic_ostream@DU?$char_traits@D@std@@@std@@QAEAAV01@P6AAAV01@AAV01@@Z@Z:PROC
EXTRN	__imp_?imbue@?$basic_ios@_WU?$char_traits@_W@std@@@std@@QAE?AVlocale@2@ABV32@@Z:PROC
EXTRN	__imp_??4?$_Yarn@D@std@@QAEAAV01@PBD@Z:PROC
EXTRN	__imp_?rdbuf@?$basic_ios@_WU?$char_traits@_W@std@@@std@@QBEPAV?$basic_streambuf@_WU?$char_traits@_W@std@@@2@XZ:PROC
EXTRN	__imp_?rdbuf@?$basic_ios@DU?$char_traits@D@std@@@std@@QBEPAV?$basic_streambuf@DU?$char_traits@D@std@@@2@XZ:PROC
EXTRN	__imp_?setstate@?$basic_ios@DU?$char_traits@D@std@@@std@@QAEXH_N@Z:PROC
EXTRN	__imp_?flush@?$basic_ostream@DU?$char_traits@D@std@@@std@@QAEAAV12@XZ:PROC
EXTRN	__imp_?tie@?$basic_ios@DU?$char_traits@D@std@@@std@@QBEPAV?$basic_ostream@DU?$char_traits@D@std@@@2@XZ:PROC
EXTRN	__imp_?sputc@?$basic_streambuf@_WU?$char_traits@_W@std@@@std@@QAEG_W@Z:PROC
EXTRN	__imp_?sputc@?$basic_streambuf@DU?$char_traits@D@std@@@std@@QAEHD@Z:PROC
EXTRN	__imp_?_Osfx@?$basic_ostream@DU?$char_traits@D@std@@@std@@QAEXXZ:PROC
EXTRN	__imp_?flush@?$basic_ostream@_WU?$char_traits@_W@std@@@std@@QAEAAV12@XZ:PROC
EXTRN	__imp_?put@?$basic_ostream@_WU?$char_traits@_W@std@@@std@@QAEAAV12@_W@Z:PROC
EXTRN	__imp_?put@?$basic_ostream@DU?$char_traits@D@std@@@std@@QAEAAV12@D@Z:PROC
EXTRN	__imp_?widen@?$basic_ios@_WU?$char_traits@_W@std@@@std@@QBE_WD@Z:PROC
EXTRN	__imp_?widen@?$basic_ios@DU?$char_traits@D@std@@@std@@QBEDD@Z:PROC
EXTRN	__imp_?fill@?$basic_ios@DU?$char_traits@D@std@@@std@@QBEDXZ:PROC
EXTRN	__imp_?sputn@?$basic_streambuf@DU?$char_traits@D@std@@@std@@QAE_JPBD_J@Z:PROC
EXTRN	__imp_?setstate@?$basic_ios@_WU?$char_traits@_W@std@@@std@@QAEXH_N@Z:PROC
EXTRN	__imp_?_Osfx@?$basic_ostream@_WU?$char_traits@_W@std@@@std@@QAEXXZ:PROC
EXTRN	__imp_?tie@?$basic_ios@_WU?$char_traits@_W@std@@@std@@QBEPAV?$basic_ostream@_WU?$char_traits@_W@std@@@2@XZ:PROC
EXTRN	__imp_?fill@?$basic_ios@_WU?$char_traits@_W@std@@@std@@QBE_WXZ:PROC
EXTRN	__imp_?sputn@?$basic_streambuf@_WU?$char_traits@_W@std@@@std@@QAE_JPB_W_J@Z:PROC
EXTRN	__imp___invalid_parameter_noinfo_noreturn:PROC
EXTRN	??_7type_info@@6B@:QWORD			; type_info::`vftable'
EXTRN	__imp____std_terminate:PROC
EXTRN	??3@YAXPAXI@Z:PROC				; operator delete
EXTRN	__imp____std_exception_copy:PROC
EXTRN	__imp_?_Xlength_error@std@@YAXPBD@Z:PROC
EXTRN	__imp_?wcout@std@@3V?$basic_ostream@_WU?$char_traits@_W@std@@@1@A:BYTE
EXTRN	__imp_?_Xbad_alloc@std@@YAXXZ:PROC
EXTRN	__imp_?cin@std@@3V?$basic_istream@DU?$char_traits@D@std@@@1@A:BYTE
EXTRN	__imp_?uncaught_exception@std@@YA_NXZ:PROC
EXTRN	__imp_?_Init@locale@std@@CAPAV_Locimp@12@_N@Z:PROC
EXTRN	__imp_?_New_Locimp@_Locimp@locale@std@@CAPAV123@_N@Z:PROC
EXTRN	__imp_?_Makeloc@_Locimp@locale@std@@CAPAV123@ABV_Locinfo@3@HPAV123@PBV23@@Z:PROC
EXTRN	__imp_?cout@std@@3V?$basic_ostream@DU?$char_traits@D@std@@@1@A:BYTE
EXTRN	__imp_?_Xruntime_error@std@@YAXPBD@Z:PROC
EXTRN	??2@YAPAXI@Z:PROC				; operator new
EXTRN	__imp__calloc:PROC
EXTRN	__imp___Mbrtowc:PROC
EXTRN	__imp____std_exception_destroy:PROC
EXTRN	@__security_check_cookie@4:PROC
EXTRN	__imp____CxxFrameHandler3:PROC
;	COMDAT ??_R0?AVbad_array_new_length@std@@@8
data$r	SEGMENT
??_R0?AVbad_array_new_length@std@@@8 DD FLAT:??_7type_info@@6B@ ; std::bad_array_new_length `RTTI Type Descriptor'
	DD	00H
	DB	'.?AVbad_array_new_length@std@@', 00H
data$r	ENDS
;	COMDAT ??_R0?AVexception@std@@@8
data$r	SEGMENT
??_R0?AVexception@std@@@8 DD FLAT:??_7type_info@@6B@	; std::exception `RTTI Type Descriptor'
	DD	00H
	DB	'.?AVexception@std@@', 00H
data$r	ENDS
;	COMDAT __CT??_R0?AVbad_array_new_length@std@@@8??0bad_array_new_length@std@@QAE@ABV01@@Z12
xdata$x	SEGMENT
__CT??_R0?AVbad_array_new_length@std@@@8??0bad_array_new_length@std@@QAE@ABV01@@Z12 DD 00H
	DD	FLAT:??_R0?AVbad_array_new_length@std@@@8
	DD	00H
	DD	0ffffffffH
	ORG $+4
	DD	0cH
	DD	FLAT:??0bad_array_new_length@std@@QAE@ABV01@@Z
xdata$x	ENDS
;	COMDAT __TI3?AVbad_array_new_length@std@@
xdata$x	SEGMENT
__TI3?AVbad_array_new_length@std@@ DD 00H
	DD	FLAT:??1bad_array_new_length@std@@UAE@XZ
	DD	00H
	DD	FLAT:__CTA3?AVbad_array_new_length@std@@
xdata$x	ENDS
;	COMDAT ??_R1A@?0A@EA@bad_array_new_length@std@@8
rdata$r	SEGMENT
??_R1A@?0A@EA@bad_array_new_length@std@@8 DD FLAT:??_R0?AVbad_array_new_length@std@@@8 ; std::bad_array_new_length::`RTTI Base Class Descriptor at (0,-1,0,64)'
	DD	02H
	DD	00H
	DD	0ffffffffH
	DD	00H
	DD	040H
	DD	FLAT:??_R3bad_array_new_length@std@@8
rdata$r	ENDS
;	COMDAT ??_R4bad_array_new_length@std@@6B@
rdata$r	SEGMENT
??_R4bad_array_new_length@std@@6B@ DD 00H		; std::bad_array_new_length::`RTTI Complete Object Locator'
	DD	00H
	DD	00H
	DD	FLAT:??_R0?AVbad_array_new_length@std@@@8
	DD	FLAT:??_R3bad_array_new_length@std@@8
rdata$r	ENDS
;	COMDAT __CT??_R0?AVexception@std@@@8??0exception@std@@QAE@ABV01@@Z12
xdata$x	SEGMENT
__CT??_R0?AVexception@std@@@8??0exception@std@@QAE@ABV01@@Z12 DD 00H
	DD	FLAT:??_R0?AVexception@std@@@8
	DD	00H
	DD	0ffffffffH
	ORG $+4
	DD	0cH
	DD	FLAT:??0exception@std@@QAE@ABV01@@Z
xdata$x	ENDS
;	COMDAT ??_R3bad_alloc@std@@8
rdata$r	SEGMENT
??_R3bad_alloc@std@@8 DD 00H				; std::bad_alloc::`RTTI Class Hierarchy Descriptor'
	DD	00H
	DD	02H
	DD	FLAT:??_R2bad_alloc@std@@8
rdata$r	ENDS
;	COMDAT ??_R3bad_array_new_length@std@@8
rdata$r	SEGMENT
??_R3bad_array_new_length@std@@8 DD 00H			; std::bad_array_new_length::`RTTI Class Hierarchy Descriptor'
	DD	00H
	DD	03H
	DD	FLAT:??_R2bad_array_new_length@std@@8
rdata$r	ENDS
;	COMDAT ??_R4bad_alloc@std@@6B@
rdata$r	SEGMENT
??_R4bad_alloc@std@@6B@ DD 00H				; std::bad_alloc::`RTTI Complete Object Locator'
	DD	00H
	DD	00H
	DD	FLAT:??_R0?AVbad_alloc@std@@@8
	DD	FLAT:??_R3bad_alloc@std@@8
?_Fake_alloc@std@@3U_Fake_allocator@1@B	ORG $+1		; std::_Fake_alloc
CONST	ENDS
;	COMDAT ??_R3exception@std@@8
rdata$r	SEGMENT
??_R3exception@std@@8 DD 00H				; std::exception::`RTTI Class Hierarchy Descriptor'
	DD	00H
	DD	01H
	DD	FLAT:??_R2exception@std@@8
rdata$r	ENDS
;	COMDAT ??_7exception@std@@6B@
CONST	SEGMENT
??_7exception@std@@6B@ DD FLAT:??_R4exception@std@@6B@	; std::exception::`vftable'
	DD	FLAT:??_Eexception@std@@UAEPAXI@Z
	DD	FLAT:?what@exception@std@@UBEPBDXZ
CONST	ENDS
;	COMDAT ??_R2exception@std@@8
rdata$r	SEGMENT
??_R2exception@std@@8 DD FLAT:??_R1A@?0A@EA@exception@std@@8 ; std::exception::`RTTI Base Class Array'
rdata$r	ENDS
;	COMDAT ??_7bad_alloc@std@@6B@
CONST	SEGMENT
??_7bad_alloc@std@@6B@ DD FLAT:??_R4bad_alloc@std@@6B@	; std::bad_alloc::`vftable'
	DD	FLAT:??_Ebad_alloc@std@@UAEPAXI@Z
	DD	FLAT:?what@exception@std@@UBEPBDXZ
CONST	ENDS
;	COMDAT __CT??_R0?AVbad_alloc@std@@@8??0bad_alloc@std@@QAE@ABV01@@Z12
xdata$x	SEGMENT
__CT??_R0?AVbad_alloc@std@@@8??0bad_alloc@std@@QAE@ABV01@@Z12 DD 010H
	DD	FLAT:??_R0?AVbad_alloc@std@@@8
	DD	00H
	DD	0ffffffffH
	ORG $+4
	DD	0cH
	DD	FLAT:??0bad_alloc@std@@QAE@ABV01@@Z
xdata$x	ENDS
;	COMDAT ??_R1A@?0A@EA@bad_alloc@std@@8
rdata$r	SEGMENT
??_R1A@?0A@EA@bad_alloc@std@@8 DD FLAT:??_R0?AVbad_alloc@std@@@8 ; std::bad_alloc::`RTTI Base Class Descriptor at (0,-1,0,64)'
	DD	01H
	DD	00H
	DD	0ffffffffH
	DD	00H
	DD	040H
	DD	FLAT:??_R3bad_alloc@std@@8
rdata$r	ENDS
;	COMDAT ??_R1A@?0A@EA@exception@std@@8
rdata$r	SEGMENT
??_R1A@?0A@EA@exception@std@@8 DD FLAT:??_R0?AVexception@std@@@8 ; std::exception::`RTTI Base Class Descriptor at (0,-1,0,64)'
	DD	00H
	DD	00H
	DD	0ffffffffH
	DD	00H
	DD	040H
	DD	FLAT:??_R3exception@std@@8
rdata$r	ENDS
;	COMDAT ??_7bad_array_new_length@std@@6B@
CONST	SEGMENT
??_7bad_array_new_length@std@@6B@ DD FLAT:??_R4bad_array_new_length@std@@6B@ ; std::bad_array_new_length::`vftable'
	DD	FLAT:??_Ebad_array_new_length@std@@UAEPAXI@Z
	DD	FLAT:?what@exception@std@@UBEPBDXZ
CONST	ENDS
;	COMDAT __CTA3?AVbad_array_new_length@std@@
xdata$x	SEGMENT
__CTA3?AVbad_array_new_length@std@@ DD 03H
	DD	FLAT:__CT??_R0?AVbad_array_new_length@std@@@8??0bad_array_new_length@std@@QAE@ABV01@@Z12
	DD	FLAT:__CT??_R0?AVbad_alloc@std@@@8??0bad_alloc@std@@QAE@ABV01@@Z12
	DD	FLAT:__CT??_R0?AVexception@std@@@8??0exception@std@@QAE@ABV01@@Z12
xdata$x	ENDS
;	COMDAT ??_R2bad_alloc@std@@8
rdata$r	SEGMENT
??_R2bad_alloc@std@@8 DD FLAT:??_R1A@?0A@EA@bad_alloc@std@@8 ; std::bad_alloc::`RTTI Base Class Array'
	DD	FLAT:??_R1A@?0A@EA@exception@std@@8
rdata$r	ENDS
;	COMDAT ??_R0?AVbad_alloc@std@@@8
data$r	SEGMENT
??_R0?AVbad_alloc@std@@@8 DD FLAT:??_7type_info@@6B@	; std::bad_alloc `RTTI Type Descriptor'
	DD	00H
	DB	'.?AVbad_alloc@std@@', 00H
data$r	ENDS
;	COMDAT ??_R2bad_array_new_length@std@@8
rdata$r	SEGMENT
??_R2bad_array_new_length@std@@8 DD FLAT:??_R1A@?0A@EA@bad_array_new_length@std@@8 ; std::bad_array_new_length::`RTTI Base Class Array'
	DD	FLAT:??_R1A@?0A@EA@bad_alloc@std@@8
	DD	FLAT:??_R1A@?0A@EA@exception@std@@8
rdata$r	ENDS
;	COMDAT ??_R4exception@std@@6B@
rdata$r	SEGMENT
??_R4exception@std@@6B@ DD 00H				; std::exception::`RTTI Complete Object Locator'
	DD	00H
	DD	00H
	DD	FLAT:??_R0?AVexception@std@@@8
	DD	FLAT:??_R3exception@std@@8
rdata$r	ENDS
;	COMDAT ??_C@_1BK@MHIKGOKE@?$AA?3?$AAA?$AAM?$AA?3?$AAa?$AAm?$AA?3?$AAP?$AAM?$AA?3?$AAp?$AAm@
CONST	SEGMENT
??_C@_1BK@MHIKGOKE@?$AA?3?$AAA?$AAM?$AA?3?$AAa?$AAm?$AA?3?$AAP?$AAM?$AA?3?$AAp?$AAm@ DB ':'
	DB	00H, 'A', 00H, 'M', 00H, ':', 00H, 'a', 00H, 'm', 00H, ':', 00H
	DB	'P', 00H, 'M', 00H, ':', 00H, 'p', 00H, 'm', 00H, 00H, 00H ; `string'
CONST	ENDS
;	COMDAT ??_C@_0N@LPFKKEBD@?3AM?3am?3PM?3pm@
CONST	SEGMENT
??_C@_0N@LPFKKEBD@?3AM?3am?3PM?3pm@ DB ':AM:am:PM:pm', 00H ; `string'
CONST	ENDS
;	COMDAT ??_C@_05HKGIJGOH@name?3@
CONST	SEGMENT
??_C@_05HKGIJGOH@name?3@ DB 'name:', 00H		; `string'
CONST	ENDS
;	COMDAT ??_C@_2BI@GPPIDABK@?$AA?$AA?$AAE?$AA?$AA?$AAt?$AA?$AA?$AAa?$AA?$AA?$AAh?$AA?$AA?$AAn@
CONST	SEGMENT
??_C@_2BI@GPPIDABK@?$AA?$AA?$AAE?$AA?$AA?$AAt?$AA?$AA?$AAa?$AA?$AA?$AAh?$AA?$AA?$AAn@ DB 'E'
	DB	00H, 00H, 00H, 't', 00H, 00H, 00H, 'a', 00H, 00H, 00H, 'h', 00H
	DB	00H, 00H, 'n', 00H, 00H, 00H, 00H, 00H, 00H, 00H ; `string'
CONST	ENDS
;	COMDAT ??_C@_1M@PAFHHBLA@?$AAE?$AAt?$AAa?$AAh?$AAn@
CONST	SEGMENT
??_C@_1M@PAFHHBLA@?$AAE?$AAt?$AAa?$AAh?$AAn@ DB 'E', 00H, 't', 00H, 'a', 00H
	DB	'h', 00H, 'n', 00H, 00H, 00H			; `string'
CONST	ENDS
;	COMDAT ??_C@_01LOCGONAA@?$AA@
CONST	SEGMENT
??_C@_01LOCGONAA@?$AA@ DB 00H, 00H			; `string'
CONST	ENDS
;	COMDAT ??_C@_03LFPOMIKD@chs@
CONST	SEGMENT
??_C@_03LFPOMIKD@chs@ DB 'chs', 00H			; `string'
CONST	ENDS
;	COMDAT ??_C@_0BD@CGOJJEID@line4?6line5?6line6?6@
CONST	SEGMENT
??_C@_0BD@CGOJJEID@line4?6line5?6line6?6@ DB 'line4', 0aH, 'line5', 0aH, 'l'
	DB	'ine6', 0aH, 00H				; `string'
CONST	ENDS
;	COMDAT ??_C@_0BC@GBLLDDOB@Line1?6Line2?6Line3@
CONST	SEGMENT
??_C@_0BC@GBLLDDOB@Line1?6Line2?6Line3@ DB 'Line1', 0aH, 'Line2', 0aH, 'L'
	DB	'ine3', 00H					; `string'
CONST	ENDS
;	COMDAT ??_C@_2BI@CPCKAEFF@?$AA?$AA?$AAE?$AA?$AA?$AAt?$AA?$AA?$AAh?$AA?$AA?$AAa?$AA?$AA?$AAn@
CONST	SEGMENT
??_C@_2BI@CPCKAEFF@?$AA?$AA?$AAE?$AA?$AA?$AAt?$AA?$AA?$AAh?$AA?$AA?$AAa?$AA?$AA?$AAn@ DB 'E'
	DB	00H, 00H, 00H, 't', 00H, 00H, 00H, 'h', 00H, 00H, 00H, 'a', 00H
	DB	00H, 00H, 'n', 00H, 00H, 00H, 00H, 00H, 00H, 00H ; `string'
CONST	ENDS
;	COMDAT ??_C@_2M@JLEBFLAK@?$AA?$AA?$AA0?$AA?$AA?$AA3@
CONST	SEGMENT
??_C@_2M@JLEBFLAK@?$AA?$AA?$AA0?$AA?$AA?$AA3@ DB '0', 00H, 00H, 00H, '3', 00H
	DB	00H, 00H, 00H, 00H, 00H, 00H			; `string'
CONST	ENDS
;	COMDAT ??_C@_15BAGFGJNL@?$AA0?$AA2@
CONST	SEGMENT
??_C@_15BAGFGJNL@?$AA0?$AA2@ DB '0', 00H, '2', 00H, 00H, 00H ; `string'
CONST	ENDS
;	COMDAT ??_C@_1M@MIBHDLFD@?$AAE?$AAt?$AAh?$AAa?$AAn@
CONST	SEGMENT
??_C@_1M@MIBHDLFD@?$AAE?$AAt?$AAh?$AAa?$AAn@ DB 'E', 00H, 't', 00H, 'h', 00H
	DB	'a', 00H, 'n', 00H, 00H, 00H			; `string'
CONST	ENDS
;	COMDAT ??_C@_15CNAMGDF@?$AA0?$AA1@
CONST	SEGMENT
??_C@_15CNAMGDF@?$AA0?$AA1@ DB '0', 00H, '1', 00H, 00H, 00H ; `string'
CONST	ENDS
;	COMDAT ??_C@_05FBADLLFO@Ethan@
CONST	SEGMENT
??_C@_05FBADLLFO@Ethan@ DB 'Ethan', 00H			; `string'
CONST	ENDS
;	COMDAT ??_C@_02PLJDPFIO@00@
CONST	SEGMENT
??_C@_02PLJDPFIO@00@ DB '00', 00H			; `string'
CONST	ENDS
;	COMDAT ??_C@_01NBENCBCI@?$CK@
CONST	SEGMENT
??_C@_01NBENCBCI@?$CK@ DB '*', 00H			; `string'
CONST	ENDS
;	COMDAT ??_C@_0BA@ELKIONDK@bad?5locale?5name@
CONST	SEGMENT
??_C@_0BA@ELKIONDK@bad?5locale?5name@ DB 'bad locale name', 00H ; `string'
CONST	ENDS
;	COMDAT ??_C@_0BA@JFNIOLAK@string?5too?5long@
CONST	SEGMENT
??_C@_0BA@JFNIOLAK@string?5too?5long@ DB 'string too long', 00H ; `string'
CONST	ENDS
;	COMDAT ??_C@_0BF@KINCDENJ@bad?5array?5new?5length@
CONST	SEGMENT
??_C@_0BF@KINCDENJ@bad?5array?5new?5length@ DB 'bad array new length', 00H ; `string'
CONST	ENDS
;	COMDAT ??_C@_0BC@EOODALEL@Unknown?5exception@
CONST	SEGMENT
??_C@_0BC@EOODALEL@Unknown?5exception@ DB 'Unknown exception', 00H ; `string'
CONST	ENDS
PUBLIC	??$forward@AAPA_S@std@@YAAAPA_SAAPA_S@Z		; std::forward<char16_t * &>
PUBLIC	??$forward@AAPA_U@std@@YAAAPA_UAAPA_U@Z		; std::forward<char32_t * &>
PUBLIC	??$forward@V?$allocator@_S@std@@@std@@YA$$QAV?$allocator@_S@0@AAV10@@Z ; std::forward<std::allocator<char16_t> >
PUBLIC	??$forward@V?$allocator@_U@std@@@std@@YA$$QAV?$allocator@_U@0@AAV10@@Z ; std::forward<std::allocator<char32_t> >
PUBLIC	??$forward@ABQA_S@std@@YAABQA_SABQA_S@Z		; std::forward<char16_t * const &>
PUBLIC	??$_Voidify_iter@PAPA_S@std@@YAPAXPAPA_S@Z	; std::_Voidify_iter<char16_t * *>
PUBLIC	??$addressof@PA_S@std@@YAPAPA_SAAPA_S@Z		; std::addressof<char16_t *>
PUBLIC	??$forward@ABQA_U@std@@YAABQA_UABQA_U@Z		; std::forward<char32_t * const &>
PUBLIC	??$_Voidify_iter@PAPA_U@std@@YAPAXPAPA_U@Z	; std::_Voidify_iter<char32_t * *>
PUBLIC	??$addressof@PA_U@std@@YAPAPA_UAAPA_U@Z		; std::addressof<char32_t *>
PUBLIC	??$addressof@$$CBV?$_String_val@U?$_Simple_types@_S@std@@@std@@@std@@YAPBV?$_String_val@U?$_Simple_types@_S@std@@@0@ABV10@@Z ; std::addressof<std::_String_val<std::_Simple_types<char16_t> > const >
PUBLIC	??$addressof@V?$_String_val@U?$_Simple_types@_S@std@@@std@@@std@@YAPAV?$_String_val@U?$_Simple_types@_S@std@@@0@AAV10@@Z ; std::addressof<std::_String_val<std::_Simple_types<char16_t> > >
PUBLIC	??$addressof@$$CBV?$_String_val@U?$_Simple_types@_U@std@@@std@@@std@@YAPBV?$_String_val@U?$_Simple_types@_U@std@@@0@ABV10@@Z ; std::addressof<std::_String_val<std::_Simple_types<char32_t> > const >
PUBLIC	??$addressof@V?$_String_val@U?$_Simple_types@_U@std@@@std@@@std@@YAPAV?$_String_val@U?$_Simple_types@_U@std@@@0@AAV10@@Z ; std::addressof<std::_String_val<std::_Simple_types<char32_t> > >
PUBLIC	??$_Construct_in_place@PA_SAAPA_S@std@@YAXAAPA_S0@Z ; std::_Construct_in_place<char16_t *,char16_t * &>
PUBLIC	??$_Reallocate_grow_by@V<lambda_98ae700cc7810ca9f391bc310db97391>@@PB_SI@?$basic_string@_SU?$char_traits@_S@std@@V?$allocator@_S@2@@std@@AAEAAV01@IV<lambda_98ae700cc7810ca9f391bc310db97391>@@PB_SI@Z ; std::basic_string<char16_t,std::char_traits<char16_t>,std::allocator<char16_t> >::_Reallocate_grow_by<<lambda_98ae700cc7810ca9f391bc310db97391>,char16_t const *,unsigned int>
PUBLIC	??$_Construct_in_place@PA_UAAPA_U@std@@YAXAAPA_U0@Z ; std::_Construct_in_place<char32_t *,char32_t * &>
PUBLIC	??$_Reallocate_grow_by@V<lambda_aabcc5df0dcdbd223414bc3ba38ad6d9>@@PB_UI@?$basic_string@_UU?$char_traits@_U@std@@V?$allocator@_U@2@@std@@AAEAAV01@IV<lambda_aabcc5df0dcdbd223414bc3ba38ad6d9>@@PB_UI@Z ; std::basic_string<char32_t,std::char_traits<char32_t>,std::allocator<char32_t> >::_Reallocate_grow_by<<lambda_aabcc5df0dcdbd223414bc3ba38ad6d9>,char32_t const *,unsigned int>
PUBLIC	??$?0V?$allocator@_S@std@@$$V@?$_Compressed_pair@V?$allocator@_S@std@@V?$_String_val@U?$_Simple_types@_S@std@@@2@$00@std@@QAE@U_One_then_variadic_args_t@1@$$QAV?$allocator@_S@1@@Z ; std::_Compressed_pair<std::allocator<char16_t>,std::_String_val<std::_Simple_types<char16_t> >,1>::_Compressed_pair<std::allocator<char16_t>,std::_String_val<std::_Simple_types<char16_t> >,1><std::allocator<char16_t> >
PUBLIC	??$move@AAV?$allocator@_S@std@@@std@@YA$$QAV?$allocator@_S@0@AAV10@@Z ; std::move<std::allocator<char16_t> &>
PUBLIC	??$_Get_size_of_n@$03@std@@YAII@Z		; std::_Get_size_of_n<4>
PUBLIC	??$?0V?$allocator@_U@std@@$$V@?$_Compressed_pair@V?$allocator@_U@std@@V?$_String_val@U?$_Simple_types@_U@std@@@2@$00@std@@QAE@U_One_then_variadic_args_t@1@$$QAV?$allocator@_U@1@@Z ; std::_Compressed_pair<std::allocator<char32_t>,std::_String_val<std::_Simple_types<char32_t> >,1>::_Compressed_pair<std::allocator<char32_t>,std::_String_val<std::_Simple_types<char32_t> >,1><std::allocator<char32_t> >
PUBLIC	??$move@AAV?$allocator@_U@std@@@std@@YA$$QAV?$allocator@_U@0@AAV10@@Z ; std::move<std::allocator<char32_t> &>
PUBLIC	??$_Allocate_manually_vector_aligned@U_Default_allocate_traits@std@@@std@@YAPAXI@Z ; std::_Allocate_manually_vector_aligned<std::_Default_allocate_traits>
PUBLIC	??$forward@ABQA_W@std@@YAABQA_WABQA_W@Z		; std::forward<wchar_t * const &>
PUBLIC	??$forward@AAPAD@std@@YAAAPADAAPAD@Z		; std::forward<char * &>
PUBLIC	??$forward@ABQAD@std@@YAABQADABQAD@Z		; std::forward<char * const &>
PUBLIC	??$_Voidify_iter@PAPAD@std@@YAPAXPAPAD@Z	; std::_Voidify_iter<char * *>
PUBLIC	??$addressof@PAD@std@@YAPAPADAAPAD@Z		; std::addressof<char *>
PUBLIC	??$forward@AAPA_W@std@@YAAAPA_WAAPA_W@Z		; std::forward<wchar_t * &>
PUBLIC	??$_Voidify_iter@PAPA_W@std@@YAPAXPAPA_W@Z	; std::_Voidify_iter<wchar_t * *>
PUBLIC	??$addressof@PA_W@std@@YAPAPA_WAAPA_W@Z		; std::addressof<wchar_t *>
PUBLIC	??$_Construct_in_place@PA_SABQA_S@std@@YAXAAPA_SABQA_S@Z ; std::_Construct_in_place<char16_t *,char16_t * const &>
PUBLIC	??$_Construct_in_place@PA_UABQA_U@std@@YAXAAPA_UABQA_U@Z ; std::_Construct_in_place<char32_t *,char32_t * const &>
PUBLIC	??$forward@V?$allocator@D@std@@@std@@YA$$QAV?$allocator@D@0@AAV10@@Z ; std::forward<std::allocator<char> >
PUBLIC	??$forward@V?$allocator@_W@std@@@std@@YA$$QAV?$allocator@_W@0@AAV10@@Z ; std::forward<std::allocator<wchar_t> >
PUBLIC	??$_Insert_string@_WU?$char_traits@_W@std@@I@std@@YAAAV?$basic_ostream@_WU?$char_traits@_W@std@@@0@AAV10@QB_WI@Z ; std::_Insert_string<wchar_t,std::char_traits<wchar_t>,unsigned int>
PUBLIC	??$_Insert_string@DU?$char_traits@D@std@@I@std@@YAAAV?$basic_ostream@DU?$char_traits@D@std@@@0@AAV10@QBDI@Z ; std::_Insert_string<char,std::char_traits<char>,unsigned int>
PUBLIC	??$move@AAV?$basic_string@_UU?$char_traits@_U@std@@V?$allocator@_U@2@@std@@@std@@YA$$QAV?$basic_string@_UU?$char_traits@_U@std@@V?$allocator@_U@2@@0@AAV10@@Z ; std::move<std::basic_string<char32_t,std::char_traits<char32_t>,std::allocator<char32_t> > &>
PUBLIC	??$move@AAV?$basic_string@_SU?$char_traits@_S@std@@V?$allocator@_S@2@@std@@@std@@YA$$QAV?$basic_string@_SU?$char_traits@_S@std@@V?$allocator@_S@2@@0@AAV10@@Z ; std::move<std::basic_string<char16_t,std::char_traits<char16_t>,std::allocator<char16_t> > &>
PUBLIC	?_Memcpy_val_from@?$basic_string@_SU?$char_traits@_S@std@@V?$allocator@_S@2@@std@@AAEXABV12@@Z ; std::basic_string<char16_t,std::char_traits<char16_t>,std::allocator<char16_t> >::_Memcpy_val_from
PUBLIC	?_Swap_proxy_and_iterators@?$basic_string@_SU?$char_traits@_S@std@@V?$allocator@_S@2@@std@@AAEXAAV12@@Z ; std::basic_string<char16_t,std::char_traits<char16_t>,std::allocator<char16_t> >::_Swap_proxy_and_iterators
PUBLIC	?_Get_first@?$_Compressed_pair@V?$allocator@_S@std@@V?$_String_val@U?$_Simple_types@_S@std@@@2@$00@std@@QBEABV?$allocator@_S@2@XZ ; std::_Compressed_pair<std::allocator<char16_t>,std::_String_val<std::_Simple_types<char16_t> >,1>::_Get_first
PUBLIC	?_Memcpy_val_from@?$basic_string@_UU?$char_traits@_U@std@@V?$allocator@_U@2@@std@@AAEXABV12@@Z ; std::basic_string<char32_t,std::char_traits<char32_t>,std::allocator<char32_t> >::_Memcpy_val_from
PUBLIC	?_Swap_proxy_and_iterators@?$basic_string@_UU?$char_traits@_U@std@@V?$allocator@_U@2@@std@@AAEXAAV12@@Z ; std::basic_string<char32_t,std::char_traits<char32_t>,std::allocator<char32_t> >::_Swap_proxy_and_iterators
PUBLIC	?_Get_first@?$_Compressed_pair@V?$allocator@_U@std@@V?$_String_val@U?$_Simple_types@_U@std@@@2@$00@std@@QBEABV?$allocator@_U@2@XZ ; std::_Compressed_pair<std::allocator<char32_t>,std::_String_val<std::_Simple_types<char32_t> >,1>::_Get_first
PUBLIC	??0_Sentry_base@?$basic_ostream@_WU?$char_traits@_W@std@@@std@@QAE@AAV12@@Z ; std::basic_ostream<wchar_t,std::char_traits<wchar_t> >::_Sentry_base::_Sentry_base
PUBLIC	??1_Sentry_base@?$basic_ostream@_WU?$char_traits@_W@std@@@std@@QAE@XZ ; std::basic_ostream<wchar_t,std::char_traits<wchar_t> >::_Sentry_base::~_Sentry_base
PUBLIC	?length@?$_WChar_traits@_S@std@@SAIPB_S@Z	; std::_WChar_traits<char16_t>::length
PUBLIC	?length@?$_Char_traits@_UI@std@@SAIPB_U@Z	; std::_Char_traits<char32_t,unsigned int>::length
PUBLIC	??0_Bxty@?$_String_val@U?$_Simple_types@D@std@@@std@@QAE@XZ ; std::_String_val<std::_Simple_types<char> >::_Bxty::_Bxty
PUBLIC	?_Calculate_growth@?$basic_string@DU?$char_traits@D@std@@V?$allocator@D@2@@std@@CAIIII@Z ; std::basic_string<char,std::char_traits<char>,std::allocator<char> >::_Calculate_growth
PUBLIC	??0_Bxty@?$_String_val@U?$_Simple_types@_W@std@@@std@@QAE@XZ ; std::_String_val<std::_Simple_types<wchar_t> >::_Bxty::_Bxty
PUBLIC	?_Calculate_growth@?$basic_string@_WU?$char_traits@_W@std@@V?$allocator@_W@2@@std@@CAIIII@Z ; std::basic_string<wchar_t,std::char_traits<wchar_t>,std::allocator<wchar_t> >::_Calculate_growth
PUBLIC	?max_size@?$_Default_allocator_traits@V?$allocator@_S@std@@@std@@SAIABV?$allocator@_S@2@@Z ; std::_Default_allocator_traits<std::allocator<char16_t> >::max_size
PUBLIC	??0_Bxty@?$_String_val@U?$_Simple_types@_S@std@@@std@@QAE@XZ ; std::_String_val<std::_Simple_types<char16_t> >::_Bxty::_Bxty
PUBLIC	?_Take_contents@?$basic_string@_SU?$char_traits@_S@std@@V?$allocator@_S@2@@std@@AAEXAAV12@@Z ; std::basic_string<char16_t,std::char_traits<char16_t>,std::allocator<char16_t> >::_Take_contents
PUBLIC	??R<lambda_98ae700cc7810ca9f391bc310db97391>@@QBE@QA_SQB_SI1I@Z ; <lambda_98ae700cc7810ca9f391bc310db97391>::operator()
PUBLIC	?append@?$basic_string@_SU?$char_traits@_S@std@@V?$allocator@_S@2@@std@@QAEAAV12@QB_SI@Z ; std::basic_string<char16_t,std::char_traits<char16_t>,std::allocator<char16_t> >::append
PUBLIC	?_Calculate_growth@?$basic_string@_SU?$char_traits@_S@std@@V?$allocator@_S@2@@std@@CAIIII@Z ; std::basic_string<char16_t,std::char_traits<char16_t>,std::allocator<char16_t> >::_Calculate_growth
PUBLIC	?_Getal@?$basic_string@_SU?$char_traits@_S@std@@V?$allocator@_S@2@@std@@ABEABV?$allocator@_S@2@XZ ; std::basic_string<char16_t,std::char_traits<char16_t>,std::allocator<char16_t> >::_Getal
PUBLIC	?max_size@?$_Default_allocator_traits@V?$allocator@_U@std@@@std@@SAIABV?$allocator@_U@2@@Z ; std::_Default_allocator_traits<std::allocator<char32_t> >::max_size
PUBLIC	??0_Bxty@?$_String_val@U?$_Simple_types@_U@std@@@std@@QAE@XZ ; std::_String_val<std::_Simple_types<char32_t> >::_Bxty::_Bxty
PUBLIC	?_Take_contents@?$basic_string@_UU?$char_traits@_U@std@@V?$allocator@_U@2@@std@@AAEXAAV12@@Z ; std::basic_string<char32_t,std::char_traits<char32_t>,std::allocator<char32_t> >::_Take_contents
PUBLIC	??R<lambda_aabcc5df0dcdbd223414bc3ba38ad6d9>@@QBE@QA_UQB_UI1I@Z ; <lambda_aabcc5df0dcdbd223414bc3ba38ad6d9>::operator()
PUBLIC	?append@?$basic_string@_UU?$char_traits@_U@std@@V?$allocator@_U@2@@std@@QAEAAV12@QB_UI@Z ; std::basic_string<char32_t,std::char_traits<char32_t>,std::allocator<char32_t> >::append
PUBLIC	?_Calculate_growth@?$basic_string@_UU?$char_traits@_U@std@@V?$allocator@_U@2@@std@@CAIIII@Z ; std::basic_string<char32_t,std::char_traits<char32_t>,std::allocator<char32_t> >::_Calculate_growth
PUBLIC	?_Getal@?$basic_string@_UU?$char_traits@_U@std@@V?$allocator@_U@2@@std@@ABEABV?$allocator@_U@2@XZ ; std::basic_string<char32_t,std::char_traits<char32_t>,std::allocator<char32_t> >::_Getal
PUBLIC	??0sentry@?$basic_ostream@_WU?$char_traits@_W@std@@@std@@QAE@AAV12@@Z ; std::basic_ostream<wchar_t,std::char_traits<wchar_t> >::sentry::sentry
PUBLIC	??1sentry@?$basic_ostream@_WU?$char_traits@_W@std@@@std@@QAE@XZ ; std::basic_ostream<wchar_t,std::char_traits<wchar_t> >::sentry::~sentry
PUBLIC	??Bsentry@?$basic_ostream@_WU?$char_traits@_W@std@@@std@@QBE_NXZ ; std::basic_ostream<wchar_t,std::char_traits<wchar_t> >::sentry::operator bool
PUBLIC	??0?$allocator@D@std@@QAE@XZ			; std::allocator<char>::allocator<char>
PUBLIC	??0?$_String_val@U?$_Simple_types@D@std@@@std@@QAE@XZ ; std::_String_val<std::_Simple_types<char> >::_String_val<std::_Simple_types<char> >
PUBLIC	?data@?$basic_string@DU?$char_traits@D@std@@V?$allocator@D@2@@std@@QBEPBDXZ ; std::basic_string<char,std::char_traits<char>,std::allocator<char> >::data
PUBLIC	?_Calculate_growth@?$basic_string@DU?$char_traits@D@std@@V?$allocator@D@2@@std@@ABEII@Z ; std::basic_string<char,std::char_traits<char>,std::allocator<char> >::_Calculate_growth
PUBLIC	??0?$allocator@_W@std@@QAE@XZ			; std::allocator<wchar_t>::allocator<wchar_t>
PUBLIC	??0?$_String_val@U?$_Simple_types@_W@std@@@std@@QAE@XZ ; std::_String_val<std::_Simple_types<wchar_t> >::_String_val<std::_Simple_types<wchar_t> >
PUBLIC	?append@?$basic_string@_WU?$char_traits@_W@std@@V?$allocator@_W@2@@std@@QAEAAV12@QB_W@Z ; std::basic_string<wchar_t,std::char_traits<wchar_t>,std::allocator<wchar_t> >::append
PUBLIC	?data@?$basic_string@_WU?$char_traits@_W@std@@V?$allocator@_W@2@@std@@QBEPB_WXZ ; std::basic_string<wchar_t,std::char_traits<wchar_t>,std::allocator<wchar_t> >::data
PUBLIC	?_Calculate_growth@?$basic_string@_WU?$char_traits@_W@std@@V?$allocator@_W@2@@std@@ABEII@Z ; std::basic_string<wchar_t,std::char_traits<wchar_t>,std::allocator<wchar_t> >::_Calculate_growth
PUBLIC	??0?$allocator@_S@std@@QAE@XZ			; std::allocator<char16_t>::allocator<char16_t>
PUBLIC	?allocate@?$allocator@_S@std@@QAEPA_SI@Z	; std::allocator<char16_t>::allocate
PUBLIC	??0?$_String_val@U?$_Simple_types@_S@std@@@std@@QAE@XZ ; std::_String_val<std::_Simple_types<char16_t> >::_String_val<std::_Simple_types<char16_t> >
PUBLIC	??0?$basic_string@_SU?$char_traits@_S@std@@V?$allocator@_S@2@@std@@QAE@$$QAV01@@Z ; std::basic_string<char16_t,std::char_traits<char16_t>,std::allocator<char16_t> >::basic_string<char16_t,std::char_traits<char16_t>,std::allocator<char16_t> >
PUBLIC	?append@?$basic_string@_SU?$char_traits@_S@std@@V?$allocator@_S@2@@std@@QAEAAV12@QB_S@Z ; std::basic_string<char16_t,std::char_traits<char16_t>,std::allocator<char16_t> >::append
PUBLIC	?max_size@?$basic_string@_SU?$char_traits@_S@std@@V?$allocator@_S@2@@std@@QBEIXZ ; std::basic_string<char16_t,std::char_traits<char16_t>,std::allocator<char16_t> >::max_size
PUBLIC	?_Calculate_growth@?$basic_string@_SU?$char_traits@_S@std@@V?$allocator@_S@2@@std@@ABEII@Z ; std::basic_string<char16_t,std::char_traits<char16_t>,std::allocator<char16_t> >::_Calculate_growth
PUBLIC	??0?$allocator@_U@std@@QAE@XZ			; std::allocator<char32_t>::allocator<char32_t>
PUBLIC	?allocate@?$allocator@_U@std@@QAEPA_UI@Z	; std::allocator<char32_t>::allocate
PUBLIC	??0?$_String_val@U?$_Simple_types@_U@std@@@std@@QAE@XZ ; std::_String_val<std::_Simple_types<char32_t> >::_String_val<std::_Simple_types<char32_t> >
PUBLIC	??0?$basic_string@_UU?$char_traits@_U@std@@V?$allocator@_U@2@@std@@QAE@$$QAV01@@Z ; std::basic_string<char32_t,std::char_traits<char32_t>,std::allocator<char32_t> >::basic_string<char32_t,std::char_traits<char32_t>,std::allocator<char32_t> >
PUBLIC	?append@?$basic_string@_UU?$char_traits@_U@std@@V?$allocator@_U@2@@std@@QAEAAV12@QB_U@Z ; std::basic_string<char32_t,std::char_traits<char32_t>,std::allocator<char32_t> >::append
PUBLIC	?max_size@?$basic_string@_UU?$char_traits@_U@std@@V?$allocator@_U@2@@std@@QBEIXZ ; std::basic_string<char32_t,std::char_traits<char32_t>,std::allocator<char32_t> >::max_size
PUBLIC	?_Calculate_growth@?$basic_string@_UU?$char_traits@_U@std@@V?$allocator@_U@2@@std@@ABEII@Z ; std::basic_string<char32_t,std::char_traits<char32_t>,std::allocator<char32_t> >::_Calculate_growth
PUBLIC	??$_Get_size_of_n@$01@std@@YAII@Z		; std::_Get_size_of_n<2>
PUBLIC	??$_Reallocate_grow_by@V<lambda_2fb699096920f2dc628cb0826b07831d>@@PB_WI@?$basic_string@_WU?$char_traits@_W@std@@V?$allocator@_W@2@@std@@AAEAAV01@IV<lambda_2fb699096920f2dc628cb0826b07831d>@@PB_WI@Z ; std::basic_string<wchar_t,std::char_traits<wchar_t>,std::allocator<wchar_t> >::_Reallocate_grow_by<<lambda_2fb699096920f2dc628cb0826b07831d>,wchar_t const *,unsigned int>
PUBLIC	??$_Allocate@$07U_Default_allocate_traits@std@@$0A@@std@@YAPAXI@Z ; std::_Allocate<8,std::_Default_allocate_traits,0>
PUBLIC	??$_Get_size_of_n@$00@std@@YAII@Z		; std::_Get_size_of_n<1>
PUBLIC	??$addressof@$$CBV?$_String_val@U?$_Simple_types@D@std@@@std@@@std@@YAPBV?$_String_val@U?$_Simple_types@D@std@@@0@ABV10@@Z ; std::addressof<std::_String_val<std::_Simple_types<char> > const >
PUBLIC	??$addressof@V?$_String_val@U?$_Simple_types@D@std@@@std@@@std@@YAPAV?$_String_val@U?$_Simple_types@D@std@@@0@AAV10@@Z ; std::addressof<std::_String_val<std::_Simple_types<char> > >
PUBLIC	??$addressof@$$CBV?$_String_val@U?$_Simple_types@_W@std@@@std@@@std@@YAPBV?$_String_val@U?$_Simple_types@_W@std@@@0@ABV10@@Z ; std::addressof<std::_String_val<std::_Simple_types<wchar_t> > const >
PUBLIC	??$_Construct_in_place@PA_WABQA_W@std@@YAXAAPA_WABQA_W@Z ; std::_Construct_in_place<wchar_t *,wchar_t * const &>
PUBLIC	??$addressof@V?$_String_val@U?$_Simple_types@_W@std@@@std@@@std@@YAPAV?$_String_val@U?$_Simple_types@_W@std@@@0@AAV10@@Z ; std::addressof<std::_String_val<std::_Simple_types<wchar_t> > >
PUBLIC	??$_Deallocate@$07$0A@@std@@YAXPAXI@Z		; std::_Deallocate<8,0>
PUBLIC	??$_Construct_in_place@PADAAPAD@std@@YAXAAPAD0@Z ; std::_Construct_in_place<char *,char * &>
PUBLIC	??$_Unfancy@D@std@@YAPADPAD@Z			; std::_Unfancy<char>
PUBLIC	??$_Construct_in_place@PADABQAD@std@@YAXAAPADABQAD@Z ; std::_Construct_in_place<char *,char * const &>
PUBLIC	??$_Reallocate_grow_by@V<lambda_ab246b20b9526e2ef7792587e4298a77>@@PBDI@?$basic_string@DU?$char_traits@D@std@@V?$allocator@D@2@@std@@AAEAAV01@IV<lambda_ab246b20b9526e2ef7792587e4298a77>@@PBDI@Z ; std::basic_string<char,std::char_traits<char>,std::allocator<char> >::_Reallocate_grow_by<<lambda_ab246b20b9526e2ef7792587e4298a77>,char const *,unsigned int>
PUBLIC	??$_Reallocate_for@V<lambda_9366063389c5f42a00a5088cf24e69de>@@PBD@?$basic_string@DU?$char_traits@D@std@@V?$allocator@D@2@@std@@AAEAAV01@IV<lambda_9366063389c5f42a00a5088cf24e69de>@@PBD@Z ; std::basic_string<char,std::char_traits<char>,std::allocator<char> >::_Reallocate_for<<lambda_9366063389c5f42a00a5088cf24e69de>,char const *>
PUBLIC	??$_Destroy_in_place@PAD@std@@YAXAAPAD@Z	; std::_Destroy_in_place<char *>
PUBLIC	??$_Unfancy@_W@std@@YAPA_WPA_W@Z		; std::_Unfancy<wchar_t>
PUBLIC	??$_Construct_in_place@PA_WAAPA_W@std@@YAXAAPA_W0@Z ; std::_Construct_in_place<wchar_t *,wchar_t * &>
PUBLIC	??$_Reallocate_for@V<lambda_03628ca18370b1f44a99b655e704819b>@@PB_W@?$basic_string@_WU?$char_traits@_W@std@@V?$allocator@_W@2@@std@@AAEAAV01@IV<lambda_03628ca18370b1f44a99b655e704819b>@@PB_W@Z ; std::basic_string<wchar_t,std::char_traits<wchar_t>,std::allocator<wchar_t> >::_Reallocate_for<<lambda_03628ca18370b1f44a99b655e704819b>,wchar_t const *>
PUBLIC	??$_Destroy_in_place@PA_W@std@@YAXAAPA_W@Z	; std::_Destroy_in_place<wchar_t *>
PUBLIC	??$_Unfancy@_S@std@@YAPA_SPA_S@Z		; std::_Unfancy<char16_t>
PUBLIC	??$_Reallocate_for@V<lambda_493290ea8cd8fcd66ff9f3cecf244fbc>@@PB_S@?$basic_string@_SU?$char_traits@_S@std@@V?$allocator@_S@2@@std@@AAEAAV01@IV<lambda_493290ea8cd8fcd66ff9f3cecf244fbc>@@PB_S@Z ; std::basic_string<char16_t,std::char_traits<char16_t>,std::allocator<char16_t> >::_Reallocate_for<<lambda_493290ea8cd8fcd66ff9f3cecf244fbc>,char16_t const *>
PUBLIC	??$_Destroy_in_place@PA_S@std@@YAXAAPA_S@Z	; std::_Destroy_in_place<char16_t *>
PUBLIC	??$_Unfancy@_U@std@@YAPA_UPA_U@Z		; std::_Unfancy<char32_t>
PUBLIC	??$_Reallocate_for@V<lambda_02ffc73a80c062ba6e5e6c9f53d514cc>@@PB_U@?$basic_string@_UU?$char_traits@_U@std@@V?$allocator@_U@2@@std@@AAEAAV01@IV<lambda_02ffc73a80c062ba6e5e6c9f53d514cc>@@PB_U@Z ; std::basic_string<char32_t,std::char_traits<char32_t>,std::allocator<char32_t> >::_Reallocate_for<<lambda_02ffc73a80c062ba6e5e6c9f53d514cc>,char32_t const *>
PUBLIC	??$_Destroy_in_place@PA_U@std@@YAXAAPA_U@Z	; std::_Destroy_in_place<char32_t *>
PUBLIC	??$?0$$V@?$_Compressed_pair@V?$allocator@D@std@@V?$_String_val@U?$_Simple_types@D@std@@@2@$00@std@@QAE@U_Zero_then_variadic_args_t@1@@Z ; std::_Compressed_pair<std::allocator<char>,std::_String_val<std::_Simple_types<char> >,1>::_Compressed_pair<std::allocator<char>,std::_String_val<std::_Simple_types<char> >,1><>
PUBLIC	??$?0V?$allocator@D@std@@$$V@?$_Compressed_pair@V?$allocator@D@std@@V?$_String_val@U?$_Simple_types@D@std@@@2@$00@std@@QAE@U_One_then_variadic_args_t@1@$$QAV?$allocator@D@1@@Z ; std::_Compressed_pair<std::allocator<char>,std::_String_val<std::_Simple_types<char> >,1>::_Compressed_pair<std::allocator<char>,std::_String_val<std::_Simple_types<char> >,1><std::allocator<char> >
PUBLIC	??$move@AAV?$allocator@D@std@@@std@@YA$$QAV?$allocator@D@0@AAV10@@Z ; std::move<std::allocator<char> &>
PUBLIC	??$_Convert_size@I@std@@YAII@Z			; std::_Convert_size<unsigned int>
PUBLIC	??$?0$$V@?$_Compressed_pair@V?$allocator@_W@std@@V?$_String_val@U?$_Simple_types@_W@std@@@2@$00@std@@QAE@U_Zero_then_variadic_args_t@1@@Z ; std::_Compressed_pair<std::allocator<wchar_t>,std::_String_val<std::_Simple_types<wchar_t> >,1>::_Compressed_pair<std::allocator<wchar_t>,std::_String_val<std::_Simple_types<wchar_t> >,1><>
PUBLIC	??$?0V?$allocator@_W@std@@$$V@?$_Compressed_pair@V?$allocator@_W@std@@V?$_String_val@U?$_Simple_types@_W@std@@@2@$00@std@@QAE@U_One_then_variadic_args_t@1@$$QAV?$allocator@_W@1@@Z ; std::_Compressed_pair<std::allocator<wchar_t>,std::_String_val<std::_Simple_types<wchar_t> >,1>::_Compressed_pair<std::allocator<wchar_t>,std::_String_val<std::_Simple_types<wchar_t> >,1><std::allocator<wchar_t> >
PUBLIC	??$move@AAV?$allocator@_W@std@@@std@@YA$$QAV?$allocator@_W@0@AAV10@@Z ; std::move<std::allocator<wchar_t> &>
PUBLIC	??$?0$$V@?$_Compressed_pair@V?$allocator@_S@std@@V?$_String_val@U?$_Simple_types@_S@std@@@2@$00@std@@QAE@U_Zero_then_variadic_args_t@1@@Z ; std::_Compressed_pair<std::allocator<char16_t>,std::_String_val<std::_Simple_types<char16_t> >,1>::_Compressed_pair<std::allocator<char16_t>,std::_String_val<std::_Simple_types<char16_t> >,1><>
PUBLIC	??$?0$$V@?$_Compressed_pair@V?$allocator@_U@std@@V?$_String_val@U?$_Simple_types@_U@std@@@2@$00@std@@QAE@U_Zero_then_variadic_args_t@1@@Z ; std::_Compressed_pair<std::allocator<char32_t>,std::_String_val<std::_Simple_types<char32_t> >,1>::_Compressed_pair<std::allocator<char32_t>,std::_String_val<std::_Simple_types<char32_t> >,1><>
PUBLIC	??$min@I@std@@YAABIABI0@Z			; std::min<unsigned int>
PUBLIC	??$move@AAV?$basic_string@DU?$char_traits@D@std@@V?$allocator@D@2@@std@@@std@@YA$$QAV?$basic_string@DU?$char_traits@D@std@@V?$allocator@D@2@@0@AAV10@@Z ; std::move<std::basic_string<char,std::char_traits<char>,std::allocator<char> > &>
PUBLIC	??$move@AAV?$basic_string@_WU?$char_traits@_W@std@@V?$allocator@_W@2@@std@@@std@@YA$$QAV?$basic_string@_WU?$char_traits@_W@std@@V?$allocator@_W@2@@0@AAV10@@Z ; std::move<std::basic_string<wchar_t,std::char_traits<wchar_t>,std::allocator<wchar_t> > &>
PUBLIC	??$?6U?$char_traits@D@std@@@std@@YAAAV?$basic_ostream@DU?$char_traits@D@std@@@0@AAV10@PBD@Z ; std::operator<<<std::char_traits<char> >
PUBLIC	??$?6U?$char_traits@D@std@@@std@@YAAAV?$basic_ostream@DU?$char_traits@D@std@@@0@AAV10@D@Z ; std::operator<<<std::char_traits<char> >
PUBLIC	??$endl@_WU?$char_traits@_W@std@@@std@@YAAAV?$basic_ostream@_WU?$char_traits@_W@std@@@0@AAV10@@Z ; std::endl<wchar_t,std::char_traits<wchar_t> >
PUBLIC	??$?6_WU?$char_traits@_W@std@@V?$allocator@_W@1@@std@@YAAAV?$basic_ostream@_WU?$char_traits@_W@std@@@0@AAV10@ABV?$basic_string@_WU?$char_traits@_W@std@@V?$allocator@_W@2@@0@@Z ; std::operator<<<wchar_t,std::char_traits<wchar_t>,std::allocator<wchar_t> >
PUBLIC	??$endl@DU?$char_traits@D@std@@@std@@YAAAV?$basic_ostream@DU?$char_traits@D@std@@@0@AAV10@@Z ; std::endl<char,std::char_traits<char> >
PUBLIC	??$?6DU?$char_traits@D@std@@V?$allocator@D@1@@std@@YAAAV?$basic_ostream@DU?$char_traits@D@std@@@0@AAV10@ABV?$basic_string@DU?$char_traits@D@std@@V?$allocator@D@2@@0@@Z ; std::operator<<<char,std::char_traits<char>,std::allocator<char> >
PUBLIC	??$?H_UU?$char_traits@_U@std@@V?$allocator@_U@1@@std@@YA?AV?$basic_string@_UU?$char_traits@_U@std@@V?$allocator@_U@2@@0@$$QAV10@QB_U@Z ; std::operator+<char32_t,std::char_traits<char32_t>,std::allocator<char32_t> >
PUBLIC	??$?H_SU?$char_traits@_S@std@@V?$allocator@_S@1@@std@@YA?AV?$basic_string@_SU?$char_traits@_S@std@@V?$allocator@_S@2@@0@$$QAV10@QB_S@Z ; std::operator+<char16_t,std::char_traits<char16_t>,std::allocator<char16_t> >
PUBLIC	??$?H_WU?$char_traits@_W@std@@V?$allocator@_W@1@@std@@YA?AV?$basic_string@_WU?$char_traits@_W@std@@V?$allocator@_W@2@@0@$$QAV10@QB_W@Z ; std::operator+<wchar_t,std::char_traits<wchar_t>,std::allocator<wchar_t> >
PUBLIC	??$?HDU?$char_traits@D@std@@V?$allocator@D@1@@std@@YA?AV?$basic_string@DU?$char_traits@D@std@@V?$allocator@D@2@@0@$$QAV10@QBD@Z ; std::operator+<char,std::char_traits<char>,std::allocator<char> >
PUBLIC	??0_Sentry_base@?$basic_ostream@DU?$char_traits@D@std@@@std@@QAE@AAV12@@Z ; std::basic_ostream<char,std::char_traits<char> >::_Sentry_base::_Sentry_base
PUBLIC	??1_Sentry_base@?$basic_ostream@DU?$char_traits@D@std@@@std@@QAE@XZ ; std::basic_ostream<char,std::char_traits<char> >::_Sentry_base::~_Sentry_base
PUBLIC	?max_size@?$_Default_allocator_traits@V?$allocator@_W@std@@@std@@SAIABV?$allocator@_W@2@@Z ; std::_Default_allocator_traits<std::allocator<wchar_t> >::max_size
PUBLIC	??0sentry@?$basic_ostream@DU?$char_traits@D@std@@@std@@QAE@AAV12@@Z ; std::basic_ostream<char,std::char_traits<char> >::sentry::sentry
PUBLIC	??1sentry@?$basic_ostream@DU?$char_traits@D@std@@@std@@QAE@XZ ; std::basic_ostream<char,std::char_traits<char> >::sentry::~sentry
PUBLIC	??Bsentry@?$basic_ostream@DU?$char_traits@D@std@@@std@@QBE_NXZ ; std::basic_ostream<char,std::char_traits<char> >::sentry::operator bool
PUBLIC	?length@?$_WChar_traits@_W@std@@SAIPB_W@Z	; std::_WChar_traits<wchar_t>::length
PUBLIC	?max_size@?$_Default_allocator_traits@V?$allocator@D@std@@@std@@SAIABV?$allocator@D@2@@Z ; std::_Default_allocator_traits<std::allocator<char> >::max_size
PUBLIC	?allocate@?$allocator@_W@std@@QAEPA_WI@Z	; std::allocator<wchar_t>::allocate
PUBLIC	??R<lambda_2fb699096920f2dc628cb0826b07831d>@@QBE@QA_WQB_WI1I@Z ; <lambda_2fb699096920f2dc628cb0826b07831d>::operator()
PUBLIC	?append@?$basic_string@_WU?$char_traits@_W@std@@V?$allocator@_W@2@@std@@QAEAAV12@QB_WI@Z ; std::basic_string<wchar_t,std::char_traits<wchar_t>,std::allocator<wchar_t> >::append
PUBLIC	?max_size@?$basic_string@_WU?$char_traits@_W@std@@V?$allocator@_W@2@@std@@QBEIXZ ; std::basic_string<wchar_t,std::char_traits<wchar_t>,std::allocator<wchar_t> >::max_size
PUBLIC	?_Get_first@?$_Compressed_pair@V?$allocator@_W@std@@V?$_String_val@U?$_Simple_types@_W@std@@@2@$00@std@@QBEABV?$allocator@_W@2@XZ ; std::_Compressed_pair<std::allocator<wchar_t>,std::_String_val<std::_Simple_types<wchar_t> >,1>::_Get_first
PUBLIC	?_Get_first@?$_Compressed_pair@V?$allocator@_S@std@@V?$_String_val@U?$_Simple_types@_S@std@@@2@$00@std@@QAEAAV?$allocator@_S@2@XZ ; std::_Compressed_pair<std::allocator<char16_t>,std::_String_val<std::_Simple_types<char16_t> >,1>::_Get_first
PUBLIC	?_Get_first@?$_Compressed_pair@V?$allocator@_U@std@@V?$_String_val@U?$_Simple_types@_U@std@@@2@$00@std@@QAEAAV?$allocator@_U@2@XZ ; std::_Compressed_pair<std::allocator<char32_t>,std::_String_val<std::_Simple_types<char32_t> >,1>::_Get_first
PUBLIC	?copy@?$_Char_traits@_SG@std@@SAPA_SQA_SQB_SI@Z	; std::_Char_traits<char16_t,unsigned short>::copy
PUBLIC	?move@?$_Char_traits@_SG@std@@SAPA_SQA_SQB_SI@Z	; std::_Char_traits<char16_t,unsigned short>::move
PUBLIC	?assign@?$_WChar_traits@_S@std@@SAXAA_SAB_S@Z	; std::_WChar_traits<char16_t>::assign
PUBLIC	?copy@?$_Char_traits@_UI@std@@SAPA_UQA_UQB_UI@Z	; std::_Char_traits<char32_t,unsigned int>::copy
PUBLIC	?move@?$_Char_traits@_UI@std@@SAPA_UQA_UQB_UI@Z	; std::_Char_traits<char32_t,unsigned int>::move
PUBLIC	?assign@?$_Char_traits@_UI@std@@SAXAA_UAB_U@Z	; std::_Char_traits<char32_t,unsigned int>::assign
PUBLIC	?move@?$_Char_traits@_WG@std@@SAPA_WQA_WQB_WI@Z	; std::_Char_traits<wchar_t,unsigned short>::move
PUBLIC	?assign@?$_WChar_traits@_W@std@@SAXAA_WAB_W@Z	; std::_WChar_traits<wchar_t>::assign
PUBLIC	?move@?$_Char_traits@DH@std@@SAPADQADQBDI@Z	; std::_Char_traits<char,int>::move
PUBLIC	?assign@?$_Narrow_char_traits@DH@std@@SAXAADABD@Z ; std::_Narrow_char_traits<char,int>::assign
PUBLIC	?deallocate@?$allocator@D@std@@QAEXQADI@Z	; std::allocator<char>::deallocate
PUBLIC	?allocate@?$allocator@D@std@@QAEPADI@Z		; std::allocator<char>::allocate
PUBLIC	?_Large_string_engaged@?$_String_val@U?$_Simple_types@D@std@@@std@@QBE_NXZ ; std::_String_val<std::_Simple_types<char> >::_Large_string_engaged
PUBLIC	?_Memcpy_val_from@?$basic_string@DU?$char_traits@D@std@@V?$allocator@D@2@@std@@AAEXABV12@@Z ; std::basic_string<char,std::char_traits<char>,std::allocator<char> >::_Memcpy_val_from
PUBLIC	?max_size@?$basic_string@DU?$char_traits@D@std@@V?$allocator@D@2@@std@@QBEIXZ ; std::basic_string<char,std::char_traits<char>,std::allocator<char> >::max_size
PUBLIC	?_Swap_proxy_and_iterators@?$basic_string@DU?$char_traits@D@std@@V?$allocator@D@2@@std@@AAEXAAV12@@Z ; std::basic_string<char,std::char_traits<char>,std::allocator<char> >::_Swap_proxy_and_iterators
PUBLIC	?_Get_first@?$_Compressed_pair@V?$allocator@D@std@@V?$_String_val@U?$_Simple_types@D@std@@@2@$00@std@@QAEAAV?$allocator@D@2@XZ ; std::_Compressed_pair<std::allocator<char>,std::_String_val<std::_Simple_types<char> >,1>::_Get_first
PUBLIC	?_Get_first@?$_Compressed_pair@V?$allocator@D@std@@V?$_String_val@U?$_Simple_types@D@std@@@2@$00@std@@QBEABV?$allocator@D@2@XZ ; std::_Compressed_pair<std::allocator<char>,std::_String_val<std::_Simple_types<char> >,1>::_Get_first
PUBLIC	?deallocate@?$allocator@_W@std@@QAEXQA_WI@Z	; std::allocator<wchar_t>::deallocate
PUBLIC	?_Large_string_engaged@?$_String_val@U?$_Simple_types@_W@std@@@std@@QBE_NXZ ; std::_String_val<std::_Simple_types<wchar_t> >::_Large_string_engaged
PUBLIC	?_Memcpy_val_from@?$basic_string@_WU?$char_traits@_W@std@@V?$allocator@_W@2@@std@@AAEXABV12@@Z ; std::basic_string<wchar_t,std::char_traits<wchar_t>,std::allocator<wchar_t> >::_Memcpy_val_from
PUBLIC	?_Swap_proxy_and_iterators@?$basic_string@_WU?$char_traits@_W@std@@V?$allocator@_W@2@@std@@AAEXAAV12@@Z ; std::basic_string<wchar_t,std::char_traits<wchar_t>,std::allocator<wchar_t> >::_Swap_proxy_and_iterators
PUBLIC	?_Getal@?$basic_string@_WU?$char_traits@_W@std@@V?$allocator@_W@2@@std@@ABEABV?$allocator@_W@2@XZ ; std::basic_string<wchar_t,std::char_traits<wchar_t>,std::allocator<wchar_t> >::_Getal
PUBLIC	?_Get_first@?$_Compressed_pair@V?$allocator@_W@std@@V?$_String_val@U?$_Simple_types@_W@std@@@2@$00@std@@QAEAAV?$allocator@_W@2@XZ ; std::_Compressed_pair<std::allocator<wchar_t>,std::_String_val<std::_Simple_types<wchar_t> >,1>::_Get_first
PUBLIC	?deallocate@?$allocator@_S@std@@QAEXQA_SI@Z	; std::allocator<char16_t>::deallocate
PUBLIC	?_Large_string_engaged@?$_String_val@U?$_Simple_types@_S@std@@@std@@QBE_NXZ ; std::_String_val<std::_Simple_types<char16_t> >::_Large_string_engaged
PUBLIC	?_Getal@?$basic_string@_SU?$char_traits@_S@std@@V?$allocator@_S@2@@std@@AAEAAV?$allocator@_S@2@XZ ; std::basic_string<char16_t,std::char_traits<char16_t>,std::allocator<char16_t> >::_Getal
PUBLIC	??$max@I@std@@YAABIABI0@Z			; std::max<unsigned int>
PUBLIC	?deallocate@?$allocator@_U@std@@QAEXQA_UI@Z	; std::allocator<char32_t>::deallocate
PUBLIC	?_Large_string_engaged@?$_String_val@U?$_Simple_types@_U@std@@@std@@QBE_NXZ ; std::_String_val<std::_Simple_types<char32_t> >::_Large_string_engaged
PUBLIC	?_Getal@?$basic_string@_UU?$char_traits@_U@std@@V?$allocator@_U@2@@std@@AAEAAV?$allocator@_U@2@XZ ; std::basic_string<char32_t,std::char_traits<char32_t>,std::allocator<char32_t> >::_Getal
PUBLIC	?copy@?$_Char_traits@_WG@std@@SAPA_WQA_WQB_WI@Z	; std::_Char_traits<wchar_t,unsigned short>::copy
PUBLIC	?eq_int_type@?$_WChar_traits@_W@std@@SA_NABG0@Z	; std::_WChar_traits<wchar_t>::eq_int_type
PUBLIC	?eof@?$_WChar_traits@_W@std@@SAGXZ		; std::_WChar_traits<wchar_t>::eof
PUBLIC	?copy@?$_Char_traits@DH@std@@SAPADQADQBDI@Z	; std::_Char_traits<char,int>::copy
PUBLIC	?length@?$_Narrow_char_traits@DH@std@@SAIQBD@Z	; std::_Narrow_char_traits<char,int>::length
PUBLIC	?eq_int_type@?$_Narrow_char_traits@DH@std@@SA_NABH0@Z ; std::_Narrow_char_traits<char,int>::eq_int_type
PUBLIC	?eof@?$_Narrow_char_traits@DH@std@@SAHXZ	; std::_Narrow_char_traits<char,int>::eof
PUBLIC	?_Myptr@?$_String_val@U?$_Simple_types@D@std@@@std@@QAEPADXZ ; std::_String_val<std::_Simple_types<char> >::_Myptr
PUBLIC	?_Myptr@?$_String_val@U?$_Simple_types@D@std@@@std@@QBEPBDXZ ; std::_String_val<std::_Simple_types<char> >::_Myptr
PUBLIC	??1_Bxty@?$_String_val@U?$_Simple_types@D@std@@@std@@QAE@XZ ; std::_String_val<std::_Simple_types<char> >::_Bxty::~_Bxty
PUBLIC	?_Take_contents@?$basic_string@DU?$char_traits@D@std@@V?$allocator@D@2@@std@@AAEXAAV12@@Z ; std::basic_string<char,std::char_traits<char>,std::allocator<char> >::_Take_contents
PUBLIC	??R<lambda_ab246b20b9526e2ef7792587e4298a77>@@QBE@QADQBDI1I@Z ; <lambda_ab246b20b9526e2ef7792587e4298a77>::operator()
PUBLIC	?append@?$basic_string@DU?$char_traits@D@std@@V?$allocator@D@2@@std@@QAEAAV12@QBDI@Z ; std::basic_string<char,std::char_traits<char>,std::allocator<char> >::append
PUBLIC	??R<lambda_9366063389c5f42a00a5088cf24e69de>@@QBE@QADIQBD@Z ; <lambda_9366063389c5f42a00a5088cf24e69de>::operator()
PUBLIC	?assign@?$basic_string@DU?$char_traits@D@std@@V?$allocator@D@2@@std@@QAEAAV12@QBDI@Z ; std::basic_string<char,std::char_traits<char>,std::allocator<char> >::assign
PUBLIC	?assign@?$basic_string@DU?$char_traits@D@std@@V?$allocator@D@2@@std@@QAEAAV12@QBD@Z ; std::basic_string<char,std::char_traits<char>,std::allocator<char> >::assign
PUBLIC	?size@?$basic_string@DU?$char_traits@D@std@@V?$allocator@D@2@@std@@QBEIXZ ; std::basic_string<char,std::char_traits<char>,std::allocator<char> >::size
PUBLIC	?_Tidy_init@?$basic_string@DU?$char_traits@D@std@@V?$allocator@D@2@@std@@AAEXXZ ; std::basic_string<char,std::char_traits<char>,std::allocator<char> >::_Tidy_init
PUBLIC	?_Tidy_deallocate@?$basic_string@DU?$char_traits@D@std@@V?$allocator@D@2@@std@@AAEXXZ ; std::basic_string<char,std::char_traits<char>,std::allocator<char> >::_Tidy_deallocate
PUBLIC	?_Getal@?$basic_string@DU?$char_traits@D@std@@V?$allocator@D@2@@std@@AAEAAV?$allocator@D@2@XZ ; std::basic_string<char,std::char_traits<char>,std::allocator<char> >::_Getal
PUBLIC	?_Getal@?$basic_string@DU?$char_traits@D@std@@V?$allocator@D@2@@std@@ABEABV?$allocator@D@2@XZ ; std::basic_string<char,std::char_traits<char>,std::allocator<char> >::_Getal
PUBLIC	?_Myptr@?$_String_val@U?$_Simple_types@_W@std@@@std@@QAEPA_WXZ ; std::_String_val<std::_Simple_types<wchar_t> >::_Myptr
PUBLIC	?_Myptr@?$_String_val@U?$_Simple_types@_W@std@@@std@@QBEPB_WXZ ; std::_String_val<std::_Simple_types<wchar_t> >::_Myptr
PUBLIC	??1_Bxty@?$_String_val@U?$_Simple_types@_W@std@@@std@@QAE@XZ ; std::_String_val<std::_Simple_types<wchar_t> >::_Bxty::~_Bxty
PUBLIC	?_Take_contents@?$basic_string@_WU?$char_traits@_W@std@@V?$allocator@_W@2@@std@@AAEXAAV12@@Z ; std::basic_string<wchar_t,std::char_traits<wchar_t>,std::allocator<wchar_t> >::_Take_contents
PUBLIC	??R<lambda_03628ca18370b1f44a99b655e704819b>@@QBE@QA_WIQB_W@Z ; <lambda_03628ca18370b1f44a99b655e704819b>::operator()
PUBLIC	?assign@?$basic_string@_WU?$char_traits@_W@std@@V?$allocator@_W@2@@std@@QAEAAV12@QB_WI@Z ; std::basic_string<wchar_t,std::char_traits<wchar_t>,std::allocator<wchar_t> >::assign
PUBLIC	?size@?$basic_string@_WU?$char_traits@_W@std@@V?$allocator@_W@2@@std@@QBEIXZ ; std::basic_string<wchar_t,std::char_traits<wchar_t>,std::allocator<wchar_t> >::size
PUBLIC	?_Tidy_init@?$basic_string@_WU?$char_traits@_W@std@@V?$allocator@_W@2@@std@@AAEXXZ ; std::basic_string<wchar_t,std::char_traits<wchar_t>,std::allocator<wchar_t> >::_Tidy_init
PUBLIC	?_Tidy_deallocate@?$basic_string@_WU?$char_traits@_W@std@@V?$allocator@_W@2@@std@@AAEXXZ ; std::basic_string<wchar_t,std::char_traits<wchar_t>,std::allocator<wchar_t> >::_Tidy_deallocate
PUBLIC	?_Getal@?$basic_string@_WU?$char_traits@_W@std@@V?$allocator@_W@2@@std@@AAEAAV?$allocator@_W@2@XZ ; std::basic_string<wchar_t,std::char_traits<wchar_t>,std::allocator<wchar_t> >::_Getal
PUBLIC	?_Myptr@?$_String_val@U?$_Simple_types@_S@std@@@std@@QAEPA_SXZ ; std::_String_val<std::_Simple_types<char16_t> >::_Myptr
PUBLIC	??1_Bxty@?$_String_val@U?$_Simple_types@_S@std@@@std@@QAE@XZ ; std::_String_val<std::_Simple_types<char16_t> >::_Bxty::~_Bxty
PUBLIC	??R<lambda_493290ea8cd8fcd66ff9f3cecf244fbc>@@QBE@QA_SIQB_S@Z ; <lambda_493290ea8cd8fcd66ff9f3cecf244fbc>::operator()
PUBLIC	?assign@?$basic_string@_SU?$char_traits@_S@std@@V?$allocator@_S@2@@std@@QAEAAV12@QB_SI@Z ; std::basic_string<char16_t,std::char_traits<char16_t>,std::allocator<char16_t> >::assign
PUBLIC	?_Tidy_init@?$basic_string@_SU?$char_traits@_S@std@@V?$allocator@_S@2@@std@@AAEXXZ ; std::basic_string<char16_t,std::char_traits<char16_t>,std::allocator<char16_t> >::_Tidy_init
PUBLIC	?_Tidy_deallocate@?$basic_string@_SU?$char_traits@_S@std@@V?$allocator@_S@2@@std@@AAEXXZ ; std::basic_string<char16_t,std::char_traits<char16_t>,std::allocator<char16_t> >::_Tidy_deallocate
PUBLIC	?_Myptr@?$_String_val@U?$_Simple_types@_U@std@@@std@@QAEPA_UXZ ; std::_String_val<std::_Simple_types<char32_t> >::_Myptr
PUBLIC	??1_Bxty@?$_String_val@U?$_Simple_types@_U@std@@@std@@QAE@XZ ; std::_String_val<std::_Simple_types<char32_t> >::_Bxty::~_Bxty
PUBLIC	??R<lambda_02ffc73a80c062ba6e5e6c9f53d514cc>@@QBE@QA_UIQB_U@Z ; <lambda_02ffc73a80c062ba6e5e6c9f53d514cc>::operator()
PUBLIC	?assign@?$basic_string@_UU?$char_traits@_U@std@@V?$allocator@_U@2@@std@@QAEAAV12@QB_UI@Z ; std::basic_string<char32_t,std::char_traits<char32_t>,std::allocator<char32_t> >::assign
PUBLIC	?_Tidy_init@?$basic_string@_UU?$char_traits@_U@std@@V?$allocator@_U@2@@std@@AAEXXZ ; std::basic_string<char32_t,std::char_traits<char32_t>,std::allocator<char32_t> >::_Tidy_init
PUBLIC	?_Tidy_deallocate@?$basic_string@_UU?$char_traits@_U@std@@V?$allocator@_U@2@@std@@AAEXXZ ; std::basic_string<char32_t,std::char_traits<char32_t>,std::allocator<char32_t> >::_Tidy_deallocate
PUBLIC	??1?$_String_val@U?$_Simple_types@D@std@@@std@@QAE@XZ ; std::_String_val<std::_Simple_types<char> >::~_String_val<std::_Simple_types<char> >
PUBLIC	??1?$_String_val@U?$_Simple_types@_W@std@@@std@@QAE@XZ ; std::_String_val<std::_Simple_types<wchar_t> >::~_String_val<std::_Simple_types<wchar_t> >
PUBLIC	??1?$_String_val@U?$_Simple_types@_S@std@@@std@@QAE@XZ ; std::_String_val<std::_Simple_types<char16_t> >::~_String_val<std::_Simple_types<char16_t> >
PUBLIC	??1?$_String_val@U?$_Simple_types@_U@std@@@std@@QAE@XZ ; std::_String_val<std::_Simple_types<char32_t> >::~_String_val<std::_Simple_types<char32_t> >
PUBLIC	??1?$_Compressed_pair@V?$allocator@D@std@@V?$_String_val@U?$_Simple_types@D@std@@@2@$00@std@@QAE@XZ ; std::_Compressed_pair<std::allocator<char>,std::_String_val<std::_Simple_types<char> >,1>::~_Compressed_pair<std::allocator<char>,std::_String_val<std::_Simple_types<char> >,1>
PUBLIC	??1?$_Compressed_pair@V?$allocator@_W@std@@V?$_String_val@U?$_Simple_types@_W@std@@@2@$00@std@@QAE@XZ ; std::_Compressed_pair<std::allocator<wchar_t>,std::_String_val<std::_Simple_types<wchar_t> >,1>::~_Compressed_pair<std::allocator<wchar_t>,std::_String_val<std::_Simple_types<wchar_t> >,1>
PUBLIC	??1?$_Compressed_pair@V?$allocator@_S@std@@V?$_String_val@U?$_Simple_types@_S@std@@@2@$00@std@@QAE@XZ ; std::_Compressed_pair<std::allocator<char16_t>,std::_String_val<std::_Simple_types<char16_t> >,1>::~_Compressed_pair<std::allocator<char16_t>,std::_String_val<std::_Simple_types<char16_t> >,1>
PUBLIC	??1?$_Compressed_pair@V?$allocator@_U@std@@V?$_String_val@U?$_Simple_types@_U@std@@@2@$00@std@@QAE@XZ ; std::_Compressed_pair<std::allocator<char32_t>,std::_String_val<std::_Simple_types<char32_t> >,1>::~_Compressed_pair<std::allocator<char32_t>,std::_String_val<std::_Simple_types<char32_t> >,1>
PUBLIC	??0?$basic_string@DU?$char_traits@D@std@@V?$allocator@D@2@@std@@QAE@QBDI@Z ; std::basic_string<char,std::char_traits<char>,std::allocator<char> >::basic_string<char,std::char_traits<char>,std::allocator<char> >
PUBLIC	??0?$basic_string@DU?$char_traits@D@std@@V?$allocator@D@2@@std@@QAE@QBD@Z ; std::basic_string<char,std::char_traits<char>,std::allocator<char> >::basic_string<char,std::char_traits<char>,std::allocator<char> >
PUBLIC	??0?$basic_string@DU?$char_traits@D@std@@V?$allocator@D@2@@std@@QAE@$$QAV01@@Z ; std::basic_string<char,std::char_traits<char>,std::allocator<char> >::basic_string<char,std::char_traits<char>,std::allocator<char> >
PUBLIC	??1?$basic_string@DU?$char_traits@D@std@@V?$allocator@D@2@@std@@QAE@XZ ; std::basic_string<char,std::char_traits<char>,std::allocator<char> >::~basic_string<char,std::char_traits<char>,std::allocator<char> >
PUBLIC	?append@?$basic_string@DU?$char_traits@D@std@@V?$allocator@D@2@@std@@QAEAAV12@QBD@Z ; std::basic_string<char,std::char_traits<char>,std::allocator<char> >::append
PUBLIC	?c_str@?$basic_string@DU?$char_traits@D@std@@V?$allocator@D@2@@std@@QBEPBDXZ ; std::basic_string<char,std::char_traits<char>,std::allocator<char> >::c_str
PUBLIC	??0?$basic_string@_WU?$char_traits@_W@std@@V?$allocator@_W@2@@std@@QAE@QB_WI@Z ; std::basic_string<wchar_t,std::char_traits<wchar_t>,std::allocator<wchar_t> >::basic_string<wchar_t,std::char_traits<wchar_t>,std::allocator<wchar_t> >
PUBLIC	??0?$basic_string@_WU?$char_traits@_W@std@@V?$allocator@_W@2@@std@@QAE@$$QAV01@@Z ; std::basic_string<wchar_t,std::char_traits<wchar_t>,std::allocator<wchar_t> >::basic_string<wchar_t,std::char_traits<wchar_t>,std::allocator<wchar_t> >
PUBLIC	??1?$basic_string@_WU?$char_traits@_W@std@@V?$allocator@_W@2@@std@@QAE@XZ ; std::basic_string<wchar_t,std::char_traits<wchar_t>,std::allocator<wchar_t> >::~basic_string<wchar_t,std::char_traits<wchar_t>,std::allocator<wchar_t> >
PUBLIC	??0?$basic_string@_SU?$char_traits@_S@std@@V?$allocator@_S@2@@std@@QAE@QB_SI@Z ; std::basic_string<char16_t,std::char_traits<char16_t>,std::allocator<char16_t> >::basic_string<char16_t,std::char_traits<char16_t>,std::allocator<char16_t> >
PUBLIC	??1?$basic_string@_SU?$char_traits@_S@std@@V?$allocator@_S@2@@std@@QAE@XZ ; std::basic_string<char16_t,std::char_traits<char16_t>,std::allocator<char16_t> >::~basic_string<char16_t,std::char_traits<char16_t>,std::allocator<char16_t> >
PUBLIC	?_Unchecked_begin@?$basic_string@_SU?$char_traits@_S@std@@V?$allocator@_S@2@@std@@QAEPA_SXZ ; std::basic_string<char16_t,std::char_traits<char16_t>,std::allocator<char16_t> >::_Unchecked_begin
PUBLIC	?_Unchecked_end@?$basic_string@_SU?$char_traits@_S@std@@V?$allocator@_S@2@@std@@QAEPA_SXZ ; std::basic_string<char16_t,std::char_traits<char16_t>,std::allocator<char16_t> >::_Unchecked_end
PUBLIC	??0?$basic_string@_UU?$char_traits@_U@std@@V?$allocator@_U@2@@std@@QAE@QB_UI@Z ; std::basic_string<char32_t,std::char_traits<char32_t>,std::allocator<char32_t> >::basic_string<char32_t,std::char_traits<char32_t>,std::allocator<char32_t> >
PUBLIC	??1?$basic_string@_UU?$char_traits@_U@std@@V?$allocator@_U@2@@std@@QAE@XZ ; std::basic_string<char32_t,std::char_traits<char32_t>,std::allocator<char32_t> >::~basic_string<char32_t,std::char_traits<char32_t>,std::allocator<char32_t> >
PUBLIC	?_Unchecked_begin@?$basic_string@_UU?$char_traits@_U@std@@V?$allocator@_U@2@@std@@QAEPA_UXZ ; std::basic_string<char32_t,std::char_traits<char32_t>,std::allocator<char32_t> >::_Unchecked_begin
PUBLIC	?_Unchecked_end@?$basic_string@_UU?$char_traits@_U@std@@V?$allocator@_U@2@@std@@QAEPA_UXZ ; std::basic_string<char32_t,std::char_traits<char32_t>,std::allocator<char32_t> >::_Unchecked_end
PUBLIC	_main
PUBLIC	?_Badname@locale@std@@AAE_NABV_Locinfo@2@@Z	; std::locale::_Badname
PUBLIC	??1locale@std@@QAE@XZ				; std::locale::~locale
PUBLIC	??0locale@std@@QAE@PBDH@Z			; std::locale::locale
PUBLIC	?_Construct@locale@std@@AAEXABV?$basic_string@DU?$char_traits@D@std@@V?$allocator@D@2@@2@H@Z ; std::locale::_Construct
PUBLIC	??1_Facet_guard@locale@std@@QAE@XZ		; std::locale::_Facet_guard::~_Facet_guard
PUBLIC	??__Ks@string_literals@literals@std@@YA?AV?$basic_string@_UU?$char_traits@_U@std@@V?$allocator@_U@2@@3@PB_UI@Z ; std::literals::string_literals::operator "" s
PUBLIC	??__Ks@string_literals@literals@std@@YA?AV?$basic_string@_SU?$char_traits@_S@std@@V?$allocator@_S@2@@3@PB_SI@Z ; std::literals::string_literals::operator "" s
PUBLIC	??__Ks@string_literals@literals@std@@YA?AV?$basic_string@_WU?$char_traits@_W@std@@V?$allocator@_W@2@@3@PB_WI@Z ; std::literals::string_literals::operator "" s
PUBLIC	??__Ks@string_literals@literals@std@@YA?AV?$basic_string@DU?$char_traits@D@std@@V?$allocator@D@2@@3@PBDI@Z ; std::literals::string_literals::operator "" s
PUBLIC	?_Xlen_string@std@@YAXXZ			; std::_Xlen_string
PUBLIC	?_Release@_Fake_proxy_ptr_impl@std@@QAEXXZ	; std::_Fake_proxy_ptr_impl::_Release
PUBLIC	??0_Fake_proxy_ptr_impl@std@@QAE@ABU_Fake_allocator@1@ABU_Container_base0@1@@Z ; std::_Fake_proxy_ptr_impl::_Fake_proxy_ptr_impl
PUBLIC	?_Alloc_proxy@_Container_base0@std@@QAEXABU_Fake_allocator@2@@Z ; std::_Container_base0::_Alloc_proxy
PUBLIC	?_Swap_proxy_and_iterators@_Container_base0@std@@QAEXAAU12@@Z ; std::_Container_base0::_Swap_proxy_and_iterators
PUBLIC	?_Orphan_all@_Container_base0@std@@QAEXXZ	; std::_Container_base0::_Orphan_all
PUBLIC	?_Adjust_manually_vector_aligned@std@@YAXAAPAXAAI@Z ; std::_Adjust_manually_vector_aligned
PUBLIC	?_Allocate@_Default_allocate_traits@std@@SAPAXI@Z ; std::_Default_allocate_traits::_Allocate
PUBLIC	?max@?$numeric_limits@H@std@@SAHXZ		; std::numeric_limits<int>::max
PUBLIC	??0bad_alloc@std@@QAE@ABV01@@Z			; std::bad_alloc::bad_alloc
PUBLIC	??0bad_array_new_length@std@@QAE@ABV01@@Z	; std::bad_array_new_length::bad_array_new_length
PUBLIC	?_Throw_bad_array_new_length@std@@YAXXZ		; std::_Throw_bad_array_new_length
PUBLIC	??1bad_array_new_length@std@@UAE@XZ		; std::bad_array_new_length::~bad_array_new_length
PUBLIC	??_Gbad_array_new_length@std@@UAEPAXI@Z		; std::bad_array_new_length::`scalar deleting destructor'
PUBLIC	??0bad_array_new_length@std@@QAE@XZ		; std::bad_array_new_length::bad_array_new_length
PUBLIC	??1bad_alloc@std@@UAE@XZ			; std::bad_alloc::~bad_alloc
PUBLIC	??_Gbad_alloc@std@@UAEPAXI@Z			; std::bad_alloc::`scalar deleting destructor'
PUBLIC	??0bad_alloc@std@@AAE@QBD@Z			; std::bad_alloc::bad_alloc
PUBLIC	??_Gexception@std@@UAEPAXI@Z			; std::exception::`scalar deleting destructor'
PUBLIC	?what@exception@std@@UBEPBDXZ			; std::exception::what
PUBLIC	??1exception@std@@UAE@XZ			; std::exception::~exception
PUBLIC	??0exception@std@@QAE@ABV01@@Z			; std::exception::exception
PUBLIC	??0exception@std@@QAE@QBDH@Z			; std::exception::exception
PUBLIC	??2@YAPAXIPAX@Z					; operator new
EXTRN	??_Eexception@std@@UAEPAXI@Z:PROC		; std::exception::`vector deleting destructor'
EXTRN	??_Ebad_alloc@std@@UAEPAXI@Z:PROC		; std::bad_alloc::`vector deleting destructor'
EXTRN	??_Ebad_array_new_length@std@@UAEPAXI@Z:PROC	; std::bad_array_new_length::`vector deleting destructor'
EXTRN	__CxxThrowException@8:PROC
EXTRN	___CxxFrameHandler3:PROC
EXTRN	___std_terminate:PROC
EXTRN	_memcpy:PROC
EXTRN	_memmove:PROC
EXTRN	___security_cookie:DWORD
;	COMDAT xdata$x
xdata$x	SEGMENT
__ehfuncinfo$?_Construct@locale@std@@AAEXABV?$basic_string@DU?$char_traits@D@std@@V?$allocator@D@2@@2@H@Z DD 019930522H
	DD	02H
	DD	FLAT:__unwindtable$?_Construct@locale@std@@AAEXABV?$basic_string@DU?$char_traits@D@std@@V?$allocator@D@2@@2@H@Z
	DD	2 DUP(00H)
	DD	2 DUP(00H)
	DD	00H
	DD	01H
__unwindtable$?_Construct@locale@std@@AAEXABV?$basic_string@DU?$char_traits@D@std@@V?$allocator@D@2@@2@H@Z DD 0ffffffffH
	DD	FLAT:__unwindfunclet$?_Construct@locale@std@@AAEXABV?$basic_string@DU?$char_traits@D@std@@V?$allocator@D@2@@2@H@Z$0
	DD	00H
	DD	FLAT:__unwindfunclet$?_Construct@locale@std@@AAEXABV?$basic_string@DU?$char_traits@D@std@@V?$allocator@D@2@@2@H@Z$1
xdata$x	ENDS
;	COMDAT xdata$x
xdata$x	SEGMENT
__ehfuncinfo$??0locale@std@@QAE@PBDH@Z DD 019930522H
	DD	03H
	DD	FLAT:__unwindtable$??0locale@std@@QAE@PBDH@Z
	DD	2 DUP(00H)
	DD	2 DUP(00H)
	DD	00H
	DD	01H
__unwindtable$??0locale@std@@QAE@PBDH@Z DD 0ffffffffH
	DD	FLAT:__unwindfunclet$??0locale@std@@QAE@PBDH@Z$0
	DD	00H
	DD	FLAT:__unwindfunclet$??0locale@std@@QAE@PBDH@Z$3
	DD	01H
	DD	FLAT:__unwindfunclet$??0locale@std@@QAE@PBDH@Z$4
xdata$x	ENDS
;	COMDAT xdata$x
xdata$x	SEGMENT
__ehfuncinfo$_main DD 019930522H
	DD	010H
	DD	FLAT:__unwindtable$_main
	DD	2 DUP(00H)
	DD	2 DUP(00H)
	DD	00H
	DD	01H
	ORG $+4
__unwindtable$_main DD 0ffffffffH
	DD	FLAT:__unwindfunclet$_main$0
	DD	00H
	DD	FLAT:__unwindfunclet$_main$1
	DD	0ffffffffH
	DD	FLAT:__unwindfunclet$_main$1
	DD	02H
	DD	FLAT:__unwindfunclet$_main$2
	DD	03H
	DD	FLAT:__unwindfunclet$_main$3
	DD	02H
	DD	FLAT:__unwindfunclet$_main$3
	DD	05H
	DD	FLAT:__unwindfunclet$_main$4
	DD	06H
	DD	FLAT:__unwindfunclet$_main$5
	DD	05H
	DD	FLAT:__unwindfunclet$_main$5
	DD	08H
	DD	FLAT:__unwindfunclet$_main$6
	DD	09H
	DD	FLAT:__unwindfunclet$_main$7
	DD	08H
	DD	FLAT:__unwindfunclet$_main$7
	DD	0bH
	DD	FLAT:__unwindfunclet$_main$42
	DD	0cH
	DD	FLAT:__unwindfunclet$_main$45
	DD	0dH
	DD	FLAT:__unwindfunclet$_main$46
	DD	0bH
	DD	FLAT:__unwindfunclet$_main$8
xdata$x	ENDS
;	COMDAT xdata$x
xdata$x	SEGMENT
__ehfuncinfo$??1sentry@?$basic_ostream@DU?$char_traits@D@std@@@std@@QAE@XZ DD 019930522H
	DD	01H
	DD	FLAT:__unwindtable$??1sentry@?$basic_ostream@DU?$char_traits@D@std@@@std@@QAE@XZ
	DD	2 DUP(00H)
	DD	2 DUP(00H)
	DD	00H
	DD	05H
__unwindtable$??1sentry@?$basic_ostream@DU?$char_traits@D@std@@@std@@QAE@XZ DD 0ffffffffH
	DD	FLAT:___std_terminate
xdata$x	ENDS
;	COMDAT xdata$x
xdata$x	SEGMENT
__ehfuncinfo$??0sentry@?$basic_ostream@DU?$char_traits@D@std@@@std@@QAE@AAV12@@Z DD 019930522H
	DD	01H
	DD	FLAT:__unwindtable$??0sentry@?$basic_ostream@DU?$char_traits@D@std@@@std@@QAE@AAV12@@Z
	DD	2 DUP(00H)
	DD	2 DUP(00H)
	DD	00H
	DD	01H
__unwindtable$??0sentry@?$basic_ostream@DU?$char_traits@D@std@@@std@@QAE@AAV12@@Z DD 0ffffffffH
	DD	FLAT:__unwindfunclet$??0sentry@?$basic_ostream@DU?$char_traits@D@std@@@std@@QAE@AAV12@@Z$0
xdata$x	ENDS
;	COMDAT xdata$x
xdata$x	SEGMENT
__ehfuncinfo$??1_Sentry_base@?$basic_ostream@DU?$char_traits@D@std@@@std@@QAE@XZ DD 019930522H
	DD	00H
	DD	00H
	DD	2 DUP(00H)
	DD	2 DUP(00H)
	DD	00H
	DD	05H
xdata$x	ENDS
;	COMDAT xdata$x
xdata$x	SEGMENT
__ehfuncinfo$??$?6U?$char_traits@D@std@@@std@@YAAAV?$basic_ostream@DU?$char_traits@D@std@@@0@AAV10@D@Z DD 019930522H
	DD	06H
	DD	FLAT:__unwindtable$??$?6U?$char_traits@D@std@@@std@@YAAAV?$basic_ostream@DU?$char_traits@D@std@@@0@AAV10@D@Z
	DD	01H
	DD	FLAT:__tryblocktable$??$?6U?$char_traits@D@std@@@std@@YAAAV?$basic_ostream@DU?$char_traits@D@std@@@0@AAV10@D@Z
	DD	2 DUP(00H)
	DD	00H
	DD	01H
__unwindtable$??$?6U?$char_traits@D@std@@@std@@YAAAV?$basic_ostream@DU?$char_traits@D@std@@@0@AAV10@D@Z DD 0ffffffffH
	DD	FLAT:__unwindfunclet$??$?6U?$char_traits@D@std@@@std@@YAAAV?$basic_ostream@DU?$char_traits@D@std@@@0@AAV10@D@Z$3
	DD	0ffffffffH
	DD	FLAT:__unwindfunclet$??$?6U?$char_traits@D@std@@@std@@YAAAV?$basic_ostream@DU?$char_traits@D@std@@@0@AAV10@D@Z$2
	DD	01H
	DD	00H
	DD	01H
	DD	00H
	DD	0ffffffffH
	DD	FLAT:___std_terminate
	DD	04H
	DD	FLAT:___std_terminate
__tryblocktable$??$?6U?$char_traits@D@std@@@std@@YAAAV?$basic_ostream@DU?$char_traits@D@std@@@0@AAV10@D@Z DD 02H
	DD	02H
	DD	03H
	DD	01H
	DD	FLAT:__catchsym$??$?6U?$char_traits@D@std@@@std@@YAAAV?$basic_ostream@DU?$char_traits@D@std@@@0@AAV10@D@Z$6
__catchsym$??$?6U?$char_traits@D@std@@@std@@YAAAV?$basic_ostream@DU?$char_traits@D@std@@@0@AAV10@D@Z$6 DD 040H
	DD	00H
	DD	00H
	DD	FLAT:__catch$??$?6U?$char_traits@D@std@@@std@@YAAAV?$basic_ostream@DU?$char_traits@D@std@@@0@AAV10@D@Z$0
xdata$x	ENDS
;	COMDAT xdata$x
xdata$x	SEGMENT
__ehfuncinfo$??$?6U?$char_traits@D@std@@@std@@YAAAV?$basic_ostream@DU?$char_traits@D@std@@@0@AAV10@PBD@Z DD 019930522H
	DD	06H
	DD	FLAT:__unwindtable$??$?6U?$char_traits@D@std@@@std@@YAAAV?$basic_ostream@DU?$char_traits@D@std@@@0@AAV10@PBD@Z
	DD	01H
	DD	FLAT:__tryblocktable$??$?6U?$char_traits@D@std@@@std@@YAAAV?$basic_ostream@DU?$char_traits@D@std@@@0@AAV10@PBD@Z
	DD	2 DUP(00H)
	DD	00H
	DD	01H
__unwindtable$??$?6U?$char_traits@D@std@@@std@@YAAAV?$basic_ostream@DU?$char_traits@D@std@@@0@AAV10@PBD@Z DD 0ffffffffH
	DD	FLAT:__unwindfunclet$??$?6U?$char_traits@D@std@@@std@@YAAAV?$basic_ostream@DU?$char_traits@D@std@@@0@AAV10@PBD@Z$3
	DD	0ffffffffH
	DD	FLAT:__unwindfunclet$??$?6U?$char_traits@D@std@@@std@@YAAAV?$basic_ostream@DU?$char_traits@D@std@@@0@AAV10@PBD@Z$2
	DD	01H
	DD	00H
	DD	01H
	DD	00H
	DD	0ffffffffH
	DD	FLAT:___std_terminate
	DD	04H
	DD	FLAT:___std_terminate
__tryblocktable$??$?6U?$char_traits@D@std@@@std@@YAAAV?$basic_ostream@DU?$char_traits@D@std@@@0@AAV10@PBD@Z DD 02H
	DD	02H
	DD	03H
	DD	01H
	DD	FLAT:__catchsym$??$?6U?$char_traits@D@std@@@std@@YAAAV?$basic_ostream@DU?$char_traits@D@std@@@0@AAV10@PBD@Z$6
__catchsym$??$?6U?$char_traits@D@std@@@std@@YAAAV?$basic_ostream@DU?$char_traits@D@std@@@0@AAV10@PBD@Z$6 DD 040H
	DD	00H
	DD	00H
	DD	FLAT:__catch$??$?6U?$char_traits@D@std@@@std@@YAAAV?$basic_ostream@DU?$char_traits@D@std@@@0@AAV10@PBD@Z$0
xdata$x	ENDS
;	COMDAT xdata$x
xdata$x	SEGMENT
__ehfuncinfo$??1sentry@?$basic_ostream@_WU?$char_traits@_W@std@@@std@@QAE@XZ DD 019930522H
	DD	01H
	DD	FLAT:__unwindtable$??1sentry@?$basic_ostream@_WU?$char_traits@_W@std@@@std@@QAE@XZ
	DD	2 DUP(00H)
	DD	2 DUP(00H)
	DD	00H
	DD	05H
__unwindtable$??1sentry@?$basic_ostream@_WU?$char_traits@_W@std@@@std@@QAE@XZ DD 0ffffffffH
	DD	FLAT:___std_terminate
xdata$x	ENDS
;	COMDAT xdata$x
xdata$x	SEGMENT
__ehfuncinfo$??0sentry@?$basic_ostream@_WU?$char_traits@_W@std@@@std@@QAE@AAV12@@Z DD 019930522H
	DD	01H
	DD	FLAT:__unwindtable$??0sentry@?$basic_ostream@_WU?$char_traits@_W@std@@@std@@QAE@AAV12@@Z
	DD	2 DUP(00H)
	DD	2 DUP(00H)
	DD	00H
	DD	01H
__unwindtable$??0sentry@?$basic_ostream@_WU?$char_traits@_W@std@@@std@@QAE@AAV12@@Z DD 0ffffffffH
	DD	FLAT:__unwindfunclet$??0sentry@?$basic_ostream@_WU?$char_traits@_W@std@@@std@@QAE@AAV12@@Z$0
xdata$x	ENDS
;	COMDAT xdata$x
xdata$x	SEGMENT
__ehfuncinfo$??1_Sentry_base@?$basic_ostream@_WU?$char_traits@_W@std@@@std@@QAE@XZ DD 019930522H
	DD	00H
	DD	00H
	DD	2 DUP(00H)
	DD	2 DUP(00H)
	DD	00H
	DD	05H
xdata$x	ENDS
;	COMDAT xdata$x
xdata$x	SEGMENT
__ehfuncinfo$??$_Insert_string@DU?$char_traits@D@std@@I@std@@YAAAV?$basic_ostream@DU?$char_traits@D@std@@@0@AAV10@QBDI@Z DD 019930522H
	DD	06H
	DD	FLAT:__unwindtable$??$_Insert_string@DU?$char_traits@D@std@@I@std@@YAAAV?$basic_ostream@DU?$char_traits@D@std@@@0@AAV10@QBDI@Z
	DD	01H
	DD	FLAT:__tryblocktable$??$_Insert_string@DU?$char_traits@D@std@@I@std@@YAAAV?$basic_ostream@DU?$char_traits@D@std@@@0@AAV10@QBDI@Z
	DD	2 DUP(00H)
	DD	00H
	DD	01H
__unwindtable$??$_Insert_string@DU?$char_traits@D@std@@I@std@@YAAAV?$basic_ostream@DU?$char_traits@D@std@@@0@AAV10@QBDI@Z DD 0ffffffffH
	DD	FLAT:__unwindfunclet$??$_Insert_string@DU?$char_traits@D@std@@I@std@@YAAAV?$basic_ostream@DU?$char_traits@D@std@@@0@AAV10@QBDI@Z$3
	DD	0ffffffffH
	DD	FLAT:__unwindfunclet$??$_Insert_string@DU?$char_traits@D@std@@I@std@@YAAAV?$basic_ostream@DU?$char_traits@D@std@@@0@AAV10@QBDI@Z$2
	DD	01H
	DD	00H
	DD	01H
	DD	00H
	DD	0ffffffffH
	DD	FLAT:___std_terminate
	DD	04H
	DD	FLAT:___std_terminate
__tryblocktable$??$_Insert_string@DU?$char_traits@D@std@@I@std@@YAAAV?$basic_ostream@DU?$char_traits@D@std@@@0@AAV10@QBDI@Z DD 02H
	DD	02H
	DD	03H
	DD	01H
	DD	FLAT:__catchsym$??$_Insert_string@DU?$char_traits@D@std@@I@std@@YAAAV?$basic_ostream@DU?$char_traits@D@std@@@0@AAV10@QBDI@Z$6
__catchsym$??$_Insert_string@DU?$char_traits@D@std@@I@std@@YAAAV?$basic_ostream@DU?$char_traits@D@std@@@0@AAV10@QBDI@Z$6 DD 040H
	DD	00H
	DD	00H
	DD	FLAT:__catch$??$_Insert_string@DU?$char_traits@D@std@@I@std@@YAAAV?$basic_ostream@DU?$char_traits@D@std@@@0@AAV10@QBDI@Z$0
xdata$x	ENDS
;	COMDAT xdata$x
xdata$x	SEGMENT
__ehfuncinfo$??$_Insert_string@_WU?$char_traits@_W@std@@I@std@@YAAAV?$basic_ostream@_WU?$char_traits@_W@std@@@0@AAV10@QB_WI@Z DD 019930522H
	DD	06H
	DD	FLAT:__unwindtable$??$_Insert_string@_WU?$char_traits@_W@std@@I@std@@YAAAV?$basic_ostream@_WU?$char_traits@_W@std@@@0@AAV10@QB_WI@Z
	DD	01H
	DD	FLAT:__tryblocktable$??$_Insert_string@_WU?$char_traits@_W@std@@I@std@@YAAAV?$basic_ostream@_WU?$char_traits@_W@std@@@0@AAV10@QB_WI@Z
	DD	2 DUP(00H)
	DD	00H
	DD	01H
__unwindtable$??$_Insert_string@_WU?$char_traits@_W@std@@I@std@@YAAAV?$basic_ostream@_WU?$char_traits@_W@std@@@0@AAV10@QB_WI@Z DD 0ffffffffH
	DD	FLAT:__unwindfunclet$??$_Insert_string@_WU?$char_traits@_W@std@@I@std@@YAAAV?$basic_ostream@_WU?$char_traits@_W@std@@@0@AAV10@QB_WI@Z$3
	DD	0ffffffffH
	DD	FLAT:__unwindfunclet$??$_Insert_string@_WU?$char_traits@_W@std@@I@std@@YAAAV?$basic_ostream@_WU?$char_traits@_W@std@@@0@AAV10@QB_WI@Z$2
	DD	01H
	DD	00H
	DD	01H
	DD	00H
	DD	0ffffffffH
	DD	FLAT:___std_terminate
	DD	04H
	DD	FLAT:___std_terminate
__tryblocktable$??$_Insert_string@_WU?$char_traits@_W@std@@I@std@@YAAAV?$basic_ostream@_WU?$char_traits@_W@std@@@0@AAV10@QB_WI@Z DD 02H
	DD	02H
	DD	03H
	DD	01H
	DD	FLAT:__catchsym$??$_Insert_string@_WU?$char_traits@_W@std@@I@std@@YAAAV?$basic_ostream@_WU?$char_traits@_W@std@@@0@AAV10@QB_WI@Z$6
__catchsym$??$_Insert_string@_WU?$char_traits@_W@std@@I@std@@YAAAV?$basic_ostream@_WU?$char_traits@_W@std@@@0@AAV10@QB_WI@Z$6 DD 040H
	DD	00H
	DD	00H
	DD	FLAT:__catch$??$_Insert_string@_WU?$char_traits@_W@std@@I@std@@YAAAV?$basic_ostream@_WU?$char_traits@_W@std@@@0@AAV10@QB_WI@Z$0
xdata$x	ENDS
; Function compile flags: /Ogtp
; File C:\Program Files (x86)\Microsoft Visual Studio\2019\Community\VC\Tools\MSVC\14.29.30133\include\vcruntime_new.h
;	COMDAT ??2@YAPAXIPAX@Z
_TEXT	SEGMENT
??2@YAPAXIPAX@Z PROC					; operator new, COMDAT
; __Size$dead$ = ecx
; __Where$ = edx

; 168  :         (void)_Size;
; 169  :         return _Where;

	mov	eax, edx

; 170  :     }

	ret	0
??2@YAPAXIPAX@Z ENDP					; operator new
_TEXT	ENDS
; Function compile flags: /Ogtp
; File C:\Program Files (x86)\Microsoft Visual Studio\2019\Community\VC\Tools\MSVC\14.29.30133\include\vcruntime_exception.h
;	COMDAT ??0exception@std@@QAE@QBDH@Z
_TEXT	SEGMENT
__Message$ = 8						; size = 4
___formal$ = 12						; size = 4
??0exception@std@@QAE@QBDH@Z PROC			; std::exception::exception, COMDAT
; _this$ = ecx

; 66   :     {

	push	ebp
	mov	ebp, esp

; 67   :         _Data._What = _Message;

	mov	eax, DWORD PTR __Message$[ebp]
	xorps	xmm0, xmm0
	mov	DWORD PTR [ecx], OFFSET ??_7exception@std@@6B@
	movq	QWORD PTR [ecx+4], xmm0
	mov	DWORD PTR [ecx+4], eax

; 68   :     }

	mov	eax, ecx
	pop	ebp
	ret	8
??0exception@std@@QAE@QBDH@Z ENDP			; std::exception::exception
_TEXT	ENDS
; Function compile flags: /Ogtp
; File C:\Program Files (x86)\Microsoft Visual Studio\2019\Community\VC\Tools\MSVC\14.29.30133\include\vcruntime_exception.h
;	COMDAT ??0exception@std@@QAE@ABV01@@Z
_TEXT	SEGMENT
__Other$ = 8						; size = 4
??0exception@std@@QAE@ABV01@@Z PROC			; std::exception::exception, COMDAT
; _this$ = ecx

; 72   :     {

	push	ebp
	mov	ebp, esp
	push	esi
	mov	esi, ecx
	xorps	xmm0, xmm0
	lea	eax, DWORD PTR [esi+4]

; 73   :         __std_exception_copy(&_Other._Data, &_Data);

	push	eax
	mov	DWORD PTR [esi], OFFSET ??_7exception@std@@6B@
	movq	QWORD PTR [eax], xmm0
	mov	eax, DWORD PTR __Other$[ebp]
	add	eax, 4
	push	eax
	call	DWORD PTR __imp____std_exception_copy
	add	esp, 8

; 74   :     }

	mov	eax, esi
	pop	esi
	pop	ebp
	ret	4
??0exception@std@@QAE@ABV01@@Z ENDP			; std::exception::exception
_TEXT	ENDS
; Function compile flags: /Ogtp
; File C:\Program Files (x86)\Microsoft Visual Studio\2019\Community\VC\Tools\MSVC\14.29.30133\include\vcruntime_exception.h
;	COMDAT ??1exception@std@@UAE@XZ
_TEXT	SEGMENT
??1exception@std@@UAE@XZ PROC				; std::exception::~exception, COMDAT
; _this$ = ecx

; 90   :         __std_exception_destroy(&_Data);

	lea	eax, DWORD PTR [ecx+4]
	mov	DWORD PTR [ecx], OFFSET ??_7exception@std@@6B@
	push	eax
	call	DWORD PTR __imp____std_exception_destroy
	pop	ecx

; 91   :     }

	ret	0
??1exception@std@@UAE@XZ ENDP				; std::exception::~exception
_TEXT	ENDS
; Function compile flags: /Ogtp
; File C:\Program Files (x86)\Microsoft Visual Studio\2019\Community\VC\Tools\MSVC\14.29.30133\include\vcruntime_exception.h
;	COMDAT ?what@exception@std@@UBEPBDXZ
_TEXT	SEGMENT
?what@exception@std@@UBEPBDXZ PROC			; std::exception::what, COMDAT
; _this$ = ecx

; 95   :         return _Data._What ? _Data._What : "Unknown exception";

	mov	ecx, DWORD PTR [ecx+4]
	mov	eax, OFFSET ??_C@_0BC@EOODALEL@Unknown?5exception@
	test	ecx, ecx
	cmovne	eax, ecx

; 96   :     }

	ret	0
?what@exception@std@@UBEPBDXZ ENDP			; std::exception::what
_TEXT	ENDS
; Function compile flags: /Ogtp
; File C:\Program Files (x86)\Microsoft Visual Studio\2019\Community\VC\Tools\MSVC\14.29.30133\include\vcruntime_exception.h
;	COMDAT ??_Gexception@std@@UAEPAXI@Z
_TEXT	SEGMENT
___flags$ = 8						; size = 4
??_Gexception@std@@UAEPAXI@Z PROC			; std::exception::`scalar deleting destructor', COMDAT
; _this$ = ecx
	push	ebp
	mov	ebp, esp

; 89   :     {

	push	esi
	mov	esi, ecx

; 90   :         __std_exception_destroy(&_Data);

	lea	eax, DWORD PTR [esi+4]
	mov	DWORD PTR [esi], OFFSET ??_7exception@std@@6B@
	push	eax
	call	DWORD PTR __imp____std_exception_destroy
	add	esp, 4
	test	BYTE PTR ___flags$[ebp], 1
	je	SHORT $LN6@scalar
	push	12					; 0000000cH
	push	esi
	call	??3@YAXPAXI@Z				; operator delete
	add	esp, 8
$LN6@scalar:
	mov	eax, esi
	pop	esi
	pop	ebp
	ret	4
??_Gexception@std@@UAEPAXI@Z ENDP			; std::exception::`scalar deleting destructor'
_TEXT	ENDS
; Function compile flags: /Ogtp
; File C:\Program Files (x86)\Microsoft Visual Studio\2019\Community\VC\Tools\MSVC\14.29.30133\include\vcruntime_exception.h
;	COMDAT ??0bad_alloc@std@@AAE@QBD@Z
_TEXT	SEGMENT
__Message$ = 8						; size = 4
??0bad_alloc@std@@AAE@QBD@Z PROC			; std::bad_alloc::bad_alloc, COMDAT
; _this$ = ecx

; 130  :     {

	push	ebp
	mov	ebp, esp

; 67   :         _Data._What = _Message;

	mov	eax, DWORD PTR __Message$[ebp]
	xorps	xmm0, xmm0

; 65   :         : _Data()

	movq	QWORD PTR [ecx+4], xmm0

; 66   :     {
; 67   :         _Data._What = _Message;

	mov	DWORD PTR [ecx+4], eax

; 131  :     }

	mov	eax, ecx
	mov	DWORD PTR [ecx], OFFSET ??_7bad_alloc@std@@6B@
	pop	ebp
	ret	4
??0bad_alloc@std@@AAE@QBD@Z ENDP			; std::bad_alloc::bad_alloc
_TEXT	ENDS
; Function compile flags: /Ogtp
; File C:\Program Files (x86)\Microsoft Visual Studio\2019\Community\VC\Tools\MSVC\14.29.30133\include\vcruntime_exception.h
;	COMDAT ??_Gbad_alloc@std@@UAEPAXI@Z
_TEXT	SEGMENT
___flags$ = 8						; size = 4
??_Gbad_alloc@std@@UAEPAXI@Z PROC			; std::bad_alloc::`scalar deleting destructor', COMDAT
; _this$ = ecx
	push	ebp
	mov	ebp, esp

; 89   :     {

	push	esi
	mov	esi, ecx

; 90   :         __std_exception_destroy(&_Data);

	lea	eax, DWORD PTR [esi+4]
	mov	DWORD PTR [esi], OFFSET ??_7exception@std@@6B@
	push	eax
	call	DWORD PTR __imp____std_exception_destroy
	add	esp, 4
	test	BYTE PTR ___flags$[ebp], 1
	je	SHORT $LN9@scalar
	push	12					; 0000000cH
	push	esi
	call	??3@YAXPAXI@Z				; operator delete
	add	esp, 8
$LN9@scalar:
	mov	eax, esi
	pop	esi
	pop	ebp
	ret	4
??_Gbad_alloc@std@@UAEPAXI@Z ENDP			; std::bad_alloc::`scalar deleting destructor'
_TEXT	ENDS
; Function compile flags: /Ogtp
; File C:\Program Files (x86)\Microsoft Visual Studio\2019\Community\VC\Tools\MSVC\14.29.30133\include\vcruntime_exception.h
;	COMDAT ??1bad_alloc@std@@UAE@XZ
_TEXT	SEGMENT
??1bad_alloc@std@@UAE@XZ PROC				; std::bad_alloc::~bad_alloc, COMDAT
; _this$ = ecx

; 90   :         __std_exception_destroy(&_Data);

	lea	eax, DWORD PTR [ecx+4]
	mov	DWORD PTR [ecx], OFFSET ??_7exception@std@@6B@
	push	eax
	call	DWORD PTR __imp____std_exception_destroy
	pop	ecx
	ret	0
??1bad_alloc@std@@UAE@XZ ENDP				; std::bad_alloc::~bad_alloc
_TEXT	ENDS
; Function compile flags: /Ogtp
; File C:\Program Files (x86)\Microsoft Visual Studio\2019\Community\VC\Tools\MSVC\14.29.30133\include\vcruntime_exception.h
;	COMDAT ??0bad_array_new_length@std@@QAE@XZ
_TEXT	SEGMENT
??0bad_array_new_length@std@@QAE@XZ PROC		; std::bad_array_new_length::bad_array_new_length, COMDAT
; _this$ = ecx

; 141  :     {

	xorps	xmm0, xmm0

; 142  :     }

	mov	eax, ecx

; 65   :         : _Data()

	movq	QWORD PTR [ecx+4], xmm0

; 66   :     {
; 67   :         _Data._What = _Message;

	mov	DWORD PTR [ecx+4], OFFSET ??_C@_0BF@KINCDENJ@bad?5array?5new?5length@

; 141  :     {

	mov	DWORD PTR [ecx], OFFSET ??_7bad_array_new_length@std@@6B@

; 142  :     }

	ret	0
??0bad_array_new_length@std@@QAE@XZ ENDP		; std::bad_array_new_length::bad_array_new_length
_TEXT	ENDS
; Function compile flags: /Ogtp
; File C:\Program Files (x86)\Microsoft Visual Studio\2019\Community\VC\Tools\MSVC\14.29.30133\include\vcruntime_exception.h
;	COMDAT ??_Gbad_array_new_length@std@@UAEPAXI@Z
_TEXT	SEGMENT
___flags$ = 8						; size = 4
??_Gbad_array_new_length@std@@UAEPAXI@Z PROC		; std::bad_array_new_length::`scalar deleting destructor', COMDAT
; _this$ = ecx
	push	ebp
	mov	ebp, esp

; 89   :     {

	push	esi
	mov	esi, ecx

; 90   :         __std_exception_destroy(&_Data);

	lea	eax, DWORD PTR [esi+4]
	mov	DWORD PTR [esi], OFFSET ??_7exception@std@@6B@
	push	eax
	call	DWORD PTR __imp____std_exception_destroy
	add	esp, 4
	test	BYTE PTR ___flags$[ebp], 1
	je	SHORT $LN12@scalar
	push	12					; 0000000cH
	push	esi
	call	??3@YAXPAXI@Z				; operator delete
	add	esp, 8
$LN12@scalar:
	mov	eax, esi
	pop	esi
	pop	ebp
	ret	4
??_Gbad_array_new_length@std@@UAEPAXI@Z ENDP		; std::bad_array_new_length::`scalar deleting destructor'
_TEXT	ENDS
; Function compile flags: /Ogtp
; File C:\Program Files (x86)\Microsoft Visual Studio\2019\Community\VC\Tools\MSVC\14.29.30133\include\vcruntime_exception.h
;	COMDAT ??1bad_array_new_length@std@@UAE@XZ
_TEXT	SEGMENT
??1bad_array_new_length@std@@UAE@XZ PROC		; std::bad_array_new_length::~bad_array_new_length, COMDAT
; _this$ = ecx

; 90   :         __std_exception_destroy(&_Data);

	lea	eax, DWORD PTR [ecx+4]
	mov	DWORD PTR [ecx], OFFSET ??_7exception@std@@6B@
	push	eax
	call	DWORD PTR __imp____std_exception_destroy
	pop	ecx
	ret	0
??1bad_array_new_length@std@@UAE@XZ ENDP		; std::bad_array_new_length::~bad_array_new_length
_TEXT	ENDS
; Function compile flags: /Ogtp
; File C:\Program Files (x86)\Microsoft Visual Studio\2019\Community\VC\Tools\MSVC\14.29.30133\include\exception
;	COMDAT ?_Throw_bad_array_new_length@std@@YAXXZ
_TEXT	SEGMENT
$T1 = -12						; size = 12
?_Throw_bad_array_new_length@std@@YAXXZ PROC		; std::_Throw_bad_array_new_length, COMDAT

; 315  : [[noreturn]] inline void _Throw_bad_array_new_length() {

	push	ebp
	mov	ebp, esp
	sub	esp, 12					; 0000000cH

; 316  :     _THROW(bad_array_new_length{});

	lea	ecx, DWORD PTR $T1[ebp]
	call	??0bad_array_new_length@std@@QAE@XZ	; std::bad_array_new_length::bad_array_new_length
	push	OFFSET __TI3?AVbad_array_new_length@std@@
	lea	eax, DWORD PTR $T1[ebp]
	push	eax
	call	__CxxThrowException@8
$LN3@Throw_bad_:
	int	3
?_Throw_bad_array_new_length@std@@YAXXZ ENDP		; std::_Throw_bad_array_new_length
_TEXT	ENDS
; Function compile flags: /Ogtp
; File C:\Program Files (x86)\Microsoft Visual Studio\2019\Community\VC\Tools\MSVC\14.29.30133\include\vcruntime_exception.h
;	COMDAT ??0bad_array_new_length@std@@QAE@ABV01@@Z
_TEXT	SEGMENT
___that$ = 8						; size = 4
??0bad_array_new_length@std@@QAE@ABV01@@Z PROC		; std::bad_array_new_length::bad_array_new_length, COMDAT
; _this$ = ecx
	push	ebp
	mov	ebp, esp

; 72   :     {

	push	esi
	mov	esi, ecx
	xorps	xmm0, xmm0

; 71   :         : _Data()

	lea	eax, DWORD PTR [esi+4]

; 73   :         __std_exception_copy(&_Other._Data, &_Data);

	push	eax
	mov	DWORD PTR [esi], OFFSET ??_7exception@std@@6B@
	movq	QWORD PTR [eax], xmm0
	mov	eax, DWORD PTR ___that$[ebp]
	add	eax, 4
	push	eax
	call	DWORD PTR __imp____std_exception_copy
	add	esp, 8
	mov	DWORD PTR [esi], OFFSET ??_7bad_array_new_length@std@@6B@
	mov	eax, esi
	pop	esi
	pop	ebp
	ret	4
??0bad_array_new_length@std@@QAE@ABV01@@Z ENDP		; std::bad_array_new_length::bad_array_new_length
_TEXT	ENDS
; Function compile flags: /Ogtp
; File C:\Program Files (x86)\Microsoft Visual Studio\2019\Community\VC\Tools\MSVC\14.29.30133\include\vcruntime_exception.h
;	COMDAT ??0bad_alloc@std@@QAE@ABV01@@Z
_TEXT	SEGMENT
___that$ = 8						; size = 4
??0bad_alloc@std@@QAE@ABV01@@Z PROC			; std::bad_alloc::bad_alloc, COMDAT
; _this$ = ecx
	push	ebp
	mov	ebp, esp

; 72   :     {

	push	esi
	mov	esi, ecx
	xorps	xmm0, xmm0

; 71   :         : _Data()

	lea	eax, DWORD PTR [esi+4]

; 73   :         __std_exception_copy(&_Other._Data, &_Data);

	push	eax
	mov	DWORD PTR [esi], OFFSET ??_7exception@std@@6B@
	movq	QWORD PTR [eax], xmm0
	mov	eax, DWORD PTR ___that$[ebp]
	add	eax, 4
	push	eax
	call	DWORD PTR __imp____std_exception_copy
	add	esp, 8
	mov	DWORD PTR [esi], OFFSET ??_7bad_alloc@std@@6B@
	mov	eax, esi
	pop	esi
	pop	ebp
	ret	4
??0bad_alloc@std@@QAE@ABV01@@Z ENDP			; std::bad_alloc::bad_alloc
_TEXT	ENDS
; Function compile flags: /Ogtp
; File C:\Program Files (x86)\Microsoft Visual Studio\2019\Community\VC\Tools\MSVC\14.29.30133\include\limits
;	COMDAT ?max@?$numeric_limits@H@std@@SAHXZ
_TEXT	SEGMENT
?max@?$numeric_limits@H@std@@SAHXZ PROC			; std::numeric_limits<int>::max, COMDAT

; 541  :         return INT_MAX;

	mov	eax, 2147483647				; 7fffffffH

; 542  :     }

	ret	0
?max@?$numeric_limits@H@std@@SAHXZ ENDP			; std::numeric_limits<int>::max
_TEXT	ENDS
; Function compile flags: /Ogtp
; File C:\Program Files (x86)\Microsoft Visual Studio\2019\Community\VC\Tools\MSVC\14.29.30133\include\xmemory
;	COMDAT ?_Allocate@_Default_allocate_traits@std@@SAPAXI@Z
_TEXT	SEGMENT
?_Allocate@_Default_allocate_traits@std@@SAPAXI@Z PROC	; std::_Default_allocate_traits::_Allocate, COMDAT
; __Bytes$ = ecx

; 79   :         return ::operator new(_Bytes);

	push	ecx
	call	??2@YAPAXI@Z				; operator new
	add	esp, 4

; 80   :     }

	ret	0
?_Allocate@_Default_allocate_traits@std@@SAPAXI@Z ENDP	; std::_Default_allocate_traits::_Allocate
_TEXT	ENDS
; Function compile flags: /Ogtp
; File C:\Program Files (x86)\Microsoft Visual Studio\2019\Community\VC\Tools\MSVC\14.29.30133\include\xmemory
;	COMDAT ?_Adjust_manually_vector_aligned@std@@YAXAAPAXAAI@Z
_TEXT	SEGMENT
?_Adjust_manually_vector_aligned@std@@YAXAAPAXAAI@Z PROC ; std::_Adjust_manually_vector_aligned, COMDAT
; __Ptr$ = ecx
; __Bytes$ = edx

; 146  :     // adjust parameters from _Allocate_manually_vector_aligned to pass to operator delete
; 147  :     _Bytes += _Non_user_size;

	add	DWORD PTR [edx], 35			; 00000023H

; 148  : 
; 149  :     const uintptr_t* const _Ptr_user = reinterpret_cast<uintptr_t*>(_Ptr);
; 150  :     const uintptr_t _Ptr_container   = _Ptr_user[-1];

	mov	eax, DWORD PTR [ecx]
	mov	edx, DWORD PTR [eax-4]

; 151  : 
; 152  :     // If the following asserts, it likely means that we are performing
; 153  :     // an aligned delete on memory coming from an unaligned allocation.
; 154  :     _STL_ASSERT(_Ptr_user[-2] == _Big_allocation_sentinel, "invalid argument");
; 155  : 
; 156  :     // Extra paranoia on aligned allocation/deallocation; ensure _Ptr_container is
; 157  :     // in range [_Min_back_shift, _Non_user_size]
; 158  : #ifdef _DEBUG
; 159  :     constexpr uintptr_t _Min_back_shift = 2 * sizeof(void*);
; 160  : #else // ^^^ _DEBUG ^^^ // vvv !_DEBUG vvv
; 161  :     constexpr uintptr_t _Min_back_shift = sizeof(void*);
; 162  : #endif // _DEBUG
; 163  :     const uintptr_t _Back_shift = reinterpret_cast<uintptr_t>(_Ptr) - _Ptr_container;

	sub	eax, edx

; 164  :     _STL_VERIFY(_Back_shift >= _Min_back_shift && _Back_shift <= _Non_user_size, "invalid argument");

	add	eax, -4					; fffffffcH
	cmp	eax, 31					; 0000001fH
	ja	SHORT $LN7@Adjust_man

; 165  :     _Ptr = reinterpret_cast<void*>(_Ptr_container);

	mov	DWORD PTR [ecx], edx

; 166  : }

	ret	0
$LN7@Adjust_man:

; 164  :     _STL_VERIFY(_Back_shift >= _Min_back_shift && _Back_shift <= _Non_user_size, "invalid argument");

	jmp	DWORD PTR __imp___invalid_parameter_noinfo_noreturn
?_Adjust_manually_vector_aligned@std@@YAXAAPAXAAI@Z ENDP ; std::_Adjust_manually_vector_aligned
_TEXT	ENDS
; Function compile flags: /Ogtp
; File C:\Program Files (x86)\Microsoft Visual Studio\2019\Community\VC\Tools\MSVC\14.29.30133\include\xmemory
;	COMDAT ?_Orphan_all@_Container_base0@std@@QAEXXZ
_TEXT	SEGMENT
?_Orphan_all@_Container_base0@std@@QAEXXZ PROC		; std::_Container_base0::_Orphan_all, COMDAT
; _this$dead$ = ecx

; 982  :     _CONSTEXPR20_CONTAINER void _Orphan_all() noexcept {}

	ret	0
?_Orphan_all@_Container_base0@std@@QAEXXZ ENDP		; std::_Container_base0::_Orphan_all
_TEXT	ENDS
; Function compile flags: /Ogtp
; File C:\Program Files (x86)\Microsoft Visual Studio\2019\Community\VC\Tools\MSVC\14.29.30133\include\xmemory
;	COMDAT ?_Swap_proxy_and_iterators@_Container_base0@std@@QAEXAAU12@@Z
_TEXT	SEGMENT
___formal$dead$ = 8					; size = 4
?_Swap_proxy_and_iterators@_Container_base0@std@@QAEXAAU12@@Z PROC ; std::_Container_base0::_Swap_proxy_and_iterators, COMDAT
; _this$dead$ = ecx

; 983  :     _CONSTEXPR20_CONTAINER void _Swap_proxy_and_iterators(_Container_base0&) noexcept {}

	ret	4
?_Swap_proxy_and_iterators@_Container_base0@std@@QAEXAAU12@@Z ENDP ; std::_Container_base0::_Swap_proxy_and_iterators
_TEXT	ENDS
; Function compile flags: /Ogtp
; File C:\Program Files (x86)\Microsoft Visual Studio\2019\Community\VC\Tools\MSVC\14.29.30133\include\xmemory
;	COMDAT ?_Alloc_proxy@_Container_base0@std@@QAEXABU_Fake_allocator@2@@Z
_TEXT	SEGMENT
___formal$dead$ = 8					; size = 4
?_Alloc_proxy@_Container_base0@std@@QAEXABU_Fake_allocator@2@@Z PROC ; std::_Container_base0::_Alloc_proxy, COMDAT
; _this$dead$ = ecx

; 984  :     _CONSTEXPR20_CONTAINER void _Alloc_proxy(const _Fake_allocator&) noexcept {}

	ret	4
?_Alloc_proxy@_Container_base0@std@@QAEXABU_Fake_allocator@2@@Z ENDP ; std::_Container_base0::_Alloc_proxy
_TEXT	ENDS
; Function compile flags: /Ogtp
; File C:\Program Files (x86)\Microsoft Visual Studio\2019\Community\VC\Tools\MSVC\14.29.30133\include\xmemory
;	COMDAT ??0_Fake_proxy_ptr_impl@std@@QAE@ABU_Fake_allocator@1@ABU_Container_base0@1@@Z
_TEXT	SEGMENT
___formal$dead$ = 8					; size = 4
___formal$dead$ = 12					; size = 4
??0_Fake_proxy_ptr_impl@std@@QAE@ABU_Fake_allocator@1@ABU_Container_base0@1@@Z PROC ; std::_Fake_proxy_ptr_impl::_Fake_proxy_ptr_impl, COMDAT
; _this$ = ecx

; 1250 :     _CONSTEXPR20_CONTAINER _Fake_proxy_ptr_impl(const _Fake_allocator&, const _Container_base0&) noexcept {}

	mov	eax, ecx
	ret	8
??0_Fake_proxy_ptr_impl@std@@QAE@ABU_Fake_allocator@1@ABU_Container_base0@1@@Z ENDP ; std::_Fake_proxy_ptr_impl::_Fake_proxy_ptr_impl
_TEXT	ENDS
; Function compile flags: /Ogtp
; File C:\Program Files (x86)\Microsoft Visual Studio\2019\Community\VC\Tools\MSVC\14.29.30133\include\xmemory
;	COMDAT ?_Release@_Fake_proxy_ptr_impl@std@@QAEXXZ
_TEXT	SEGMENT
?_Release@_Fake_proxy_ptr_impl@std@@QAEXXZ PROC		; std::_Fake_proxy_ptr_impl::_Release, COMDAT
; _this$dead$ = ecx

; 1253 :     _CONSTEXPR20_CONTAINER void _Release() noexcept {}

	ret	0
?_Release@_Fake_proxy_ptr_impl@std@@QAEXXZ ENDP		; std::_Fake_proxy_ptr_impl::_Release
_TEXT	ENDS
; Function compile flags: /Ogtp
; File C:\Program Files (x86)\Microsoft Visual Studio\2019\Community\VC\Tools\MSVC\14.29.30133\include\xstring
;	COMDAT ?_Xlen_string@std@@YAXXZ
_TEXT	SEGMENT
?_Xlen_string@std@@YAXXZ PROC				; std::_Xlen_string, COMDAT

; 2340 :     _Xlength_error("string too long");

	push	OFFSET ??_C@_0BA@JFNIOLAK@string?5too?5long@
	call	DWORD PTR __imp_?_Xlength_error@std@@YAXPBD@Z
$LN3@Xlen_strin:
	int	3
?_Xlen_string@std@@YAXXZ ENDP				; std::_Xlen_string
_TEXT	ENDS
; Function compile flags: /Ogtp
; File C:\Program Files (x86)\Microsoft Visual Studio\2019\Community\VC\Tools\MSVC\14.29.30133\include\xstring
;	COMDAT ??__Ks@string_literals@literals@std@@YA?AV?$basic_string@DU?$char_traits@D@std@@V?$allocator@D@2@@3@PBDI@Z
_TEXT	SEGMENT
___$ReturnUdt$ = -4					; size = 4
__Len$dead$ = 8						; size = 4
??__Ks@string_literals@literals@std@@YA?AV?$basic_string@DU?$char_traits@D@std@@V?$allocator@D@2@@3@PBDI@Z PROC ; std::literals::string_literals::operator "" s, COMDAT
; ___$ReturnUdt$ = ecx
; __Str$dead$ = edx

; 4959 :         _NODISCARD _CONSTEXPR20_STRING_LITERALS string operator"" s(const char* _Str, size_t _Len) {

	push	ebp
	mov	ebp, esp
	push	ecx
	push	esi
	mov	esi, ecx

; 2469 :         assign(_Ptr, _Count);

	push	5
	push	OFFSET ??_C@_05FBADLLFO@Ethan@

; 4959 :         _NODISCARD _CONSTEXPR20_STRING_LITERALS string operator"" s(const char* _Str, size_t _Len) {

	mov	DWORD PTR ___$ReturnUdt$[ebp], esi

; 2313 :         _CONSTEXPR20_CONTAINER _Bxty() noexcept : _Ptr() {} // user-provided, for fancy pointers

	mov	DWORD PTR [esi], 0

; 4562 :         _My_data._Mysize = 0;

	mov	DWORD PTR [esi+16], 0

; 4563 : 
; 4564 : #ifdef __cpp_lib_constexpr_string
; 4565 :         if (_STD is_constant_evaluated()) {
; 4566 :             _My_data._Myres        = _BUF_SIZE; // SSO disabled in constexpr context
; 4567 :             auto& _Al              = _Getal();
; 4568 :             const pointer _New_ptr = _Al.allocate(_BUF_SIZE + 1); // throws
; 4569 :             _My_data._Bx._Ptr      = _New_ptr;
; 4570 : 
; 4571 :             _Elem* const _Raw_new = _Unfancy(_New_ptr);
; 4572 :             _Traits::assign(_Raw_new, _BUF_SIZE + 1, _Elem());
; 4573 :         } else
; 4574 : #endif // __cpp_lib_constexpr_string
; 4575 :         {
; 4576 :             _My_data._Myres = _BUF_SIZE - 1;

	mov	DWORD PTR [esi+20], 15			; 0000000fH

; 4577 :             // the _Traits::assign is last so the codegen doesn't think the char write can alias this
; 4578 :             _Traits::assign(_My_data._Bx._Buf[0], _Elem());

	mov	BYTE PTR [esi], 0

; 2469 :         assign(_Ptr, _Count);

	call	?assign@?$basic_string@DU?$char_traits@D@std@@V?$allocator@D@2@@std@@QAEAAV12@QBDI@Z ; std::basic_string<char,std::char_traits<char>,std::allocator<char> >::assign

; 4960 :             return string(_Str, _Len);

	mov	eax, esi
	pop	esi

; 4961 :         }

	mov	esp, ebp
	pop	ebp
	ret	0
??__Ks@string_literals@literals@std@@YA?AV?$basic_string@DU?$char_traits@D@std@@V?$allocator@D@2@@3@PBDI@Z ENDP ; std::literals::string_literals::operator "" s
_TEXT	ENDS
; Function compile flags: /Ogtp
; File C:\Program Files (x86)\Microsoft Visual Studio\2019\Community\VC\Tools\MSVC\14.29.30133\include\xstring
;	COMDAT ??__Ks@string_literals@literals@std@@YA?AV?$basic_string@_WU?$char_traits@_W@std@@V?$allocator@_W@2@@3@PB_WI@Z
_TEXT	SEGMENT
___$ReturnUdt$GSCopy$ = -4				; size = 4
___$ReturnUdt$ = -4					; size = 4
__Len$dead$ = 8						; size = 4
??__Ks@string_literals@literals@std@@YA?AV?$basic_string@_WU?$char_traits@_W@std@@V?$allocator@_W@2@@3@PB_WI@Z PROC ; std::literals::string_literals::operator "" s, COMDAT
; ___$ReturnUdt$ = ecx
; __Str$dead$ = edx

; 4963 :         _NODISCARD _CONSTEXPR20_STRING_LITERALS wstring operator"" s(const wchar_t* _Str, size_t _Len) {

	push	ebp
	mov	ebp, esp
	push	ecx
	push	esi
	mov	esi, ecx

; 4578 :             _Traits::assign(_My_data._Bx._Buf[0], _Elem());

	xor	eax, eax

; 121  :         _CSTD memmove(_First1, _First2, _Count * sizeof(_Elem));

	push	10					; 0000000aH
	push	OFFSET ??_C@_1M@MIBHDLFD@?$AAE?$AAt?$AAh?$AAa?$AAn@

; 4963 :         _NODISCARD _CONSTEXPR20_STRING_LITERALS wstring operator"" s(const wchar_t* _Str, size_t _Len) {

	mov	DWORD PTR ___$ReturnUdt$[ebp], esi

; 2313 :         _CONSTEXPR20_CONTAINER _Bxty() noexcept : _Ptr() {} // user-provided, for fancy pointers

	mov	DWORD PTR [esi], 0

; 4562 :         _My_data._Mysize = 0;

	mov	DWORD PTR [esi+16], 0

; 4563 : 
; 4564 : #ifdef __cpp_lib_constexpr_string
; 4565 :         if (_STD is_constant_evaluated()) {
; 4566 :             _My_data._Myres        = _BUF_SIZE; // SSO disabled in constexpr context
; 4567 :             auto& _Al              = _Getal();
; 4568 :             const pointer _New_ptr = _Al.allocate(_BUF_SIZE + 1); // throws
; 4569 :             _My_data._Bx._Ptr      = _New_ptr;
; 4570 : 
; 4571 :             _Elem* const _Raw_new = _Unfancy(_New_ptr);
; 4572 :             _Traits::assign(_Raw_new, _BUF_SIZE + 1, _Elem());
; 4573 :         } else
; 4574 : #endif // __cpp_lib_constexpr_string
; 4575 :         {
; 4576 :             _My_data._Myres = _BUF_SIZE - 1;

	mov	DWORD PTR [esi+20], 7

; 4577 :             // the _Traits::assign is last so the codegen doesn't think the char write can alias this
; 4578 :             _Traits::assign(_My_data._Bx._Buf[0], _Elem());

	mov	WORD PTR [esi], ax

; 121  :         _CSTD memmove(_First1, _First2, _Count * sizeof(_Elem));

	push	esi

; 4963 :         _NODISCARD _CONSTEXPR20_STRING_LITERALS wstring operator"" s(const wchar_t* _Str, size_t _Len) {

	mov	DWORD PTR ___$ReturnUdt$GSCopy$[ebp], esi

; 3214 :             _Mypair._Myval2._Mysize = _Count;

	mov	DWORD PTR [esi+16], 5

; 121  :         _CSTD memmove(_First1, _First2, _Count * sizeof(_Elem));

	call	_memmove
	add	esp, 12					; 0000000cH

; 3216 :             _Traits::assign(_Old_ptr[_Count], _Elem());

	xor	eax, eax
	mov	WORD PTR [esi+10], ax

; 4964 :             return wstring(_Str, _Len);

	mov	eax, esi
	pop	esi

; 4965 :         }

	mov	esp, ebp
	pop	ebp
	ret	0
??__Ks@string_literals@literals@std@@YA?AV?$basic_string@_WU?$char_traits@_W@std@@V?$allocator@_W@2@@3@PB_WI@Z ENDP ; std::literals::string_literals::operator "" s
_TEXT	ENDS
; Function compile flags: /Ogtp
; File C:\Program Files (x86)\Microsoft Visual Studio\2019\Community\VC\Tools\MSVC\14.29.30133\include\xstring
;	COMDAT ??__Ks@string_literals@literals@std@@YA?AV?$basic_string@_SU?$char_traits@_S@std@@V?$allocator@_S@2@@3@PB_SI@Z
_TEXT	SEGMENT
___$ReturnUdt$GSCopy$ = -4				; size = 4
___$ReturnUdt$ = -4					; size = 4
__Len$dead$ = 8						; size = 4
??__Ks@string_literals@literals@std@@YA?AV?$basic_string@_SU?$char_traits@_S@std@@V?$allocator@_S@2@@3@PB_SI@Z PROC ; std::literals::string_literals::operator "" s, COMDAT
; ___$ReturnUdt$ = ecx
; __Str$dead$ = edx

; 4973 :         _NODISCARD _CONSTEXPR20_STRING_LITERALS u16string operator"" s(const char16_t* _Str, size_t _Len) {

	push	ebp
	mov	ebp, esp
	push	ecx
	push	esi
	mov	esi, ecx

; 4578 :             _Traits::assign(_My_data._Bx._Buf[0], _Elem());

	xor	eax, eax

; 121  :         _CSTD memmove(_First1, _First2, _Count * sizeof(_Elem));

	push	10					; 0000000aH
	push	OFFSET ??_C@_1M@MIBHDLFD@?$AAE?$AAt?$AAh?$AAa?$AAn@

; 4973 :         _NODISCARD _CONSTEXPR20_STRING_LITERALS u16string operator"" s(const char16_t* _Str, size_t _Len) {

	mov	DWORD PTR ___$ReturnUdt$[ebp], esi

; 2313 :         _CONSTEXPR20_CONTAINER _Bxty() noexcept : _Ptr() {} // user-provided, for fancy pointers

	mov	DWORD PTR [esi], 0

; 4562 :         _My_data._Mysize = 0;

	mov	DWORD PTR [esi+16], 0

; 4563 : 
; 4564 : #ifdef __cpp_lib_constexpr_string
; 4565 :         if (_STD is_constant_evaluated()) {
; 4566 :             _My_data._Myres        = _BUF_SIZE; // SSO disabled in constexpr context
; 4567 :             auto& _Al              = _Getal();
; 4568 :             const pointer _New_ptr = _Al.allocate(_BUF_SIZE + 1); // throws
; 4569 :             _My_data._Bx._Ptr      = _New_ptr;
; 4570 : 
; 4571 :             _Elem* const _Raw_new = _Unfancy(_New_ptr);
; 4572 :             _Traits::assign(_Raw_new, _BUF_SIZE + 1, _Elem());
; 4573 :         } else
; 4574 : #endif // __cpp_lib_constexpr_string
; 4575 :         {
; 4576 :             _My_data._Myres = _BUF_SIZE - 1;

	mov	DWORD PTR [esi+20], 7

; 4577 :             // the _Traits::assign is last so the codegen doesn't think the char write can alias this
; 4578 :             _Traits::assign(_My_data._Bx._Buf[0], _Elem());

	mov	WORD PTR [esi], ax

; 121  :         _CSTD memmove(_First1, _First2, _Count * sizeof(_Elem));

	push	esi

; 4973 :         _NODISCARD _CONSTEXPR20_STRING_LITERALS u16string operator"" s(const char16_t* _Str, size_t _Len) {

	mov	DWORD PTR ___$ReturnUdt$GSCopy$[ebp], esi

; 3214 :             _Mypair._Myval2._Mysize = _Count;

	mov	DWORD PTR [esi+16], 5

; 121  :         _CSTD memmove(_First1, _First2, _Count * sizeof(_Elem));

	call	_memmove
	add	esp, 12					; 0000000cH

; 3216 :             _Traits::assign(_Old_ptr[_Count], _Elem());

	xor	eax, eax
	mov	WORD PTR [esi+10], ax

; 4974 :             return u16string(_Str, _Len);

	mov	eax, esi
	pop	esi

; 4975 :         }

	mov	esp, ebp
	pop	ebp
	ret	0
??__Ks@string_literals@literals@std@@YA?AV?$basic_string@_SU?$char_traits@_S@std@@V?$allocator@_S@2@@3@PB_SI@Z ENDP ; std::literals::string_literals::operator "" s
_TEXT	ENDS
; Function compile flags: /Ogtp
; File C:\Program Files (x86)\Microsoft Visual Studio\2019\Community\VC\Tools\MSVC\14.29.30133\include\xstring
; File C:\Program Files (x86)\Microsoft Visual Studio\2019\Community\VC\Tools\MSVC\14.29.30133\include\xmemory
; File C:\Program Files (x86)\Microsoft Visual Studio\2019\Community\VC\Tools\MSVC\14.29.30133\include\xstring
; File C:\Program Files (x86)\Microsoft Visual Studio\2019\Community\VC\Tools\MSVC\14.29.30133\include\xmemory
; File C:\Program Files (x86)\Microsoft Visual Studio\2019\Community\VC\Tools\MSVC\14.29.30133\include\xstring
; File C:\Program Files (x86)\Microsoft Visual Studio\2019\Community\VC\Tools\MSVC\14.29.30133\include\xmemory
; File C:\Program Files (x86)\Microsoft Visual Studio\2019\Community\VC\Tools\MSVC\14.29.30133\include\xstring
;	COMDAT ??__Ks@string_literals@literals@std@@YA?AV?$basic_string@_UU?$char_traits@_U@std@@V?$allocator@_U@2@@3@PB_UI@Z
_TEXT	SEGMENT
___$ReturnUdt$GSCopy$ = -4				; size = 4
___$ReturnUdt$ = -4					; size = 4
__Len$dead$ = 8						; size = 4
??__Ks@string_literals@literals@std@@YA?AV?$basic_string@_UU?$char_traits@_U@std@@V?$allocator@_U@2@@3@PB_UI@Z PROC ; std::literals::string_literals::operator "" s, COMDAT
; ___$ReturnUdt$ = ecx
; __Str$dead$ = edx

; 4977 :         _NODISCARD _CONSTEXPR20_STRING_LITERALS u32string operator"" s(const char32_t* _Str, size_t _Len) {

	push	ebp
	mov	ebp, esp
	push	ecx
	push	esi
	mov	esi, ecx
	mov	DWORD PTR ___$ReturnUdt$[ebp], esi
; File C:\Program Files (x86)\Microsoft Visual Studio\2019\Community\VC\Tools\MSVC\14.29.30133\include\xmemory

; 79   :         return ::operator new(_Bytes);

	push	32					; 00000020H
; File C:\Program Files (x86)\Microsoft Visual Studio\2019\Community\VC\Tools\MSVC\14.29.30133\include\xstring

; 4977 :         _NODISCARD _CONSTEXPR20_STRING_LITERALS u32string operator"" s(const char32_t* _Str, size_t _Len) {

	mov	DWORD PTR ___$ReturnUdt$GSCopy$[ebp], esi

; 4562 :         _My_data._Mysize = 0;

	mov	DWORD PTR [esi+16], 0

; 4563 : 
; 4564 : #ifdef __cpp_lib_constexpr_string
; 4565 :         if (_STD is_constant_evaluated()) {
; 4566 :             _My_data._Myres        = _BUF_SIZE; // SSO disabled in constexpr context
; 4567 :             auto& _Al              = _Getal();
; 4568 :             const pointer _New_ptr = _Al.allocate(_BUF_SIZE + 1); // throws
; 4569 :             _My_data._Bx._Ptr      = _New_ptr;
; 4570 : 
; 4571 :             _Elem* const _Raw_new = _Unfancy(_New_ptr);
; 4572 :             _Traits::assign(_Raw_new, _BUF_SIZE + 1, _Elem());
; 4573 :         } else
; 4574 : #endif // __cpp_lib_constexpr_string
; 4575 :         {
; 4576 :             _My_data._Myres = _BUF_SIZE - 1;

	mov	DWORD PTR [esi+20], 3

; 4577 :             // the _Traits::assign is last so the codegen doesn't think the char write can alias this
; 4578 :             _Traits::assign(_My_data._Bx._Buf[0], _Elem());

	mov	DWORD PTR [esi], 0
; File C:\Program Files (x86)\Microsoft Visual Studio\2019\Community\VC\Tools\MSVC\14.29.30133\include\xmemory

; 79   :         return ::operator new(_Bytes);

	call	??2@YAPAXI@Z				; operator new
; File C:\Program Files (x86)\Microsoft Visual Studio\2019\Community\VC\Tools\MSVC\14.29.30133\include\xstring

; 4489 :         _Mypair._Myval2._Mysize = _New_size;

	mov	DWORD PTR [esi+16], 5
; File C:\Program Files (x86)\Microsoft Visual Studio\2019\Community\VC\Tools\MSVC\14.29.30133\include\xmemory

; 79   :         return ::operator new(_Bytes);

	add	esp, 4
; File C:\Program Files (x86)\Microsoft Visual Studio\2019\Community\VC\Tools\MSVC\14.29.30133\include\xstring

; 4490 :         _Mypair._Myval2._Myres  = _New_capacity;

	mov	DWORD PTR [esi+20], 7

; 64   :         _CSTD memcpy(_First1, _First2, _Count * sizeof(_Elem));

	movups	xmm0, XMMWORD PTR ??_C@_2BI@CPCKAEFF@?$AA?$AA?$AAE?$AA?$AA?$AAt?$AA?$AA?$AAh?$AA?$AA?$AAa?$AA?$AA?$AAn@
	movups	XMMWORD PTR [eax], xmm0
	mov	ecx, DWORD PTR ??_C@_2BI@CPCKAEFF@?$AA?$AA?$AAE?$AA?$AA?$AAt?$AA?$AA?$AAh?$AA?$AA?$AAa?$AA?$AA?$AAn@+16
	mov	DWORD PTR [eax+16], ecx

; 3224 :                 _Traits::assign(_New_ptr[_Count], _Elem());

	mov	DWORD PTR [eax+20], 0

; 4496 :             _Construct_in_place(_Mypair._Myval2._Bx._Ptr, _New_ptr);

	mov	DWORD PTR [esi], eax

; 4978 :             return u32string(_Str, _Len);

	mov	eax, esi
	pop	esi

; 4979 :         }

	mov	esp, ebp
	pop	ebp
	ret	0
??__Ks@string_literals@literals@std@@YA?AV?$basic_string@_UU?$char_traits@_U@std@@V?$allocator@_U@2@@3@PB_UI@Z ENDP ; std::literals::string_literals::operator "" s
_TEXT	ENDS
; Function compile flags: /Ogtp
; File C:\Program Files (x86)\Microsoft Visual Studio\2019\Community\VC\Tools\MSVC\14.29.30133\include\xlocale
;	COMDAT ??1_Facet_guard@locale@std@@QAE@XZ
_TEXT	SEGMENT
??1_Facet_guard@locale@std@@QAE@XZ PROC			; std::locale::_Facet_guard::~_Facet_guard, COMDAT
; _this$ = ecx

; 161  :             if (_Target) {

	mov	ecx, DWORD PTR [ecx]
	test	ecx, ecx
	je	SHORT $LN4@Facet_guar

; 162  :                 delete _Target->_Decref();

	mov	eax, DWORD PTR [ecx]
	call	DWORD PTR [eax+8]
	test	eax, eax
	je	SHORT $LN4@Facet_guar
	mov	edx, DWORD PTR [eax]
	mov	ecx, eax
	push	1
	call	DWORD PTR [edx]
$LN4@Facet_guar:

; 163  :             }
; 164  :         }

	ret	0
??1_Facet_guard@locale@std@@QAE@XZ ENDP			; std::locale::_Facet_guard::~_Facet_guard
_TEXT	ENDS
; Function compile flags: /Ogtp
; File C:\Program Files (x86)\Microsoft Visual Studio\2019\Community\VC\Tools\MSVC\14.29.30133\include\xlocale
; File C:\Program Files (x86)\Microsoft Visual Studio\2019\Community\VC\Tools\MSVC\14.29.30133\include\xstring
; File C:\Program Files (x86)\Microsoft Visual Studio\2019\Community\VC\Tools\MSVC\14.29.30133\include\xlocale
; File C:\Program Files (x86)\Microsoft Visual Studio\2019\Community\VC\Tools\MSVC\14.29.30133\include\xstring
; File C:\Program Files (x86)\Microsoft Visual Studio\2019\Community\VC\Tools\MSVC\14.29.30133\include\xlocale
;	COMDAT ?_Construct@locale@std@@AAEXABV?$basic_string@DU?$char_traits@D@std@@V?$allocator@D@2@@2@H@Z
_TEXT	SEGMENT
__Guard$10 = -76					; size = 4
__Bad$1$ = -69						; size = 1
__Lobj$11 = -68						; size = 52
__$ArrayPad$ = -16					; size = 4
__$EHRec$ = -12						; size = 12
__Str$ = 8						; size = 4
__Cat$dead$ = 12					; size = 4
?_Construct@locale@std@@AAEXABV?$basic_string@DU?$char_traits@D@std@@V?$allocator@D@2@@2@H@Z PROC ; std::locale::_Construct, COMDAT
; _this$ = ecx

; 285  :     void _Construct(const string& _Str, category _Cat) {

	push	ebp
	mov	ebp, esp
	push	-1
	push	__ehhandler$?_Construct@locale@std@@AAEXABV?$basic_string@DU?$char_traits@D@std@@V?$allocator@D@2@@2@H@Z
	mov	eax, DWORD PTR fs:0
	push	eax
	sub	esp, 64					; 00000040H
	mov	eax, DWORD PTR ___security_cookie
	xor	eax, ebp
	mov	DWORD PTR __$ArrayPad$[ebp], eax
	push	ebx
	push	esi
	push	edi
	push	eax
	lea	eax, DWORD PTR __$EHRec$[ebp]
	mov	DWORD PTR fs:0, eax
	mov	ebx, ecx
	mov	edi, DWORD PTR __Str$[ebp]

; 286  :         // construct a locale with named facets
; 287  :         bool _Bad = false;
; 288  :         _Init();

	push	0
	mov	BYTE PTR __Bad$1$[ebp], 0
	call	DWORD PTR __imp_?_Init@locale@std@@CAPAV_Locimp@12@_N@Z

; 289  :         if (_Cat != none) { // worth adding, do it
; 290  :             _Facet_guard _Guard{_Ptr};

	mov	eax, DWORD PTR [ebx+4]
	add	esp, 4
	mov	DWORD PTR __Guard$10[ebp], eax
	mov	DWORD PTR __$EHRec$[ebp+8], 0
; File C:\Program Files (x86)\Microsoft Visual Studio\2019\Community\VC\Tools\MSVC\14.29.30133\include\xstring

; 2272 :         const value_type* _Result = _Bx._Buf;

	mov	eax, edi

; 2273 :         if (_Large_string_engaged()) {

	cmp	DWORD PTR [edi+20], 16			; 00000010H
	jb	SHORT $LN33@Construct

; 2274 :             _Result = _Unfancy(_Bx._Ptr);

	mov	eax, DWORD PTR [edi]
$LN33@Construct:
; File C:\Program Files (x86)\Microsoft Visual Studio\2019\Community\VC\Tools\MSVC\14.29.30133\include\xlocale

; 291  :             _BEGIN_LOCINFO(_Lobj(_Cat, _Str.c_str()))

	push	eax
	push	63					; 0000003fH
	lea	ecx, DWORD PTR __Lobj$11[ebp]
	call	DWORD PTR __imp_??0_Locinfo@std@@QAE@HPBD@Z

; 407  :         return _CSTD strcmp(_Lobj._Getname(), "*") == 0;

	lea	ecx, DWORD PTR __Lobj$11[ebp]

; 291  :             _BEGIN_LOCINFO(_Lobj(_Cat, _Str.c_str()))

	mov	BYTE PTR __$EHRec$[ebp+8], 1

; 407  :         return _CSTD strcmp(_Lobj._Getname(), "*") == 0;

	mov	esi, OFFSET ??_C@_01NBENCBCI@?$CK@
	call	DWORD PTR __imp_?_Getname@_Locinfo@std@@QBEPBDXZ
$LL34@Construct:
	mov	cl, BYTE PTR [eax]
	cmp	cl, BYTE PTR [esi]
	jne	SHORT $LN35@Construct
	test	cl, cl
	je	SHORT $LN36@Construct
	mov	cl, BYTE PTR [eax+1]
	cmp	cl, BYTE PTR [esi+1]
	jne	SHORT $LN35@Construct
	add	eax, 2
	add	esi, 2
	test	cl, cl
	jne	SHORT $LL34@Construct
$LN36@Construct:
	xor	eax, eax
	jmp	SHORT $LN37@Construct
$LN35@Construct:
	sbb	eax, eax
	or	eax, 1
$LN37@Construct:
	test	eax, eax

; 292  :             if (_Badname(_Lobj)) {

	jne	SHORT $LN3@Construct

; 293  :                 _Bad = true;

	mov	BYTE PTR __Bad$1$[ebp], 1

; 294  :             } else { // name okay, build the locale

	jmp	SHORT $LN4@Construct
$LN3@Construct:

; 295  :                 _Locimp::_Makeloc(_Lobj, _Cat, _Ptr, nullptr);

	push	0
	push	DWORD PTR [ebx+4]
	lea	eax, DWORD PTR __Lobj$11[ebp]
	push	63					; 0000003fH
	push	eax
	call	DWORD PTR __imp_?_Makeloc@_Locimp@locale@std@@CAPAV123@ABV_Locinfo@3@HPAV123@PBV23@@Z

; 296  :                 _Ptr->_Catmask = _Cat;

	mov	eax, DWORD PTR [ebx+4]
	add	esp, 16					; 00000010H
	mov	DWORD PTR [eax+16], 63			; 0000003fH
; File C:\Program Files (x86)\Microsoft Visual Studio\2019\Community\VC\Tools\MSVC\14.29.30133\include\xstring

; 2273 :         if (_Large_string_engaged()) {

	cmp	DWORD PTR [edi+20], 16			; 00000010H
	jb	SHORT $LN23@Construct

; 2274 :             _Result = _Unfancy(_Bx._Ptr);

	mov	edi, DWORD PTR [edi]
$LN23@Construct:
; File C:\Program Files (x86)\Microsoft Visual Studio\2019\Community\VC\Tools\MSVC\14.29.30133\include\xlocale

; 297  :                 _Ptr->_Name    = _Str.c_str();

	mov	ecx, DWORD PTR [ebx+4]
	push	edi
	add	ecx, 24					; 00000018H
	call	DWORD PTR __imp_??4?$_Yarn@D@std@@QAEAAV01@PBD@Z
$LN4@Construct:

; 298  :             }
; 299  :             _END_LOCINFO()

	lea	ecx, DWORD PTR __Lobj$11[ebp]
	call	DWORD PTR __imp_??1_Locinfo@std@@QAE@XZ

; 300  :             _Guard._Target = nullptr;
; 301  :         }
; 302  : 
; 303  :         if (_Bad) { // Don't throw within _BEGIN_LOCINFO if we can avoid it

	cmp	BYTE PTR __Bad$1$[ebp], 0
	mov	DWORD PTR __$EHRec$[ebp+8], -1
	je	SHORT $LN5@Construct

; 304  :             delete _Ptr->_Decref();

	mov	ecx, DWORD PTR [ebx+4]
	mov	eax, DWORD PTR [ecx]
	call	DWORD PTR [eax+8]
	test	eax, eax
	je	SHORT $LN7@Construct
	mov	edx, DWORD PTR [eax]
	mov	ecx, eax
	push	1
	call	DWORD PTR [edx]
$LN7@Construct:

; 305  :             _Xruntime_error("bad locale name");

	push	OFFSET ??_C@_0BA@ELKIONDK@bad?5locale?5name@
	call	DWORD PTR __imp_?_Xruntime_error@std@@YAXPBD@Z
$LN5@Construct:

; 306  :         }
; 307  :     }

	mov	ecx, DWORD PTR __$EHRec$[ebp]
	mov	DWORD PTR fs:0, ecx
	pop	ecx
	pop	edi
	pop	esi
	pop	ebx
	mov	ecx, DWORD PTR __$ArrayPad$[ebp]
	xor	ecx, ebp
	call	@__security_check_cookie@4
	mov	esp, ebp
	pop	ebp
	ret	8
$LN39@Construct:
_TEXT	ENDS
;	COMDAT text$x
text$x	SEGMENT
__unwindfunclet$?_Construct@locale@std@@AAEXABV?$basic_string@DU?$char_traits@D@std@@V?$allocator@D@2@@2@H@Z$0:
	lea	ecx, DWORD PTR __Guard$10[ebp]
	jmp	??1_Facet_guard@locale@std@@QAE@XZ	; std::locale::_Facet_guard::~_Facet_guard
__unwindfunclet$?_Construct@locale@std@@AAEXABV?$basic_string@DU?$char_traits@D@std@@V?$allocator@D@2@@2@H@Z$1:
	lea	ecx, DWORD PTR __Lobj$11[ebp]
	jmp	DWORD PTR __imp_??1_Locinfo@std@@QAE@XZ
	int	3
	int	3
	int	3
	int	3
	int	3
__ehhandler$?_Construct@locale@std@@AAEXABV?$basic_string@DU?$char_traits@D@std@@V?$allocator@D@2@@2@H@Z:
	npad	1
	npad	1
	mov	edx, DWORD PTR [esp+8]
	lea	eax, DWORD PTR [edx+12]
	mov	ecx, DWORD PTR [edx-80]
	xor	ecx, eax
	call	@__security_check_cookie@4
	mov	ecx, DWORD PTR [edx-4]
	xor	ecx, eax
	call	@__security_check_cookie@4
	mov	eax, OFFSET __ehfuncinfo$?_Construct@locale@std@@AAEXABV?$basic_string@DU?$char_traits@D@std@@V?$allocator@D@2@@2@H@Z
	jmp	___CxxFrameHandler3
text$x	ENDS
?_Construct@locale@std@@AAEXABV?$basic_string@DU?$char_traits@D@std@@V?$allocator@D@2@@2@H@Z ENDP ; std::locale::_Construct
; Function compile flags: /Ogtp
; File C:\Program Files (x86)\Microsoft Visual Studio\2019\Community\VC\Tools\MSVC\14.29.30133\include\xlocale
; File C:\Program Files (x86)\Microsoft Visual Studio\2019\Community\VC\Tools\MSVC\14.29.30133\include\xstring
; File C:\Program Files (x86)\Microsoft Visual Studio\2019\Community\VC\Tools\MSVC\14.29.30133\include\xlocale
; File C:\Program Files (x86)\Microsoft Visual Studio\2019\Community\VC\Tools\MSVC\14.29.30133\include\xstring
; File C:\Program Files (x86)\Microsoft Visual Studio\2019\Community\VC\Tools\MSVC\14.29.30133\include\xlocale
; File C:\Program Files (x86)\Microsoft Visual Studio\2019\Community\VC\Tools\MSVC\14.29.30133\include\xstring
; File C:\Program Files (x86)\Microsoft Visual Studio\2019\Community\VC\Tools\MSVC\14.29.30133\include\xlocale
; File C:\Program Files (x86)\Microsoft Visual Studio\2019\Community\VC\Tools\MSVC\14.29.30133\include\xstring
; File C:\Program Files (x86)\Microsoft Visual Studio\2019\Community\VC\Tools\MSVC\14.29.30133\include\xlocale
; File C:\Program Files (x86)\Microsoft Visual Studio\2019\Community\VC\Tools\MSVC\14.29.30133\include\xstring
; File C:\Program Files (x86)\Microsoft Visual Studio\2019\Community\VC\Tools\MSVC\14.29.30133\include\xlocale
; File C:\Program Files (x86)\Microsoft Visual Studio\2019\Community\VC\Tools\MSVC\14.29.30133\include\xstring
; File C:\Program Files (x86)\Microsoft Visual Studio\2019\Community\VC\Tools\MSVC\14.29.30133\include\xlocale
; File C:\Program Files (x86)\Microsoft Visual Studio\2019\Community\VC\Tools\MSVC\14.29.30133\include\xstring
; File C:\Program Files (x86)\Microsoft Visual Studio\2019\Community\VC\Tools\MSVC\14.29.30133\include\xmemory
; File C:\Program Files (x86)\Microsoft Visual Studio\2019\Community\VC\Tools\MSVC\14.29.30133\include\xstring
; File C:\Program Files (x86)\Microsoft Visual Studio\2019\Community\VC\Tools\MSVC\14.29.30133\include\xmemory
; File C:\Program Files (x86)\Microsoft Visual Studio\2019\Community\VC\Tools\MSVC\14.29.30133\include\xlocale
;	COMDAT ??0locale@std@@QAE@PBDH@Z
_TEXT	SEGMENT
__Guard$15 = -96					; size = 4
$T1 = -92						; size = 24
__Lobj$16 = -68						; size = 52
__$ArrayPad$ = -16					; size = 4
__$EHRec$ = -12						; size = 12
__Locname$dead$ = 8					; size = 4
__Cat$dead$ = 12					; size = 4
??0locale@std@@QAE@PBDH@Z PROC				; std::locale::locale, COMDAT
; _this$ = ecx

; 310  :     explicit locale(const char* _Locname, category _Cat = all) : _Ptr(_Locimp::_New_Locimp()) {

	push	ebp
	mov	ebp, esp
	push	-1
	push	__ehhandler$??0locale@std@@QAE@PBDH@Z
	mov	eax, DWORD PTR fs:0
	push	eax
	sub	esp, 84					; 00000054H
	mov	eax, DWORD PTR ___security_cookie
	xor	eax, ebp
	mov	DWORD PTR __$ArrayPad$[ebp], eax
	push	ebx
	push	esi
	push	edi
	push	eax
	lea	eax, DWORD PTR __$EHRec$[ebp]
	mov	DWORD PTR fs:0, eax
	mov	edi, ecx
	push	0
	call	DWORD PTR __imp_?_New_Locimp@_Locimp@locale@std@@CAPAV123@_N@Z
	add	esp, 4
; File C:\Program Files (x86)\Microsoft Visual Studio\2019\Community\VC\Tools\MSVC\14.29.30133\include\xstring

; 2313 :         _CONSTEXPR20_CONTAINER _Bxty() noexcept : _Ptr() {} // user-provided, for fancy pointers

	mov	DWORD PTR $T1[ebp], 0

; 3230 :         return assign(_Ptr, _Convert_size<size_type>(_Traits::length(_Ptr)));

	lea	ecx, DWORD PTR $T1[ebp]
; File C:\Program Files (x86)\Microsoft Visual Studio\2019\Community\VC\Tools\MSVC\14.29.30133\include\xlocale

; 310  :     explicit locale(const char* _Locname, category _Cat = all) : _Ptr(_Locimp::_New_Locimp()) {

	mov	DWORD PTR [edi+4], eax
; File C:\Program Files (x86)\Microsoft Visual Studio\2019\Community\VC\Tools\MSVC\14.29.30133\include\xstring

; 4562 :         _My_data._Mysize = 0;

	mov	DWORD PTR $T1[ebp+16], 0

; 4563 : 
; 4564 : #ifdef __cpp_lib_constexpr_string
; 4565 :         if (_STD is_constant_evaluated()) {
; 4566 :             _My_data._Myres        = _BUF_SIZE; // SSO disabled in constexpr context
; 4567 :             auto& _Al              = _Getal();
; 4568 :             const pointer _New_ptr = _Al.allocate(_BUF_SIZE + 1); // throws
; 4569 :             _My_data._Bx._Ptr      = _New_ptr;
; 4570 : 
; 4571 :             _Elem* const _Raw_new = _Unfancy(_New_ptr);
; 4572 :             _Traits::assign(_Raw_new, _BUF_SIZE + 1, _Elem());
; 4573 :         } else
; 4574 : #endif // __cpp_lib_constexpr_string
; 4575 :         {
; 4576 :             _My_data._Myres = _BUF_SIZE - 1;

	mov	DWORD PTR $T1[ebp+20], 15		; 0000000fH

; 3230 :         return assign(_Ptr, _Convert_size<size_type>(_Traits::length(_Ptr)));

	push	3
	push	OFFSET ??_C@_03LFPOMIKD@chs@

; 4578 :             _Traits::assign(_My_data._Bx._Buf[0], _Elem());

	mov	BYTE PTR $T1[ebp], 0

; 3230 :         return assign(_Ptr, _Convert_size<size_type>(_Traits::length(_Ptr)));

	call	?assign@?$basic_string@DU?$char_traits@D@std@@V?$allocator@D@2@@std@@QAEAAV12@QBDI@Z ; std::basic_string<char,std::char_traits<char>,std::allocator<char> >::assign
; File C:\Program Files (x86)\Microsoft Visual Studio\2019\Community\VC\Tools\MSVC\14.29.30133\include\xlocale

; 288  :         _Init();

	push	0

; 311  :         // construct a locale with named facets
; 312  :         // _Locname might have been returned from setlocale().
; 313  :         // Therefore, _Construct() takes const string&.
; 314  :         if (_Locname) {
; 315  :             _Construct(_Locname, _Cat);

	mov	DWORD PTR __$EHRec$[ebp+8], 0

; 287  :         bool _Bad = false;

	xor	bl, bl

; 288  :         _Init();

	call	DWORD PTR __imp_?_Init@locale@std@@CAPAV_Locimp@12@_N@Z

; 289  :         if (_Cat != none) { // worth adding, do it
; 290  :             _Facet_guard _Guard{_Ptr};

	mov	eax, DWORD PTR [edi+4]
	add	esp, 4
	mov	DWORD PTR __Guard$15[ebp], eax
	mov	BYTE PTR __$EHRec$[ebp+8], 1
; File C:\Program Files (x86)\Microsoft Visual Studio\2019\Community\VC\Tools\MSVC\14.29.30133\include\xstring

; 2272 :         const value_type* _Result = _Bx._Buf;

	lea	eax, DWORD PTR $T1[ebp]

; 2273 :         if (_Large_string_engaged()) {

	cmp	DWORD PTR $T1[ebp+20], 16		; 00000010H
; File C:\Program Files (x86)\Microsoft Visual Studio\2019\Community\VC\Tools\MSVC\14.29.30133\include\xlocale

; 291  :             _BEGIN_LOCINFO(_Lobj(_Cat, _Str.c_str()))

	lea	ecx, DWORD PTR __Lobj$16[ebp]
; File C:\Program Files (x86)\Microsoft Visual Studio\2019\Community\VC\Tools\MSVC\14.29.30133\include\xstring

; 2273 :         if (_Large_string_engaged()) {

	cmovae	eax, DWORD PTR $T1[ebp]
; File C:\Program Files (x86)\Microsoft Visual Studio\2019\Community\VC\Tools\MSVC\14.29.30133\include\xlocale

; 291  :             _BEGIN_LOCINFO(_Lobj(_Cat, _Str.c_str()))

	push	eax
	push	63					; 0000003fH
	call	DWORD PTR __imp_??0_Locinfo@std@@QAE@HPBD@Z

; 407  :         return _CSTD strcmp(_Lobj._Getname(), "*") == 0;

	lea	ecx, DWORD PTR __Lobj$16[ebp]

; 291  :             _BEGIN_LOCINFO(_Lobj(_Cat, _Str.c_str()))

	mov	BYTE PTR __$EHRec$[ebp+8], 2

; 407  :         return _CSTD strcmp(_Lobj._Getname(), "*") == 0;

	mov	esi, OFFSET ??_C@_01NBENCBCI@?$CK@
	call	DWORD PTR __imp_?_Getname@_Locinfo@std@@QBEPBDXZ
	npad	6
$LL80@locale:
	mov	cl, BYTE PTR [eax]
	cmp	cl, BYTE PTR [esi]
	jne	SHORT $LN81@locale
	test	cl, cl
	je	SHORT $LN82@locale
	mov	cl, BYTE PTR [eax+1]
	cmp	cl, BYTE PTR [esi+1]
	jne	SHORT $LN81@locale
	add	eax, 2
	add	esi, 2
	test	cl, cl
	jne	SHORT $LL80@locale
$LN82@locale:
	xor	eax, eax
	jmp	SHORT $LN83@locale
$LN81@locale:
	sbb	eax, eax
	or	eax, 1
$LN83@locale:
	test	eax, eax

; 292  :             if (_Badname(_Lobj)) {

	jne	SHORT $LN23@locale

; 293  :                 _Bad = true;

	mov	bl, 1

; 294  :             } else { // name okay, build the locale

	jmp	SHORT $LN24@locale
$LN23@locale:

; 295  :                 _Locimp::_Makeloc(_Lobj, _Cat, _Ptr, nullptr);

	push	0
	push	DWORD PTR [edi+4]
	lea	eax, DWORD PTR __Lobj$16[ebp]
	push	63					; 0000003fH
	push	eax
	call	DWORD PTR __imp_?_Makeloc@_Locimp@locale@std@@CAPAV123@ABV_Locinfo@3@HPAV123@PBV23@@Z

; 296  :                 _Ptr->_Catmask = _Cat;

	mov	eax, DWORD PTR [edi+4]
	add	esp, 16					; 00000010H
	mov	DWORD PTR [eax+16], 63			; 0000003fH
; File C:\Program Files (x86)\Microsoft Visual Studio\2019\Community\VC\Tools\MSVC\14.29.30133\include\xstring

; 2272 :         const value_type* _Result = _Bx._Buf;

	lea	eax, DWORD PTR $T1[ebp]

; 2273 :         if (_Large_string_engaged()) {

	cmp	DWORD PTR $T1[ebp+20], 16		; 00000010H
; File C:\Program Files (x86)\Microsoft Visual Studio\2019\Community\VC\Tools\MSVC\14.29.30133\include\xlocale

; 297  :                 _Ptr->_Name    = _Str.c_str();

	mov	ecx, DWORD PTR [edi+4]
; File C:\Program Files (x86)\Microsoft Visual Studio\2019\Community\VC\Tools\MSVC\14.29.30133\include\xstring

; 2273 :         if (_Large_string_engaged()) {

	cmovae	eax, DWORD PTR $T1[ebp]
; File C:\Program Files (x86)\Microsoft Visual Studio\2019\Community\VC\Tools\MSVC\14.29.30133\include\xlocale

; 297  :                 _Ptr->_Name    = _Str.c_str();

	add	ecx, 24					; 00000018H
	push	eax
	call	DWORD PTR __imp_??4?$_Yarn@D@std@@QAEAAV01@PBD@Z
$LN24@locale:

; 298  :             }
; 299  :             _END_LOCINFO()

	lea	ecx, DWORD PTR __Lobj$16[ebp]
	call	DWORD PTR __imp_??1_Locinfo@std@@QAE@XZ

; 300  :             _Guard._Target = nullptr;
; 301  :         }

	mov	BYTE PTR __$EHRec$[ebp+8], 0

; 302  : 
; 303  :         if (_Bad) { // Don't throw within _BEGIN_LOCINFO if we can avoid it

	test	bl, bl
	je	SHORT $LN25@locale

; 304  :             delete _Ptr->_Decref();

	mov	ecx, DWORD PTR [edi+4]
	mov	eax, DWORD PTR [ecx]
	call	DWORD PTR [eax+8]
	mov	ecx, eax
	test	ecx, ecx
	je	SHORT $LN27@locale
	mov	eax, DWORD PTR [ecx]
	push	1
	call	DWORD PTR [eax]
$LN27@locale:

; 305  :             _Xruntime_error("bad locale name");

	push	OFFSET ??_C@_0BA@ELKIONDK@bad?5locale?5name@
	call	DWORD PTR __imp_?_Xruntime_error@std@@YAXPBD@Z
$LN25@locale:
; File C:\Program Files (x86)\Microsoft Visual Studio\2019\Community\VC\Tools\MSVC\14.29.30133\include\xstring

; 2286 :         return _BUF_SIZE <= _Myres;

	mov	edx, DWORD PTR $T1[ebp+20]
	cmp	edx, 16					; 00000010H

; 4584 :         if (_Mypair._Myval2._Large_string_engaged()) {

	jb	SHORT $LN65@locale
; File C:\Program Files (x86)\Microsoft Visual Studio\2019\Community\VC\Tools\MSVC\14.29.30133\include\xmemory

; 797  :         _Deallocate<_New_alignof<_Ty>>(_Ptr, sizeof(_Ty) * _Count);

	mov	ecx, DWORD PTR $T1[ebp]
; File C:\Program Files (x86)\Microsoft Visual Studio\2019\Community\VC\Tools\MSVC\14.29.30133\include\xstring

; 4588 :             _Al.deallocate(_Ptr, _Mypair._Myval2._Myres + 1);

	inc	edx
; File C:\Program Files (x86)\Microsoft Visual Studio\2019\Community\VC\Tools\MSVC\14.29.30133\include\xmemory

; 797  :         _Deallocate<_New_alignof<_Ty>>(_Ptr, sizeof(_Ty) * _Count);

	mov	eax, ecx

; 251  :         if (_Bytes >= _Big_allocation_threshold) { // boost the alignment of big allocations to help autovectorization

	cmp	edx, 4096				; 00001000H
	jb	SHORT $LN75@locale

; 150  :     const uintptr_t _Ptr_container   = _Ptr_user[-1];

	mov	ecx, DWORD PTR [ecx-4]
	add	edx, 35					; 00000023H
	sub	eax, ecx

; 151  : 
; 152  :     // If the following asserts, it likely means that we are performing
; 153  :     // an aligned delete on memory coming from an unaligned allocation.
; 154  :     _STL_ASSERT(_Ptr_user[-2] == _Big_allocation_sentinel, "invalid argument");
; 155  : 
; 156  :     // Extra paranoia on aligned allocation/deallocation; ensure _Ptr_container is
; 157  :     // in range [_Min_back_shift, _Non_user_size]
; 158  : #ifdef _DEBUG
; 159  :     constexpr uintptr_t _Min_back_shift = 2 * sizeof(void*);
; 160  : #else // ^^^ _DEBUG ^^^ // vvv !_DEBUG vvv
; 161  :     constexpr uintptr_t _Min_back_shift = sizeof(void*);
; 162  : #endif // _DEBUG
; 163  :     const uintptr_t _Back_shift = reinterpret_cast<uintptr_t>(_Ptr) - _Ptr_container;
; 164  :     _STL_VERIFY(_Back_shift >= _Min_back_shift && _Back_shift <= _Non_user_size, "invalid argument");

	add	eax, -4					; fffffffcH
	cmp	eax, 31					; 0000001fH
	jbe	SHORT $LN75@locale
	call	DWORD PTR __imp___invalid_parameter_noinfo_noreturn
$LN75@locale:

; 255  :         ::operator delete(_Ptr, _Bytes);

	push	edx
	push	ecx
	call	??3@YAXPAXI@Z				; operator delete
	add	esp, 8
$LN65@locale:
; File C:\Program Files (x86)\Microsoft Visual Studio\2019\Community\VC\Tools\MSVC\14.29.30133\include\xlocale

; 320  :     }

	mov	eax, edi
	mov	ecx, DWORD PTR __$EHRec$[ebp]
	mov	DWORD PTR fs:0, ecx
	pop	ecx
	pop	edi
	pop	esi
	pop	ebx
	mov	ecx, DWORD PTR __$ArrayPad$[ebp]
	xor	ecx, ebp
	call	@__security_check_cookie@4
	mov	esp, ebp
	pop	ebp
	ret	8
$LN85@locale:
_TEXT	ENDS
;	COMDAT text$x
text$x	SEGMENT
__unwindfunclet$??0locale@std@@QAE@PBDH@Z$0:
	lea	ecx, DWORD PTR $T1[ebp]
	jmp	??1?$basic_string@DU?$char_traits@D@std@@V?$allocator@D@2@@std@@QAE@XZ ; std::basic_string<char,std::char_traits<char>,std::allocator<char> >::~basic_string<char,std::char_traits<char>,std::allocator<char> >
__unwindfunclet$??0locale@std@@QAE@PBDH@Z$3:
	lea	ecx, DWORD PTR __Guard$15[ebp]
	jmp	??1_Facet_guard@locale@std@@QAE@XZ	; std::locale::_Facet_guard::~_Facet_guard
__unwindfunclet$??0locale@std@@QAE@PBDH@Z$4:
	lea	ecx, DWORD PTR __Lobj$16[ebp]
	jmp	DWORD PTR __imp_??1_Locinfo@std@@QAE@XZ
	int	3
	int	3
	int	3
	int	3
	int	3
__ehhandler$??0locale@std@@QAE@PBDH@Z:
	npad	1
	npad	1
	mov	edx, DWORD PTR [esp+8]
	lea	eax, DWORD PTR [edx+12]
	mov	ecx, DWORD PTR [edx-100]
	xor	ecx, eax
	call	@__security_check_cookie@4
	mov	ecx, DWORD PTR [edx-4]
	xor	ecx, eax
	call	@__security_check_cookie@4
	mov	eax, OFFSET __ehfuncinfo$??0locale@std@@QAE@PBDH@Z
	jmp	___CxxFrameHandler3
text$x	ENDS
??0locale@std@@QAE@PBDH@Z ENDP				; std::locale::locale
; Function compile flags: /Ogtp
; File C:\Program Files (x86)\Microsoft Visual Studio\2019\Community\VC\Tools\MSVC\14.29.30133\include\xlocale
;	COMDAT ??1locale@std@@QAE@XZ
_TEXT	SEGMENT
??1locale@std@@QAE@XZ PROC				; std::locale::~locale, COMDAT
; _this$ = ecx

; 346  :         if (_Ptr) {

	mov	ecx, DWORD PTR [ecx+4]
	test	ecx, ecx
	je	SHORT $LN4@locale

; 347  :             delete _Ptr->_Decref();

	mov	eax, DWORD PTR [ecx]
	call	DWORD PTR [eax+8]
	test	eax, eax
	je	SHORT $LN4@locale
	mov	edx, DWORD PTR [eax]
	mov	ecx, eax
	push	1
	call	DWORD PTR [edx]
$LN4@locale:

; 348  :         }
; 349  :     }

	ret	0
??1locale@std@@QAE@XZ ENDP				; std::locale::~locale
_TEXT	ENDS
; Function compile flags: /Ogtp
; File C:\Program Files (x86)\Microsoft Visual Studio\2019\Community\VC\Tools\MSVC\14.29.30133\include\xlocale
;	COMDAT ?_Badname@locale@std@@AAE_NABV_Locinfo@2@@Z
_TEXT	SEGMENT
__Lobj$ = 8						; size = 4
?_Badname@locale@std@@AAE_NABV_Locinfo@2@@Z PROC	; std::locale::_Badname, COMDAT
; _this$dead$ = ecx

; 406  :     bool _Badname(const _Locinfo& _Lobj) { // test if name is "*"

	push	ebp
	mov	ebp, esp

; 407  :         return _CSTD strcmp(_Lobj._Getname(), "*") == 0;

	mov	ecx, DWORD PTR __Lobj$[ebp]
	push	esi
	mov	esi, OFFSET ??_C@_01NBENCBCI@?$CK@
	call	DWORD PTR __imp_?_Getname@_Locinfo@std@@QBEPBDXZ
$LL3@Badname:
	mov	cl, BYTE PTR [eax]
	cmp	cl, BYTE PTR [esi]
	jne	SHORT $LN4@Badname
	test	cl, cl
	je	SHORT $LN5@Badname
	mov	cl, BYTE PTR [eax+1]
	cmp	cl, BYTE PTR [esi+1]
	jne	SHORT $LN4@Badname
	add	eax, 2
	add	esi, 2
	test	cl, cl
	jne	SHORT $LL3@Badname
$LN5@Badname:
	xor	eax, eax
	test	eax, eax
	pop	esi
	sete	al

; 408  :     }

	pop	ebp
	ret	4
$LN4@Badname:

; 407  :         return _CSTD strcmp(_Lobj._Getname(), "*") == 0;

	sbb	eax, eax
	or	eax, 1
	test	eax, eax
	pop	esi
	sete	al

; 408  :     }

	pop	ebp
	ret	4
?_Badname@locale@std@@AAE_NABV_Locinfo@2@@Z ENDP	; std::locale::_Badname
_TEXT	ENDS
; Function compile flags: /Ogtp
; File C:\dev\StringLiterals\StringLiterals\src\main.cpp
; File C:\Program Files (x86)\Microsoft Visual Studio\2019\Community\VC\Tools\MSVC\14.29.30133\include\xstring
; File C:\dev\StringLiterals\StringLiterals\src\main.cpp
; File C:\Program Files (x86)\Microsoft Visual Studio\2019\Community\VC\Tools\MSVC\14.29.30133\include\xstring
; File C:\dev\StringLiterals\StringLiterals\src\main.cpp
; File C:\Program Files (x86)\Microsoft Visual Studio\2019\Community\VC\Tools\MSVC\14.29.30133\include\xstring
; File C:\Program Files (x86)\Microsoft Visual Studio\2019\Community\VC\Tools\MSVC\14.29.30133\include\xmemory
; File C:\Program Files (x86)\Microsoft Visual Studio\2019\Community\VC\Tools\MSVC\14.29.30133\include\xstring
; File C:\Program Files (x86)\Microsoft Visual Studio\2019\Community\VC\Tools\MSVC\14.29.30133\include\xmemory
; File C:\Program Files (x86)\Microsoft Visual Studio\2019\Community\VC\Tools\MSVC\14.29.30133\include\xstring
; File C:\dev\StringLiterals\StringLiterals\src\main.cpp
; File C:\Program Files (x86)\Microsoft Visual Studio\2019\Community\VC\Tools\MSVC\14.29.30133\include\xstring
; File C:\dev\StringLiterals\StringLiterals\src\main.cpp
; File C:\Program Files (x86)\Microsoft Visual Studio\2019\Community\VC\Tools\MSVC\14.29.30133\include\xstring
; File C:\Program Files (x86)\Microsoft Visual Studio\2019\Community\VC\Tools\MSVC\14.29.30133\include\xmemory
; File C:\Program Files (x86)\Microsoft Visual Studio\2019\Community\VC\Tools\MSVC\14.29.30133\include\xstring
; File C:\dev\StringLiterals\StringLiterals\src\main.cpp
; File C:\Program Files (x86)\Microsoft Visual Studio\2019\Community\VC\Tools\MSVC\14.29.30133\include\xstring
; File C:\dev\StringLiterals\StringLiterals\src\main.cpp
; File C:\Program Files (x86)\Microsoft Visual Studio\2019\Community\VC\Tools\MSVC\14.29.30133\include\xstring
; File C:\Program Files (x86)\Microsoft Visual Studio\2019\Community\VC\Tools\MSVC\14.29.30133\include\xmemory
; File C:\Program Files (x86)\Microsoft Visual Studio\2019\Community\VC\Tools\MSVC\14.29.30133\include\xstring
; File C:\Program Files (x86)\Microsoft Visual Studio\2019\Community\VC\Tools\MSVC\14.29.30133\include\xmemory
; File C:\Program Files (x86)\Microsoft Visual Studio\2019\Community\VC\Tools\MSVC\14.29.30133\include\xstring
; File C:\Program Files (x86)\Microsoft Visual Studio\2019\Community\VC\Tools\MSVC\14.29.30133\include\xmemory
; File C:\Program Files (x86)\Microsoft Visual Studio\2019\Community\VC\Tools\MSVC\14.29.30133\include\xstring
; File C:\Program Files (x86)\Microsoft Visual Studio\2019\Community\VC\Tools\MSVC\14.29.30133\include\xmemory
; File C:\Program Files (x86)\Microsoft Visual Studio\2019\Community\VC\Tools\MSVC\14.29.30133\include\xstring
; File C:\Program Files (x86)\Microsoft Visual Studio\2019\Community\VC\Tools\MSVC\14.29.30133\include\xmemory
; File C:\Program Files (x86)\Microsoft Visual Studio\2019\Community\VC\Tools\MSVC\14.29.30133\include\xstring
; File C:\dev\StringLiterals\StringLiterals\src\main.cpp
; File C:\Program Files (x86)\Microsoft Visual Studio\2019\Community\VC\Tools\MSVC\14.29.30133\include\xstring
; File C:\dev\StringLiterals\StringLiterals\src\main.cpp
; File C:\Program Files (x86)\Microsoft Visual Studio\2019\Community\VC\Tools\MSVC\14.29.30133\include\xstring
; File C:\Program Files (x86)\Microsoft Visual Studio\2019\Community\VC\Tools\MSVC\14.29.30133\include\xmemory
; File C:\Program Files (x86)\Microsoft Visual Studio\2019\Community\VC\Tools\MSVC\14.29.30133\include\xstring
; File C:\dev\StringLiterals\StringLiterals\src\main.cpp
; File C:\Program Files (x86)\Microsoft Visual Studio\2019\Community\VC\Tools\MSVC\14.29.30133\include\xstring
; File C:\dev\StringLiterals\StringLiterals\src\main.cpp
; File C:\Program Files (x86)\Microsoft Visual Studio\2019\Community\VC\Tools\MSVC\14.29.30133\include\xlocale
; File C:\Program Files (x86)\Microsoft Visual Studio\2019\Community\VC\Tools\MSVC\14.29.30133\include\xstring
; File C:\Program Files (x86)\Microsoft Visual Studio\2019\Community\VC\Tools\MSVC\14.29.30133\include\xlocale
; File C:\Program Files (x86)\Microsoft Visual Studio\2019\Community\VC\Tools\MSVC\14.29.30133\include\xstring
; File C:\Program Files (x86)\Microsoft Visual Studio\2019\Community\VC\Tools\MSVC\14.29.30133\include\xlocale
; File C:\Program Files (x86)\Microsoft Visual Studio\2019\Community\VC\Tools\MSVC\14.29.30133\include\xstring
; File C:\Program Files (x86)\Microsoft Visual Studio\2019\Community\VC\Tools\MSVC\14.29.30133\include\xlocale
; File C:\Program Files (x86)\Microsoft Visual Studio\2019\Community\VC\Tools\MSVC\14.29.30133\include\xstring
; File C:\Program Files (x86)\Microsoft Visual Studio\2019\Community\VC\Tools\MSVC\14.29.30133\include\xlocale
; File C:\Program Files (x86)\Microsoft Visual Studio\2019\Community\VC\Tools\MSVC\14.29.30133\include\xstring
; File C:\Program Files (x86)\Microsoft Visual Studio\2019\Community\VC\Tools\MSVC\14.29.30133\include\xlocale
; File C:\Program Files (x86)\Microsoft Visual Studio\2019\Community\VC\Tools\MSVC\14.29.30133\include\xstring
; File C:\Program Files (x86)\Microsoft Visual Studio\2019\Community\VC\Tools\MSVC\14.29.30133\include\xlocale
; File C:\Program Files (x86)\Microsoft Visual Studio\2019\Community\VC\Tools\MSVC\14.29.30133\include\xstring
; File C:\Program Files (x86)\Microsoft Visual Studio\2019\Community\VC\Tools\MSVC\14.29.30133\include\xmemory
; File C:\Program Files (x86)\Microsoft Visual Studio\2019\Community\VC\Tools\MSVC\14.29.30133\include\xstring
; File C:\Program Files (x86)\Microsoft Visual Studio\2019\Community\VC\Tools\MSVC\14.29.30133\include\xmemory
; File C:\Program Files (x86)\Microsoft Visual Studio\2019\Community\VC\Tools\MSVC\14.29.30133\include\xstring
; File C:\dev\StringLiterals\StringLiterals\src\main.cpp
; File C:\Program Files (x86)\Microsoft Visual Studio\2019\Community\VC\Tools\MSVC\14.29.30133\include\xlocale
; File C:\dev\StringLiterals\StringLiterals\src\main.cpp
; File C:\Program Files (x86)\Microsoft Visual Studio\2019\Community\VC\Tools\MSVC\14.29.30133\include\xlocale
; File C:\Program Files (x86)\Microsoft Visual Studio\2019\Community\VC\Tools\MSVC\14.29.30133\include\xstring
; File C:\dev\StringLiterals\StringLiterals\src\main.cpp
; File C:\Program Files (x86)\Microsoft Visual Studio\2019\Community\VC\Tools\MSVC\14.29.30133\include\xstring
; File C:\dev\StringLiterals\StringLiterals\src\main.cpp
; File C:\Program Files (x86)\Microsoft Visual Studio\2019\Community\VC\Tools\MSVC\14.29.30133\include\xstring
; File C:\dev\StringLiterals\StringLiterals\src\main.cpp
; File C:\Program Files (x86)\Microsoft Visual Studio\2019\Community\VC\Tools\MSVC\14.29.30133\include\xstring
; File C:\dev\StringLiterals\StringLiterals\src\main.cpp
; File C:\Program Files (x86)\Microsoft Visual Studio\2019\Community\VC\Tools\MSVC\14.29.30133\include\xstring
; File C:\Program Files (x86)\Microsoft Visual Studio\2019\Community\VC\Tools\MSVC\14.29.30133\include\xmemory
; File C:\Program Files (x86)\Microsoft Visual Studio\2019\Community\VC\Tools\MSVC\14.29.30133\include\xstring
; File C:\Program Files (x86)\Microsoft Visual Studio\2019\Community\VC\Tools\MSVC\14.29.30133\include\xmemory
; File C:\Program Files (x86)\Microsoft Visual Studio\2019\Community\VC\Tools\MSVC\14.29.30133\include\xstring
; File C:\Program Files (x86)\Microsoft Visual Studio\2019\Community\VC\Tools\MSVC\14.29.30133\include\xmemory
; File C:\Program Files (x86)\Microsoft Visual Studio\2019\Community\VC\Tools\MSVC\14.29.30133\include\xstring
; File C:\Program Files (x86)\Microsoft Visual Studio\2019\Community\VC\Tools\MSVC\14.29.30133\include\xmemory
; File C:\Program Files (x86)\Microsoft Visual Studio\2019\Community\VC\Tools\MSVC\14.29.30133\include\xstring
; File C:\Program Files (x86)\Microsoft Visual Studio\2019\Community\VC\Tools\MSVC\14.29.30133\include\xmemory
; File C:\dev\StringLiterals\StringLiterals\src\main.cpp
;	COMDAT _main
_TEXT	SEGMENT
$T112 = -244						; size = 8
$T97 = -236						; size = 8
$T67 = -228						; size = 24
$T2 = -228						; size = 24
$T98 = -204						; size = 24
$T41 = -204						; size = 24
$T15 = -204						; size = 24
__Bad$1$ = -177						; size = 1
$T135 = -176						; size = 4
$T88 = -176						; size = 1
$T9 = -176						; size = 1
__Guard$136 = -176					; size = 4
__Lobj$137 = -172					; size = 52
_name02$ = -120						; size = 24
_name03$ = -96						; size = 24
_name00$ = -72						; size = 24
_name01$ = -48						; size = 24
_Name$ = -24						; size = 6
__$ArrayPad$ = -16					; size = 4
__$EHRec$ = -12						; size = 12
_main	PROC						; COMDAT

; 9    : {

	push	ebp
	mov	ebp, esp
	push	-1
	push	__ehhandler$_main
	mov	eax, DWORD PTR fs:0
	push	eax
	sub	esp, 232				; 000000e8H
	mov	eax, DWORD PTR ___security_cookie
	xor	eax, ebp
	mov	DWORD PTR __$ArrayPad$[ebp], eax
	push	esi
	push	edi
	push	eax
	lea	eax, DWORD PTR __$EHRec$[ebp]
	mov	DWORD PTR fs:0, eax
; File C:\Program Files (x86)\Microsoft Visual Studio\2019\Community\VC\Tools\MSVC\14.29.30133\include\xstring

; 2469 :         assign(_Ptr, _Count);

	push	5

; 2313 :         _CONSTEXPR20_CONTAINER _Bxty() noexcept : _Ptr() {} // user-provided, for fancy pointers

	mov	DWORD PTR $T2[ebp], 0

; 2469 :         assign(_Ptr, _Count);

	lea	ecx, DWORD PTR $T2[ebp]
	push	OFFSET ??_C@_05FBADLLFO@Ethan@

; 4562 :         _My_data._Mysize = 0;

	mov	DWORD PTR $T2[ebp+16], 0

; 4563 : 
; 4564 : #ifdef __cpp_lib_constexpr_string
; 4565 :         if (_STD is_constant_evaluated()) {
; 4566 :             _My_data._Myres        = _BUF_SIZE; // SSO disabled in constexpr context
; 4567 :             auto& _Al              = _Getal();
; 4568 :             const pointer _New_ptr = _Al.allocate(_BUF_SIZE + 1); // throws
; 4569 :             _My_data._Bx._Ptr      = _New_ptr;
; 4570 : 
; 4571 :             _Elem* const _Raw_new = _Unfancy(_New_ptr);
; 4572 :             _Traits::assign(_Raw_new, _BUF_SIZE + 1, _Elem());
; 4573 :         } else
; 4574 : #endif // __cpp_lib_constexpr_string
; 4575 :         {
; 4576 :             _My_data._Myres = _BUF_SIZE - 1;

	mov	DWORD PTR $T2[ebp+20], 15		; 0000000fH

; 4577 :             // the _Traits::assign is last so the codegen doesn't think the char write can alias this
; 4578 :             _Traits::assign(_My_data._Bx._Buf[0], _Elem());

	mov	BYTE PTR $T2[ebp], 0

; 2469 :         assign(_Ptr, _Count);

	call	?assign@?$basic_string@DU?$char_traits@D@std@@V?$allocator@D@2@@std@@QAEAAV12@QBDI@Z ; std::basic_string<char,std::char_traits<char>,std::allocator<char> >::assign
; File C:\dev\StringLiterals\StringLiterals\src\main.cpp

; 12   : 	std::string name00 = u8"Ethan"s + "00";

	mov	DWORD PTR __$EHRec$[ebp+8], 0
; File C:\Program Files (x86)\Microsoft Visual Studio\2019\Community\VC\Tools\MSVC\14.29.30133\include\xstring

; 3120 :         const size_type _Old_size = _Mypair._Myval2._Mysize;

	mov	edx, DWORD PTR $T2[ebp+20]
	mov	eax, edx
	mov	ecx, DWORD PTR $T2[ebp+16]
	sub	eax, ecx

; 3121 :         if (_Count <= _Mypair._Myval2._Myres - _Old_size) {

	cmp	eax, 2
	jb	SHORT $LN44@main

; 3122 :             _Mypair._Myval2._Mysize = _Old_size + _Count;

	lea	eax, DWORD PTR [ecx+2]

; 2264 :         if (_Large_string_engaged()) {

	cmp	edx, 16					; 00000010H

; 3122 :             _Mypair._Myval2._Mysize = _Old_size + _Count;

	mov	DWORD PTR $T2[ebp+16], eax

; 121  :         _CSTD memmove(_First1, _First2, _Count * sizeof(_Elem));

	mov	edx, 12336				; 00003030H

; 2263 :         value_type* _Result = _Bx._Buf;

	lea	eax, DWORD PTR $T2[ebp]

; 2264 :         if (_Large_string_engaged()) {

	cmovae	eax, DWORD PTR $T2[ebp]

; 121  :         _CSTD memmove(_First1, _First2, _Count * sizeof(_Elem));

	mov	WORD PTR [eax+ecx], dx

; 3125 :             _Traits::assign(_Old_ptr[_Old_size + _Count], _Elem());

	mov	BYTE PTR [eax+ecx+2], 0

; 3126 :             return *this;

	lea	eax, DWORD PTR $T2[ebp]
	jmp	SHORT $LN43@main
$LN44@main:

; 3127 :         }
; 3128 : 
; 3129 :         return _Reallocate_grow_by(

	push	2
	push	ecx
	mov	BYTE PTR $T9[ebp], 0
	lea	ecx, DWORD PTR $T2[ebp]
	push	DWORD PTR $T9[ebp]
	push	2
	call	??$_Reallocate_grow_by@V<lambda_ab246b20b9526e2ef7792587e4298a77>@@PBDI@?$basic_string@DU?$char_traits@D@std@@V?$allocator@D@2@@std@@AAEAAV01@IV<lambda_ab246b20b9526e2ef7792587e4298a77>@@PBDI@Z ; std::basic_string<char,std::char_traits<char>,std::allocator<char> >::_Reallocate_grow_by<<lambda_ab246b20b9526e2ef7792587e4298a77>,char const *,unsigned int>
$LN43@main:

; 2313 :         _CONSTEXPR20_CONTAINER _Bxty() noexcept : _Ptr() {} // user-provided, for fancy pointers

	mov	DWORD PTR _name00$[ebp], 0

; 2322 :     size_type _Mysize = 0; // current length of string

	mov	DWORD PTR _name00$[ebp+16], 0

; 2323 :     size_type _Myres  = 0; // current storage reserved for string

	mov	DWORD PTR _name00$[ebp+20], 0

; 2835 :         _CSTD memcpy(_My_data_mem, _Right_data_mem, _Memcpy_val_size);

	movups	xmm0, XMMWORD PTR [eax]
	movups	XMMWORD PTR _name00$[ebp], xmm0
	movq	xmm0, QWORD PTR [eax+16]
	movq	QWORD PTR _name00$[ebp+16], xmm0

; 4562 :         _My_data._Mysize = 0;

	mov	DWORD PTR [eax+16], 0

; 4563 : 
; 4564 : #ifdef __cpp_lib_constexpr_string
; 4565 :         if (_STD is_constant_evaluated()) {
; 4566 :             _My_data._Myres        = _BUF_SIZE; // SSO disabled in constexpr context
; 4567 :             auto& _Al              = _Getal();
; 4568 :             const pointer _New_ptr = _Al.allocate(_BUF_SIZE + 1); // throws
; 4569 :             _My_data._Bx._Ptr      = _New_ptr;
; 4570 : 
; 4571 :             _Elem* const _Raw_new = _Unfancy(_New_ptr);
; 4572 :             _Traits::assign(_Raw_new, _BUF_SIZE + 1, _Elem());
; 4573 :         } else
; 4574 : #endif // __cpp_lib_constexpr_string
; 4575 :         {
; 4576 :             _My_data._Myres = _BUF_SIZE - 1;

	mov	DWORD PTR [eax+20], 15			; 0000000fH

; 4577 :             // the _Traits::assign is last so the codegen doesn't think the char write can alias this
; 4578 :             _Traits::assign(_My_data._Bx._Buf[0], _Elem());

	mov	BYTE PTR [eax], 0
; File C:\dev\StringLiterals\StringLiterals\src\main.cpp

; 12   : 	std::string name00 = u8"Ethan"s + "00";

	mov	BYTE PTR __$EHRec$[ebp+8], 2
; File C:\Program Files (x86)\Microsoft Visual Studio\2019\Community\VC\Tools\MSVC\14.29.30133\include\xstring

; 4584 :         if (_Mypair._Myval2._Large_string_engaged()) {

	mov	edx, DWORD PTR $T2[ebp+20]
	cmp	edx, 16					; 00000010H
	jb	SHORT $LN90@main
; File C:\Program Files (x86)\Microsoft Visual Studio\2019\Community\VC\Tools\MSVC\14.29.30133\include\xmemory

; 797  :         _Deallocate<_New_alignof<_Ty>>(_Ptr, sizeof(_Ty) * _Count);

	mov	ecx, DWORD PTR $T2[ebp]
; File C:\Program Files (x86)\Microsoft Visual Studio\2019\Community\VC\Tools\MSVC\14.29.30133\include\xstring

; 4588 :             _Al.deallocate(_Ptr, _Mypair._Myval2._Myres + 1);

	inc	edx
; File C:\Program Files (x86)\Microsoft Visual Studio\2019\Community\VC\Tools\MSVC\14.29.30133\include\xmemory

; 797  :         _Deallocate<_New_alignof<_Ty>>(_Ptr, sizeof(_Ty) * _Count);

	mov	eax, ecx

; 251  :         if (_Bytes >= _Big_allocation_threshold) { // boost the alignment of big allocations to help autovectorization

	cmp	edx, 4096				; 00001000H
	jb	SHORT $LN100@main

; 150  :     const uintptr_t _Ptr_container   = _Ptr_user[-1];

	mov	ecx, DWORD PTR [ecx-4]
	add	edx, 35					; 00000023H
	sub	eax, ecx

; 151  : 
; 152  :     // If the following asserts, it likely means that we are performing
; 153  :     // an aligned delete on memory coming from an unaligned allocation.
; 154  :     _STL_ASSERT(_Ptr_user[-2] == _Big_allocation_sentinel, "invalid argument");
; 155  : 
; 156  :     // Extra paranoia on aligned allocation/deallocation; ensure _Ptr_container is
; 157  :     // in range [_Min_back_shift, _Non_user_size]
; 158  : #ifdef _DEBUG
; 159  :     constexpr uintptr_t _Min_back_shift = 2 * sizeof(void*);
; 160  : #else // ^^^ _DEBUG ^^^ // vvv !_DEBUG vvv
; 161  :     constexpr uintptr_t _Min_back_shift = sizeof(void*);
; 162  : #endif // _DEBUG
; 163  :     const uintptr_t _Back_shift = reinterpret_cast<uintptr_t>(_Ptr) - _Ptr_container;
; 164  :     _STL_VERIFY(_Back_shift >= _Min_back_shift && _Back_shift <= _Non_user_size, "invalid argument");

	add	eax, -4					; fffffffcH
	cmp	eax, 31					; 0000001fH
	jbe	SHORT $LN100@main
	call	DWORD PTR __imp___invalid_parameter_noinfo_noreturn
$LN100@main:

; 255  :         ::operator delete(_Ptr, _Bytes);

	push	edx
	push	ecx
	call	??3@YAXPAXI@Z				; operator delete
	add	esp, 8
$LN90@main:
; File C:\Program Files (x86)\Microsoft Visual Studio\2019\Community\VC\Tools\MSVC\14.29.30133\include\xstring

; 121  :         _CSTD memmove(_First1, _First2, _Count * sizeof(_Elem));

	mov	ax, WORD PTR ??_C@_1M@MIBHDLFD@?$AAE?$AAt?$AAh?$AAa?$AAn@+8

; 4576 :             _My_data._Myres = _BUF_SIZE - 1;

	mov	esi, 7

; 121  :         _CSTD memmove(_First1, _First2, _Count * sizeof(_Elem));

	movq	xmm0, QWORD PTR ??_C@_1M@MIBHDLFD@?$AAE?$AAt?$AAh?$AAa?$AAn@
	mov	WORD PTR $T15[ebp+8], ax

; 3216 :             _Traits::assign(_Old_ptr[_Count], _Elem());

	xor	eax, eax

; 4576 :             _My_data._Myres = _BUF_SIZE - 1;

	mov	DWORD PTR $T15[ebp+20], esi

; 3214 :             _Mypair._Myval2._Mysize = _Count;

	lea	edx, DWORD PTR [esi-2]

; 121  :         _CSTD memmove(_First1, _First2, _Count * sizeof(_Elem));

	movq	QWORD PTR $T15[ebp], xmm0

; 3216 :             _Traits::assign(_Old_ptr[_Count], _Elem());

	mov	WORD PTR $T15[ebp+10], ax
; File C:\dev\StringLiterals\StringLiterals\src\main.cpp

; 13   : 	std::wstring name01 = L"Ethan"s + L"01";

	mov	BYTE PTR __$EHRec$[ebp+8], 3
; File C:\Program Files (x86)\Microsoft Visual Studio\2019\Community\VC\Tools\MSVC\14.29.30133\include\xstring

; 2263 :         value_type* _Result = _Bx._Buf;

	lea	eax, DWORD PTR $T15[ebp]

; 3122 :             _Mypair._Myval2._Mysize = _Old_size + _Count;

	lea	ecx, DWORD PTR [edx+2]
	mov	DWORD PTR $T15[ebp+16], ecx

; 121  :         _CSTD memmove(_First1, _First2, _Count * sizeof(_Elem));

	mov	DWORD PTR [eax+edx*2], 3211312		; 00310030H

; 3125 :             _Traits::assign(_Old_ptr[_Old_size + _Count], _Elem());

	xor	edx, edx
	mov	WORD PTR [eax+ecx*2], dx

; 4578 :             _Traits::assign(_My_data._Bx._Buf[0], _Elem());

	xor	ecx, ecx

; 2313 :         _CONSTEXPR20_CONTAINER _Bxty() noexcept : _Ptr() {} // user-provided, for fancy pointers

	mov	DWORD PTR _name01$[ebp], edx

; 2322 :     size_type _Mysize = 0; // current length of string

	mov	DWORD PTR _name01$[ebp+16], edx

; 2323 :     size_type _Myres  = 0; // current storage reserved for string

	mov	DWORD PTR _name01$[ebp+20], edx

; 2835 :         _CSTD memcpy(_My_data_mem, _Right_data_mem, _Memcpy_val_size);

	movups	xmm0, XMMWORD PTR [eax]
	movups	XMMWORD PTR _name01$[ebp], xmm0
	movq	xmm0, QWORD PTR [eax+16]
	movq	QWORD PTR _name01$[ebp+16], xmm0

; 4562 :         _My_data._Mysize = 0;

	mov	DWORD PTR [eax+16], edx

; 4563 : 
; 4564 : #ifdef __cpp_lib_constexpr_string
; 4565 :         if (_STD is_constant_evaluated()) {
; 4566 :             _My_data._Myres        = _BUF_SIZE; // SSO disabled in constexpr context
; 4567 :             auto& _Al              = _Getal();
; 4568 :             const pointer _New_ptr = _Al.allocate(_BUF_SIZE + 1); // throws
; 4569 :             _My_data._Bx._Ptr      = _New_ptr;
; 4570 : 
; 4571 :             _Elem* const _Raw_new = _Unfancy(_New_ptr);
; 4572 :             _Traits::assign(_Raw_new, _BUF_SIZE + 1, _Elem());
; 4573 :         } else
; 4574 : #endif // __cpp_lib_constexpr_string
; 4575 :         {
; 4576 :             _My_data._Myres = _BUF_SIZE - 1;

	mov	DWORD PTR [eax+20], esi

; 4577 :             // the _Traits::assign is last so the codegen doesn't think the char write can alias this
; 4578 :             _Traits::assign(_My_data._Bx._Buf[0], _Elem());

	mov	WORD PTR [eax], cx
; File C:\dev\StringLiterals\StringLiterals\src\main.cpp

; 13   : 	std::wstring name01 = L"Ethan"s + L"01";

	mov	BYTE PTR __$EHRec$[ebp+8], 5
; File C:\Program Files (x86)\Microsoft Visual Studio\2019\Community\VC\Tools\MSVC\14.29.30133\include\xstring

; 4584 :         if (_Mypair._Myval2._Large_string_engaged()) {

	mov	edx, DWORD PTR $T15[ebp+20]
	cmp	edx, 8
	jb	SHORT $LN249@main
; File C:\Program Files (x86)\Microsoft Visual Studio\2019\Community\VC\Tools\MSVC\14.29.30133\include\xmemory

; 797  :         _Deallocate<_New_alignof<_Ty>>(_Ptr, sizeof(_Ty) * _Count);

	mov	ecx, DWORD PTR $T15[ebp]
	lea	edx, DWORD PTR [edx*2+2]
	mov	eax, ecx

; 251  :         if (_Bytes >= _Big_allocation_threshold) { // boost the alignment of big allocations to help autovectorization

	cmp	edx, 4096				; 00001000H
	jb	SHORT $LN259@main

; 150  :     const uintptr_t _Ptr_container   = _Ptr_user[-1];

	mov	ecx, DWORD PTR [ecx-4]
	add	edx, 35					; 00000023H
	sub	eax, ecx

; 151  : 
; 152  :     // If the following asserts, it likely means that we are performing
; 153  :     // an aligned delete on memory coming from an unaligned allocation.
; 154  :     _STL_ASSERT(_Ptr_user[-2] == _Big_allocation_sentinel, "invalid argument");
; 155  : 
; 156  :     // Extra paranoia on aligned allocation/deallocation; ensure _Ptr_container is
; 157  :     // in range [_Min_back_shift, _Non_user_size]
; 158  : #ifdef _DEBUG
; 159  :     constexpr uintptr_t _Min_back_shift = 2 * sizeof(void*);
; 160  : #else // ^^^ _DEBUG ^^^ // vvv !_DEBUG vvv
; 161  :     constexpr uintptr_t _Min_back_shift = sizeof(void*);
; 162  : #endif // _DEBUG
; 163  :     const uintptr_t _Back_shift = reinterpret_cast<uintptr_t>(_Ptr) - _Ptr_container;
; 164  :     _STL_VERIFY(_Back_shift >= _Min_back_shift && _Back_shift <= _Non_user_size, "invalid argument");

	add	eax, -4					; fffffffcH
	cmp	eax, 31					; 0000001fH
	jbe	SHORT $LN259@main
	call	DWORD PTR __imp___invalid_parameter_noinfo_noreturn
$LN259@main:

; 255  :         ::operator delete(_Ptr, _Bytes);

	push	edx
	push	ecx
	call	??3@YAXPAXI@Z				; operator delete
	add	esp, 8
$LN249@main:
; File C:\Program Files (x86)\Microsoft Visual Studio\2019\Community\VC\Tools\MSVC\14.29.30133\include\xstring

; 121  :         _CSTD memmove(_First1, _First2, _Count * sizeof(_Elem));

	mov	ax, WORD PTR ??_C@_1M@MIBHDLFD@?$AAE?$AAt?$AAh?$AAa?$AAn@+8

; 4576 :             _My_data._Myres = _BUF_SIZE - 1;

	mov	esi, 7

; 121  :         _CSTD memmove(_First1, _First2, _Count * sizeof(_Elem));

	movq	xmm0, QWORD PTR ??_C@_1M@MIBHDLFD@?$AAE?$AAt?$AAh?$AAa?$AAn@
	mov	WORD PTR $T41[ebp+8], ax

; 3216 :             _Traits::assign(_Old_ptr[_Count], _Elem());

	xor	eax, eax

; 4576 :             _My_data._Myres = _BUF_SIZE - 1;

	mov	DWORD PTR $T41[ebp+20], esi

; 3214 :             _Mypair._Myval2._Mysize = _Count;

	lea	edx, DWORD PTR [esi-2]

; 121  :         _CSTD memmove(_First1, _First2, _Count * sizeof(_Elem));

	movq	QWORD PTR $T41[ebp], xmm0

; 3216 :             _Traits::assign(_Old_ptr[_Count], _Elem());

	mov	WORD PTR $T41[ebp+10], ax
; File C:\dev\StringLiterals\StringLiterals\src\main.cpp

; 14   : 	std::u16string name02 = u"Ethan"s + u"02";

	mov	BYTE PTR __$EHRec$[ebp+8], 6
; File C:\Program Files (x86)\Microsoft Visual Studio\2019\Community\VC\Tools\MSVC\14.29.30133\include\xstring

; 2263 :         value_type* _Result = _Bx._Buf;

	lea	eax, DWORD PTR $T41[ebp]

; 3122 :             _Mypair._Myval2._Mysize = _Old_size + _Count;

	lea	ecx, DWORD PTR [edx+2]
	mov	DWORD PTR $T41[ebp+16], ecx

; 121  :         _CSTD memmove(_First1, _First2, _Count * sizeof(_Elem));

	mov	DWORD PTR [eax+edx*2], 3276848		; 00320030H

; 3125 :             _Traits::assign(_Old_ptr[_Old_size + _Count], _Elem());

	xor	edx, edx
	mov	WORD PTR [eax+ecx*2], dx

; 4578 :             _Traits::assign(_My_data._Bx._Buf[0], _Elem());

	xor	ecx, ecx

; 2835 :         _CSTD memcpy(_My_data_mem, _Right_data_mem, _Memcpy_val_size);

	movups	xmm0, XMMWORD PTR [eax]
	movups	XMMWORD PTR _name02$[ebp], xmm0
	movq	xmm0, QWORD PTR [eax+16]
	movq	QWORD PTR _name02$[ebp+16], xmm0

; 4562 :         _My_data._Mysize = 0;

	mov	DWORD PTR [eax+16], edx

; 4563 : 
; 4564 : #ifdef __cpp_lib_constexpr_string
; 4565 :         if (_STD is_constant_evaluated()) {
; 4566 :             _My_data._Myres        = _BUF_SIZE; // SSO disabled in constexpr context
; 4567 :             auto& _Al              = _Getal();
; 4568 :             const pointer _New_ptr = _Al.allocate(_BUF_SIZE + 1); // throws
; 4569 :             _My_data._Bx._Ptr      = _New_ptr;
; 4570 : 
; 4571 :             _Elem* const _Raw_new = _Unfancy(_New_ptr);
; 4572 :             _Traits::assign(_Raw_new, _BUF_SIZE + 1, _Elem());
; 4573 :         } else
; 4574 : #endif // __cpp_lib_constexpr_string
; 4575 :         {
; 4576 :             _My_data._Myres = _BUF_SIZE - 1;

	mov	DWORD PTR [eax+20], esi

; 4577 :             // the _Traits::assign is last so the codegen doesn't think the char write can alias this
; 4578 :             _Traits::assign(_My_data._Bx._Buf[0], _Elem());

	mov	WORD PTR [eax], cx
; File C:\dev\StringLiterals\StringLiterals\src\main.cpp

; 14   : 	std::u16string name02 = u"Ethan"s + u"02";

	mov	BYTE PTR __$EHRec$[ebp+8], 8
; File C:\Program Files (x86)\Microsoft Visual Studio\2019\Community\VC\Tools\MSVC\14.29.30133\include\xstring

; 4584 :         if (_Mypair._Myval2._Large_string_engaged()) {

	mov	edx, DWORD PTR $T41[ebp+20]
	cmp	edx, 8
	jb	SHORT $LN407@main
; File C:\Program Files (x86)\Microsoft Visual Studio\2019\Community\VC\Tools\MSVC\14.29.30133\include\xmemory

; 797  :         _Deallocate<_New_alignof<_Ty>>(_Ptr, sizeof(_Ty) * _Count);

	mov	ecx, DWORD PTR $T41[ebp]
	lea	edx, DWORD PTR [edx*2+2]
	mov	eax, ecx

; 251  :         if (_Bytes >= _Big_allocation_threshold) { // boost the alignment of big allocations to help autovectorization

	cmp	edx, 4096				; 00001000H
	jb	SHORT $LN417@main

; 150  :     const uintptr_t _Ptr_container   = _Ptr_user[-1];

	mov	ecx, DWORD PTR [ecx-4]
	add	edx, 35					; 00000023H
	sub	eax, ecx

; 151  : 
; 152  :     // If the following asserts, it likely means that we are performing
; 153  :     // an aligned delete on memory coming from an unaligned allocation.
; 154  :     _STL_ASSERT(_Ptr_user[-2] == _Big_allocation_sentinel, "invalid argument");
; 155  : 
; 156  :     // Extra paranoia on aligned allocation/deallocation; ensure _Ptr_container is
; 157  :     // in range [_Min_back_shift, _Non_user_size]
; 158  : #ifdef _DEBUG
; 159  :     constexpr uintptr_t _Min_back_shift = 2 * sizeof(void*);
; 160  : #else // ^^^ _DEBUG ^^^ // vvv !_DEBUG vvv
; 161  :     constexpr uintptr_t _Min_back_shift = sizeof(void*);
; 162  : #endif // _DEBUG
; 163  :     const uintptr_t _Back_shift = reinterpret_cast<uintptr_t>(_Ptr) - _Ptr_container;
; 164  :     _STL_VERIFY(_Back_shift >= _Min_back_shift && _Back_shift <= _Non_user_size, "invalid argument");

	add	eax, -4					; fffffffcH
	cmp	eax, 31					; 0000001fH
	jbe	SHORT $LN417@main
	call	DWORD PTR __imp___invalid_parameter_noinfo_noreturn
$LN417@main:

; 255  :         ::operator delete(_Ptr, _Bytes);

	push	edx
	push	ecx
	call	??3@YAXPAXI@Z				; operator delete
	add	esp, 8
$LN407@main:
; File C:\Program Files (x86)\Microsoft Visual Studio\2019\Community\VC\Tools\MSVC\14.29.30133\include\xstring

; 4602 :             _Traits::assign(_Mypair._Myval2._Bx._Buf[0], _Elem());

	xor	eax, eax
	mov	DWORD PTR $T41[ebp+16], 0
; File C:\Program Files (x86)\Microsoft Visual Studio\2019\Community\VC\Tools\MSVC\14.29.30133\include\xmemory

; 79   :         return ::operator new(_Bytes);

	push	32					; 00000020H
; File C:\Program Files (x86)\Microsoft Visual Studio\2019\Community\VC\Tools\MSVC\14.29.30133\include\xstring

; 4600 :             _Mypair._Myval2._Myres  = _BUF_SIZE - 1;

	mov	DWORD PTR $T41[ebp+20], 7

; 4602 :             _Traits::assign(_Mypair._Myval2._Bx._Buf[0], _Elem());

	mov	WORD PTR $T41[ebp], ax

; 4562 :         _My_data._Mysize = 0;

	mov	DWORD PTR $T67[ebp+16], eax

; 4563 : 
; 4564 : #ifdef __cpp_lib_constexpr_string
; 4565 :         if (_STD is_constant_evaluated()) {
; 4566 :             _My_data._Myres        = _BUF_SIZE; // SSO disabled in constexpr context
; 4567 :             auto& _Al              = _Getal();
; 4568 :             const pointer _New_ptr = _Al.allocate(_BUF_SIZE + 1); // throws
; 4569 :             _My_data._Bx._Ptr      = _New_ptr;
; 4570 : 
; 4571 :             _Elem* const _Raw_new = _Unfancy(_New_ptr);
; 4572 :             _Traits::assign(_Raw_new, _BUF_SIZE + 1, _Elem());
; 4573 :         } else
; 4574 : #endif // __cpp_lib_constexpr_string
; 4575 :         {
; 4576 :             _My_data._Myres = _BUF_SIZE - 1;

	mov	DWORD PTR $T67[ebp+20], 3

; 4577 :             // the _Traits::assign is last so the codegen doesn't think the char write can alias this
; 4578 :             _Traits::assign(_My_data._Bx._Buf[0], _Elem());

	mov	DWORD PTR $T67[ebp], eax
; File C:\Program Files (x86)\Microsoft Visual Studio\2019\Community\VC\Tools\MSVC\14.29.30133\include\xmemory

; 79   :         return ::operator new(_Bytes);

	call	??2@YAPAXI@Z				; operator new
; File C:\Program Files (x86)\Microsoft Visual Studio\2019\Community\VC\Tools\MSVC\14.29.30133\include\xstring

; 64   :         _CSTD memcpy(_First1, _First2, _Count * sizeof(_Elem));

	movups	xmm0, XMMWORD PTR ??_C@_2BI@CPCKAEFF@?$AA?$AA?$AAE?$AA?$AA?$AAt?$AA?$AA?$AAh?$AA?$AA?$AAa?$AA?$AA?$AAn@

; 4489 :         _Mypair._Myval2._Mysize = _New_size;

	mov	DWORD PTR $T67[ebp+16], 5
; File C:\Program Files (x86)\Microsoft Visual Studio\2019\Community\VC\Tools\MSVC\14.29.30133\include\xmemory

; 79   :         return ::operator new(_Bytes);

	add	esp, 4
; File C:\Program Files (x86)\Microsoft Visual Studio\2019\Community\VC\Tools\MSVC\14.29.30133\include\xstring

; 4490 :         _Mypair._Myval2._Myres  = _New_capacity;

	mov	DWORD PTR $T67[ebp+20], 7

; 64   :         _CSTD memcpy(_First1, _First2, _Count * sizeof(_Elem));

	movups	XMMWORD PTR [eax], xmm0
	mov	ecx, DWORD PTR ??_C@_2BI@CPCKAEFF@?$AA?$AA?$AAE?$AA?$AA?$AAt?$AA?$AA?$AAh?$AA?$AA?$AAa?$AA?$AA?$AAn@+16
	mov	DWORD PTR [eax+16], ecx

; 3224 :                 _Traits::assign(_New_ptr[_Count], _Elem());

	mov	DWORD PTR [eax+20], 0
; File C:\Program Files (x86)\Microsoft Visual Studio\2019\Community\VC\Tools\MSVC\14.29.30133\include\xmemory

; 235  :         return _Traits::_Allocate(_Bytes);

	mov	DWORD PTR $T135[ebp], eax
; File C:\Program Files (x86)\Microsoft Visual Studio\2019\Community\VC\Tools\MSVC\14.29.30133\include\xstring

; 4496 :             _Construct_in_place(_Mypair._Myval2._Bx._Ptr, _New_ptr);

	mov	DWORD PTR $T67[ebp], eax
; File C:\dev\StringLiterals\StringLiterals\src\main.cpp

; 15   : 	std::u32string name03 = U"Ethan"s + U"03";

	mov	BYTE PTR __$EHRec$[ebp+8], 9
; File C:\Program Files (x86)\Microsoft Visual Studio\2019\Community\VC\Tools\MSVC\14.29.30133\include\xstring

; 3141 :         return append(_Ptr, _Convert_size<size_type>(_Traits::length(_Ptr)));

	mov	eax, OFFSET ??_C@_2M@JLEBFLAK@?$AA?$AA?$AA0?$AA?$AA?$AA3@

; 144  :         size_t _Count = 0;

	xor	edx, edx
	npad	6
$LL519@main:

; 145  :         while (*_First != _Elem()) {
; 146  :             ++_Count;
; 147  :             ++_First;

	lea	eax, DWORD PTR [eax+4]
	inc	edx
	cmp	DWORD PTR [eax], 0
	jne	SHORT $LL519@main

; 3120 :         const size_type _Old_size = _Mypair._Myval2._Mysize;

	mov	eax, DWORD PTR $T67[ebp+20]
	mov	ecx, DWORD PTR $T67[ebp+16]
	sub	eax, ecx

; 3121 :         if (_Count <= _Mypair._Myval2._Myres - _Old_size) {

	cmp	edx, eax
	ja	SHORT $LN523@main

; 2264 :         if (_Large_string_engaged()) {

	cmp	DWORD PTR $T67[ebp+20], 4
	lea	esi, DWORD PTR $T67[ebp]

; 121  :         _CSTD memmove(_First1, _First2, _Count * sizeof(_Elem));

	lea	eax, DWORD PTR [edx*4]

; 2264 :         if (_Large_string_engaged()) {

	cmovae	esi, DWORD PTR $T135[ebp]

; 3122 :             _Mypair._Myval2._Mysize = _Old_size + _Count;

	lea	edi, DWORD PTR [edx+ecx]

; 121  :         _CSTD memmove(_First1, _First2, _Count * sizeof(_Elem));

	push	eax
	push	OFFSET ??_C@_2M@JLEBFLAK@?$AA?$AA?$AA0?$AA?$AA?$AA3@

; 3122 :             _Mypair._Myval2._Mysize = _Old_size + _Count;

	mov	DWORD PTR $T67[ebp+16], edi

; 3123 :             _Elem* const _Old_ptr   = _Mypair._Myval2._Myptr();
; 3124 :             _Traits::move(_Old_ptr + _Old_size, _Ptr, _Count);

	lea	ecx, DWORD PTR [esi+ecx*4]

; 121  :         _CSTD memmove(_First1, _First2, _Count * sizeof(_Elem));

	push	ecx
	call	_memmove
	add	esp, 12					; 0000000cH

; 3125 :             _Traits::assign(_Old_ptr[_Old_size + _Count], _Elem());

	mov	DWORD PTR [esi+edi*4], 0

; 3126 :             return *this;

	lea	eax, DWORD PTR $T67[ebp]
	jmp	SHORT $LN522@main
$LN523@main:

; 3127 :         }
; 3128 : 
; 3129 :         return _Reallocate_grow_by(

	push	edx
	push	ecx
	mov	BYTE PTR $T88[ebp], 0
	lea	ecx, DWORD PTR $T67[ebp]
	push	DWORD PTR $T88[ebp]
	push	edx
	call	??$_Reallocate_grow_by@V<lambda_aabcc5df0dcdbd223414bc3ba38ad6d9>@@PB_UI@?$basic_string@_UU?$char_traits@_U@std@@V?$allocator@_U@2@@std@@AAEAAV01@IV<lambda_aabcc5df0dcdbd223414bc3ba38ad6d9>@@PB_UI@Z ; std::basic_string<char32_t,std::char_traits<char32_t>,std::allocator<char32_t> >::_Reallocate_grow_by<<lambda_aabcc5df0dcdbd223414bc3ba38ad6d9>,char32_t const *,unsigned int>
$LN522@main:

; 2835 :         _CSTD memcpy(_My_data_mem, _Right_data_mem, _Memcpy_val_size);

	movups	xmm0, XMMWORD PTR [eax]
	movups	XMMWORD PTR _name03$[ebp], xmm0
	movq	xmm0, QWORD PTR [eax+16]
	movq	QWORD PTR _name03$[ebp+16], xmm0

; 4562 :         _My_data._Mysize = 0;

	mov	DWORD PTR [eax+16], 0

; 4563 : 
; 4564 : #ifdef __cpp_lib_constexpr_string
; 4565 :         if (_STD is_constant_evaluated()) {
; 4566 :             _My_data._Myres        = _BUF_SIZE; // SSO disabled in constexpr context
; 4567 :             auto& _Al              = _Getal();
; 4568 :             const pointer _New_ptr = _Al.allocate(_BUF_SIZE + 1); // throws
; 4569 :             _My_data._Bx._Ptr      = _New_ptr;
; 4570 : 
; 4571 :             _Elem* const _Raw_new = _Unfancy(_New_ptr);
; 4572 :             _Traits::assign(_Raw_new, _BUF_SIZE + 1, _Elem());
; 4573 :         } else
; 4574 : #endif // __cpp_lib_constexpr_string
; 4575 :         {
; 4576 :             _My_data._Myres = _BUF_SIZE - 1;

	mov	DWORD PTR [eax+20], 3

; 4577 :             // the _Traits::assign is last so the codegen doesn't think the char write can alias this
; 4578 :             _Traits::assign(_My_data._Bx._Buf[0], _Elem());

	mov	DWORD PTR [eax], 0
; File C:\dev\StringLiterals\StringLiterals\src\main.cpp

; 15   : 	std::u32string name03 = U"Ethan"s + U"03";

	mov	BYTE PTR __$EHRec$[ebp+8], 11		; 0000000bH
; File C:\Program Files (x86)\Microsoft Visual Studio\2019\Community\VC\Tools\MSVC\14.29.30133\include\xstring

; 4584 :         if (_Mypair._Myval2._Large_string_engaged()) {

	mov	edx, DWORD PTR $T67[ebp+20]
	cmp	edx, 4
	jb	SHORT $LN569@main
; File C:\Program Files (x86)\Microsoft Visual Studio\2019\Community\VC\Tools\MSVC\14.29.30133\include\xmemory

; 797  :         _Deallocate<_New_alignof<_Ty>>(_Ptr, sizeof(_Ty) * _Count);

	mov	ecx, DWORD PTR $T67[ebp]
	lea	edx, DWORD PTR [edx*4+4]
	mov	eax, ecx

; 251  :         if (_Bytes >= _Big_allocation_threshold) { // boost the alignment of big allocations to help autovectorization

	cmp	edx, 4096				; 00001000H
	jb	SHORT $LN579@main

; 150  :     const uintptr_t _Ptr_container   = _Ptr_user[-1];

	mov	ecx, DWORD PTR [ecx-4]
	add	edx, 35					; 00000023H
	sub	eax, ecx

; 151  : 
; 152  :     // If the following asserts, it likely means that we are performing
; 153  :     // an aligned delete on memory coming from an unaligned allocation.
; 154  :     _STL_ASSERT(_Ptr_user[-2] == _Big_allocation_sentinel, "invalid argument");
; 155  : 
; 156  :     // Extra paranoia on aligned allocation/deallocation; ensure _Ptr_container is
; 157  :     // in range [_Min_back_shift, _Non_user_size]
; 158  : #ifdef _DEBUG
; 159  :     constexpr uintptr_t _Min_back_shift = 2 * sizeof(void*);
; 160  : #else // ^^^ _DEBUG ^^^ // vvv !_DEBUG vvv
; 161  :     constexpr uintptr_t _Min_back_shift = sizeof(void*);
; 162  : #endif // _DEBUG
; 163  :     const uintptr_t _Back_shift = reinterpret_cast<uintptr_t>(_Ptr) - _Ptr_container;
; 164  :     _STL_VERIFY(_Back_shift >= _Min_back_shift && _Back_shift <= _Non_user_size, "invalid argument");

	add	eax, -4					; fffffffcH
	cmp	eax, 31					; 0000001fH
	jbe	SHORT $LN579@main
	call	DWORD PTR __imp___invalid_parameter_noinfo_noreturn
$LN579@main:

; 255  :         ::operator delete(_Ptr, _Bytes);

	push	edx
	push	ecx
	call	??3@YAXPAXI@Z				; operator delete
	add	esp, 8
$LN569@main:
; File C:\Program Files (x86)\Microsoft Visual Studio\2019\Community\VC\Tools\MSVC\14.29.30133\include\xstring

; 2273 :         if (_Large_string_engaged()) {

	cmp	DWORD PTR _name00$[ebp+20], 16		; 00000010H
	lea	edx, DWORD PTR _name00$[ebp]

; 4947 :     return _Insert_string(_Ostr, _Str.data(), _Str.size());

	mov	ecx, DWORD PTR __imp_?cout@std@@3V?$basic_ostream@DU?$char_traits@D@std@@@1@A

; 2273 :         if (_Large_string_engaged()) {

	cmovae	edx, DWORD PTR _name00$[ebp]
; File C:\dev\StringLiterals\StringLiterals\src\main.cpp

; 25   : 	std::cout << name00 << std::endl;

	push	OFFSET ??$endl@DU?$char_traits@D@std@@@std@@YAAAV?$basic_ostream@DU?$char_traits@D@std@@@0@AAV10@@Z ; std::endl<char,std::char_traits<char> >
; File C:\Program Files (x86)\Microsoft Visual Studio\2019\Community\VC\Tools\MSVC\14.29.30133\include\xstring

; 4947 :     return _Insert_string(_Ostr, _Str.data(), _Str.size());

	push	DWORD PTR _name00$[ebp+16]

; 4599 :             _Mypair._Myval2._Mysize = 0;

	mov	DWORD PTR $T67[ebp+16], 0

; 4600 :             _Mypair._Myval2._Myres  = _BUF_SIZE - 1;

	mov	DWORD PTR $T67[ebp+20], 3

; 4602 :             _Traits::assign(_Mypair._Myval2._Bx._Buf[0], _Elem());

	mov	DWORD PTR $T67[ebp], 0

; 4947 :     return _Insert_string(_Ostr, _Str.data(), _Str.size());

	call	??$_Insert_string@DU?$char_traits@D@std@@I@std@@YAAAV?$basic_ostream@DU?$char_traits@D@std@@@0@AAV10@QBDI@Z ; std::_Insert_string<char,std::char_traits<char>,unsigned int>
	add	esp, 4
; File C:\dev\StringLiterals\StringLiterals\src\main.cpp

; 25   : 	std::cout << name00 << std::endl;

	mov	ecx, eax
	call	DWORD PTR __imp_??6?$basic_ostream@DU?$char_traits@D@std@@@std@@QAEAAV01@P6AAAV01@AAV01@@Z@Z
; File C:\Program Files (x86)\Microsoft Visual Studio\2019\Community\VC\Tools\MSVC\14.29.30133\include\xlocale

; 310  :     explicit locale(const char* _Locname, category _Cat = all) : _Ptr(_Locimp::_New_Locimp()) {

	push	0
	call	DWORD PTR __imp_?_New_Locimp@_Locimp@locale@std@@CAPAV123@_N@Z
	add	esp, 4
; File C:\Program Files (x86)\Microsoft Visual Studio\2019\Community\VC\Tools\MSVC\14.29.30133\include\xstring

; 2313 :         _CONSTEXPR20_CONTAINER _Bxty() noexcept : _Ptr() {} // user-provided, for fancy pointers

	mov	DWORD PTR $T98[ebp], 0

; 3230 :         return assign(_Ptr, _Convert_size<size_type>(_Traits::length(_Ptr)));

	lea	ecx, DWORD PTR $T98[ebp]
; File C:\Program Files (x86)\Microsoft Visual Studio\2019\Community\VC\Tools\MSVC\14.29.30133\include\xlocale

; 310  :     explicit locale(const char* _Locname, category _Cat = all) : _Ptr(_Locimp::_New_Locimp()) {

	mov	DWORD PTR $T97[ebp+4], eax
; File C:\Program Files (x86)\Microsoft Visual Studio\2019\Community\VC\Tools\MSVC\14.29.30133\include\xstring

; 4562 :         _My_data._Mysize = 0;

	mov	DWORD PTR $T98[ebp+16], 0

; 4563 : 
; 4564 : #ifdef __cpp_lib_constexpr_string
; 4565 :         if (_STD is_constant_evaluated()) {
; 4566 :             _My_data._Myres        = _BUF_SIZE; // SSO disabled in constexpr context
; 4567 :             auto& _Al              = _Getal();
; 4568 :             const pointer _New_ptr = _Al.allocate(_BUF_SIZE + 1); // throws
; 4569 :             _My_data._Bx._Ptr      = _New_ptr;
; 4570 : 
; 4571 :             _Elem* const _Raw_new = _Unfancy(_New_ptr);
; 4572 :             _Traits::assign(_Raw_new, _BUF_SIZE + 1, _Elem());
; 4573 :         } else
; 4574 : #endif // __cpp_lib_constexpr_string
; 4575 :         {
; 4576 :             _My_data._Myres = _BUF_SIZE - 1;

	mov	DWORD PTR $T98[ebp+20], 15		; 0000000fH

; 3230 :         return assign(_Ptr, _Convert_size<size_type>(_Traits::length(_Ptr)));

	push	3
	push	OFFSET ??_C@_03LFPOMIKD@chs@

; 4578 :             _Traits::assign(_My_data._Bx._Buf[0], _Elem());

	mov	BYTE PTR $T98[ebp], 0

; 3230 :         return assign(_Ptr, _Convert_size<size_type>(_Traits::length(_Ptr)));

	call	?assign@?$basic_string@DU?$char_traits@D@std@@V?$allocator@D@2@@std@@QAEAAV12@QBDI@Z ; std::basic_string<char,std::char_traits<char>,std::allocator<char> >::assign
; File C:\Program Files (x86)\Microsoft Visual Studio\2019\Community\VC\Tools\MSVC\14.29.30133\include\xlocale

; 288  :         _Init();

	push	0

; 315  :             _Construct(_Locname, _Cat);

	mov	BYTE PTR __$EHRec$[ebp+8], 12		; 0000000cH

; 287  :         bool _Bad = false;

	mov	BYTE PTR __Bad$1$[ebp], 0

; 288  :         _Init();

	call	DWORD PTR __imp_?_Init@locale@std@@CAPAV_Locimp@12@_N@Z

; 289  :         if (_Cat != none) { // worth adding, do it
; 290  :             _Facet_guard _Guard{_Ptr};

	mov	eax, DWORD PTR $T97[ebp+4]
	add	esp, 4
	mov	DWORD PTR __Guard$136[ebp], eax
	mov	BYTE PTR __$EHRec$[ebp+8], 13		; 0000000dH
; File C:\Program Files (x86)\Microsoft Visual Studio\2019\Community\VC\Tools\MSVC\14.29.30133\include\xstring

; 2272 :         const value_type* _Result = _Bx._Buf;

	lea	eax, DWORD PTR $T98[ebp]

; 2273 :         if (_Large_string_engaged()) {

	cmp	DWORD PTR $T98[ebp+20], 16		; 00000010H
; File C:\Program Files (x86)\Microsoft Visual Studio\2019\Community\VC\Tools\MSVC\14.29.30133\include\xlocale

; 291  :             _BEGIN_LOCINFO(_Lobj(_Cat, _Str.c_str()))

	lea	ecx, DWORD PTR __Lobj$137[ebp]
; File C:\Program Files (x86)\Microsoft Visual Studio\2019\Community\VC\Tools\MSVC\14.29.30133\include\xstring

; 2273 :         if (_Large_string_engaged()) {

	cmovae	eax, DWORD PTR $T98[ebp]
; File C:\Program Files (x86)\Microsoft Visual Studio\2019\Community\VC\Tools\MSVC\14.29.30133\include\xlocale

; 291  :             _BEGIN_LOCINFO(_Lobj(_Cat, _Str.c_str()))

	push	eax
	push	63					; 0000003fH
	call	DWORD PTR __imp_??0_Locinfo@std@@QAE@HPBD@Z

; 407  :         return _CSTD strcmp(_Lobj._Getname(), "*") == 0;

	lea	ecx, DWORD PTR __Lobj$137[ebp]

; 291  :             _BEGIN_LOCINFO(_Lobj(_Cat, _Str.c_str()))

	mov	BYTE PTR __$EHRec$[ebp+8], 14		; 0000000eH

; 407  :         return _CSTD strcmp(_Lobj._Getname(), "*") == 0;

	mov	esi, OFFSET ??_C@_01NBENCBCI@?$CK@
	call	DWORD PTR __imp_?_Getname@_Locinfo@std@@QBEPBDXZ
$LL841@main:
	mov	cl, BYTE PTR [eax]
	cmp	cl, BYTE PTR [esi]
	jne	SHORT $LN842@main
	test	cl, cl
	je	SHORT $LN843@main
	mov	cl, BYTE PTR [eax+1]
	cmp	cl, BYTE PTR [esi+1]
	jne	SHORT $LN842@main
	add	eax, 2
	add	esi, 2
	test	cl, cl
	jne	SHORT $LL841@main
$LN843@main:
	xor	eax, eax
	jmp	SHORT $LN844@main
$LN842@main:
	sbb	eax, eax
	or	eax, 1
$LN844@main:
	test	eax, eax

; 292  :             if (_Badname(_Lobj)) {

	jne	SHORT $LN615@main

; 293  :                 _Bad = true;

	mov	BYTE PTR __Bad$1$[ebp], 1

; 294  :             } else { // name okay, build the locale

	jmp	SHORT $LN616@main
$LN615@main:

; 295  :                 _Locimp::_Makeloc(_Lobj, _Cat, _Ptr, nullptr);

	push	0
	push	DWORD PTR $T97[ebp+4]
	lea	eax, DWORD PTR __Lobj$137[ebp]
	push	63					; 0000003fH
	push	eax
	call	DWORD PTR __imp_?_Makeloc@_Locimp@locale@std@@CAPAV123@ABV_Locinfo@3@HPAV123@PBV23@@Z

; 296  :                 _Ptr->_Catmask = _Cat;

	mov	eax, DWORD PTR $T97[ebp+4]
	add	esp, 16					; 00000010H
	mov	DWORD PTR [eax+16], 63			; 0000003fH
; File C:\Program Files (x86)\Microsoft Visual Studio\2019\Community\VC\Tools\MSVC\14.29.30133\include\xstring

; 2272 :         const value_type* _Result = _Bx._Buf;

	lea	eax, DWORD PTR $T98[ebp]

; 2273 :         if (_Large_string_engaged()) {

	cmp	DWORD PTR $T98[ebp+20], 16		; 00000010H
; File C:\Program Files (x86)\Microsoft Visual Studio\2019\Community\VC\Tools\MSVC\14.29.30133\include\xlocale

; 297  :                 _Ptr->_Name    = _Str.c_str();

	mov	ecx, DWORD PTR $T97[ebp+4]
; File C:\Program Files (x86)\Microsoft Visual Studio\2019\Community\VC\Tools\MSVC\14.29.30133\include\xstring

; 2273 :         if (_Large_string_engaged()) {

	cmovae	eax, DWORD PTR $T98[ebp]
; File C:\Program Files (x86)\Microsoft Visual Studio\2019\Community\VC\Tools\MSVC\14.29.30133\include\xlocale

; 297  :                 _Ptr->_Name    = _Str.c_str();

	push	eax
	lea	ecx, DWORD PTR [ecx+24]
	call	DWORD PTR __imp_??4?$_Yarn@D@std@@QAEAAV01@PBD@Z
$LN616@main:

; 298  :             }
; 299  :             _END_LOCINFO()

	lea	ecx, DWORD PTR __Lobj$137[ebp]
	call	DWORD PTR __imp_??1_Locinfo@std@@QAE@XZ

; 300  :             _Guard._Target = nullptr;
; 301  :         }
; 302  : 
; 303  :         if (_Bad) { // Don't throw within _BEGIN_LOCINFO if we can avoid it

	cmp	BYTE PTR __Bad$1$[ebp], 0
	mov	BYTE PTR __$EHRec$[ebp+8], 12		; 0000000cH
	je	SHORT $LN617@main

; 304  :             delete _Ptr->_Decref();

	mov	ecx, DWORD PTR $T97[ebp+4]
	mov	eax, DWORD PTR [ecx]
	mov	eax, DWORD PTR [eax+8]
	call	eax
	test	eax, eax
	je	SHORT $LN619@main
	mov	edx, DWORD PTR [eax]
	mov	ecx, eax
	push	1
	call	DWORD PTR [edx]
$LN619@main:

; 305  :             _Xruntime_error("bad locale name");

	push	OFFSET ??_C@_0BA@ELKIONDK@bad?5locale?5name@
	call	DWORD PTR __imp_?_Xruntime_error@std@@YAXPBD@Z
$LN617@main:

; 315  :             _Construct(_Locname, _Cat);

	mov	BYTE PTR __$EHRec$[ebp+8], 11		; 0000000bH
; File C:\Program Files (x86)\Microsoft Visual Studio\2019\Community\VC\Tools\MSVC\14.29.30133\include\xstring

; 4584 :         if (_Mypair._Myval2._Large_string_engaged()) {

	mov	edx, DWORD PTR $T98[ebp+20]
	cmp	edx, 16					; 00000010H
	jb	SHORT $LN657@main
; File C:\Program Files (x86)\Microsoft Visual Studio\2019\Community\VC\Tools\MSVC\14.29.30133\include\xmemory

; 797  :         _Deallocate<_New_alignof<_Ty>>(_Ptr, sizeof(_Ty) * _Count);

	mov	ecx, DWORD PTR $T98[ebp]
; File C:\Program Files (x86)\Microsoft Visual Studio\2019\Community\VC\Tools\MSVC\14.29.30133\include\xstring

; 4588 :             _Al.deallocate(_Ptr, _Mypair._Myval2._Myres + 1);

	inc	edx
; File C:\Program Files (x86)\Microsoft Visual Studio\2019\Community\VC\Tools\MSVC\14.29.30133\include\xmemory

; 797  :         _Deallocate<_New_alignof<_Ty>>(_Ptr, sizeof(_Ty) * _Count);

	mov	eax, ecx

; 251  :         if (_Bytes >= _Big_allocation_threshold) { // boost the alignment of big allocations to help autovectorization

	cmp	edx, 4096				; 00001000H
	jb	SHORT $LN667@main

; 150  :     const uintptr_t _Ptr_container   = _Ptr_user[-1];

	mov	ecx, DWORD PTR [ecx-4]
	add	edx, 35					; 00000023H
	sub	eax, ecx

; 151  : 
; 152  :     // If the following asserts, it likely means that we are performing
; 153  :     // an aligned delete on memory coming from an unaligned allocation.
; 154  :     _STL_ASSERT(_Ptr_user[-2] == _Big_allocation_sentinel, "invalid argument");
; 155  : 
; 156  :     // Extra paranoia on aligned allocation/deallocation; ensure _Ptr_container is
; 157  :     // in range [_Min_back_shift, _Non_user_size]
; 158  : #ifdef _DEBUG
; 159  :     constexpr uintptr_t _Min_back_shift = 2 * sizeof(void*);
; 160  : #else // ^^^ _DEBUG ^^^ // vvv !_DEBUG vvv
; 161  :     constexpr uintptr_t _Min_back_shift = sizeof(void*);
; 162  : #endif // _DEBUG
; 163  :     const uintptr_t _Back_shift = reinterpret_cast<uintptr_t>(_Ptr) - _Ptr_container;
; 164  :     _STL_VERIFY(_Back_shift >= _Min_back_shift && _Back_shift <= _Non_user_size, "invalid argument");

	add	eax, -4					; fffffffcH
	cmp	eax, 31					; 0000001fH
	jbe	SHORT $LN667@main
	call	DWORD PTR __imp___invalid_parameter_noinfo_noreturn
$LN667@main:

; 255  :         ::operator delete(_Ptr, _Bytes);

	push	edx
	push	ecx
	call	??3@YAXPAXI@Z				; operator delete
	add	esp, 8
$LN657@main:
; File C:\Program Files (x86)\Microsoft Visual Studio\2019\Community\VC\Tools\MSVC\14.29.30133\include\xstring

; 4599 :             _Mypair._Myval2._Mysize = 0;

	mov	DWORD PTR $T98[ebp+16], 0

; 4600 :             _Mypair._Myval2._Myres  = _BUF_SIZE - 1;

	mov	DWORD PTR $T98[ebp+20], 15		; 0000000fH

; 4602 :             _Traits::assign(_Mypair._Myval2._Bx._Buf[0], _Elem());

	mov	BYTE PTR $T98[ebp], 0
; File C:\dev\StringLiterals\StringLiterals\src\main.cpp

; 27   : 	wcout.imbue(locale("chs"));

	mov	BYTE PTR __$EHRec$[ebp+8], 15		; 0000000fH
	lea	eax, DWORD PTR $T97[ebp]
	mov	edx, DWORD PTR __imp_?wcout@std@@3V?$basic_ostream@_WU?$char_traits@_W@std@@@1@A
	push	eax
	lea	eax, DWORD PTR $T112[ebp]
	push	eax
	mov	eax, DWORD PTR [edx]
	mov	ecx, DWORD PTR [eax+4]
	add	ecx, edx
	call	DWORD PTR __imp_?imbue@?$basic_ios@_WU?$char_traits@_W@std@@@std@@QAE?AVlocale@2@ABV32@@Z
; File C:\Program Files (x86)\Microsoft Visual Studio\2019\Community\VC\Tools\MSVC\14.29.30133\include\xlocale

; 346  :         if (_Ptr) {

	mov	ecx, DWORD PTR $T112[ebp+4]
	test	ecx, ecx
	je	SHORT $LN675@main

; 347  :             delete _Ptr->_Decref();

	mov	eax, DWORD PTR [ecx]
	mov	eax, DWORD PTR [eax+8]
	call	eax
	test	eax, eax
	je	SHORT $LN675@main
	mov	edx, DWORD PTR [eax]
	mov	ecx, eax
	push	1
	call	DWORD PTR [edx]
$LN675@main:
; File C:\dev\StringLiterals\StringLiterals\src\main.cpp

; 27   : 	wcout.imbue(locale("chs"));

	mov	BYTE PTR __$EHRec$[ebp+8], 11		; 0000000bH
; File C:\Program Files (x86)\Microsoft Visual Studio\2019\Community\VC\Tools\MSVC\14.29.30133\include\xlocale

; 346  :         if (_Ptr) {

	mov	ecx, DWORD PTR $T97[ebp+4]
	test	ecx, ecx
	je	SHORT $LN680@main

; 347  :             delete _Ptr->_Decref();

	mov	eax, DWORD PTR [ecx]
	mov	eax, DWORD PTR [eax+8]
	call	eax
	test	eax, eax
	je	SHORT $LN680@main
	mov	edx, DWORD PTR [eax]
	mov	ecx, eax
	push	1
	call	DWORD PTR [edx]
$LN680@main:
; File C:\Program Files (x86)\Microsoft Visual Studio\2019\Community\VC\Tools\MSVC\14.29.30133\include\xstring

; 2286 :         return _BUF_SIZE <= _Myres;

	cmp	DWORD PTR _name01$[ebp+20], 8

; 2272 :         const value_type* _Result = _Bx._Buf;

	lea	edx, DWORD PTR _name01$[ebp]

; 4947 :     return _Insert_string(_Ostr, _Str.data(), _Str.size());

	mov	ecx, DWORD PTR __imp_?wcout@std@@3V?$basic_ostream@_WU?$char_traits@_W@std@@@1@A

; 2273 :         if (_Large_string_engaged()) {

	cmovae	edx, DWORD PTR _name01$[ebp]
; File C:\dev\StringLiterals\StringLiterals\src\main.cpp

; 28   : 	wcout << name01 << endl;

	push	OFFSET ??$endl@_WU?$char_traits@_W@std@@@std@@YAAAV?$basic_ostream@_WU?$char_traits@_W@std@@@0@AAV10@@Z ; std::endl<wchar_t,std::char_traits<wchar_t> >
; File C:\Program Files (x86)\Microsoft Visual Studio\2019\Community\VC\Tools\MSVC\14.29.30133\include\xstring

; 4947 :     return _Insert_string(_Ostr, _Str.data(), _Str.size());

	push	DWORD PTR _name01$[ebp+16]
	call	??$_Insert_string@_WU?$char_traits@_W@std@@I@std@@YAAAV?$basic_ostream@_WU?$char_traits@_W@std@@@0@AAV10@QB_WI@Z ; std::_Insert_string<wchar_t,std::char_traits<wchar_t>,unsigned int>
	add	esp, 4
; File C:\dev\StringLiterals\StringLiterals\src\main.cpp

; 28   : 	wcout << name01 << endl;

	mov	ecx, eax
	call	DWORD PTR __imp_??6?$basic_ostream@_WU?$char_traits@_W@std@@@std@@QAEAAV01@P6AAAV01@AAV01@@Z@Z
; File C:\Program Files (x86)\Microsoft Visual Studio\2019\Community\VC\Tools\MSVC\14.29.30133\include\xstring

; 2286 :         return _BUF_SIZE <= _Myres;

	cmp	DWORD PTR _name02$[ebp+20], 8

; 2263 :         value_type* _Result = _Bx._Buf;

	lea	ecx, DWORD PTR _name02$[ebp]

; 3715 :         return _Mypair._Myval2._Myptr() + _Mypair._Myval2._Mysize;

	mov	eax, DWORD PTR _name02$[ebp+16]

; 2263 :         value_type* _Result = _Bx._Buf;

	lea	esi, DWORD PTR _name02$[ebp]

; 2264 :         if (_Large_string_engaged()) {

	cmovae	ecx, DWORD PTR _name02$[ebp]
	cmovae	esi, DWORD PTR _name02$[ebp]

; 3715 :         return _Mypair._Myval2._Myptr() + _Mypair._Myval2._Mysize;

	lea	edi, DWORD PTR [ecx+eax*2]
; File C:\dev\StringLiterals\StringLiterals\src\main.cpp

; 30   : 	for (const auto& c : name02)

	cmp	esi, edi
	je	SHORT $LN3@main
$LL4@main:

; 31   : 		std::cout << static_cast<char>(c);

	mov	dl, BYTE PTR [esi]
	mov	ecx, DWORD PTR __imp_?cout@std@@3V?$basic_ostream@DU?$char_traits@D@std@@@1@A
	call	??$?6U?$char_traits@D@std@@@std@@YAAAV?$basic_ostream@DU?$char_traits@D@std@@@0@AAV10@D@Z ; std::operator<<<std::char_traits<char> >
	add	esi, 2
	cmp	esi, edi
	jne	SHORT $LL4@main
$LN3@main:

; 32   : 	std::cout << "\0" << std::endl;

	mov	ecx, DWORD PTR __imp_?cout@std@@3V?$basic_ostream@DU?$char_traits@D@std@@@1@A
	mov	edx, OFFSET ??_C@_01LOCGONAA@?$AA@
	push	OFFSET ??$endl@DU?$char_traits@D@std@@@std@@YAAAV?$basic_ostream@DU?$char_traits@D@std@@@0@AAV10@@Z ; std::endl<char,std::char_traits<char> >
	call	??$?6U?$char_traits@D@std@@@std@@YAAAV?$basic_ostream@DU?$char_traits@D@std@@@0@AAV10@PBD@Z ; std::operator<<<std::char_traits<char> >
	mov	ecx, eax
	call	DWORD PTR __imp_??6?$basic_ostream@DU?$char_traits@D@std@@@std@@QAEAAV01@P6AAAV01@AAV01@@Z@Z
; File C:\Program Files (x86)\Microsoft Visual Studio\2019\Community\VC\Tools\MSVC\14.29.30133\include\xstring

; 2286 :         return _BUF_SIZE <= _Myres;

	cmp	DWORD PTR _name03$[ebp+20], 4

; 2263 :         value_type* _Result = _Bx._Buf;

	lea	ecx, DWORD PTR _name03$[ebp]

; 2264 :         if (_Large_string_engaged()) {

	mov	edi, DWORD PTR _name03$[ebp]
	lea	esi, DWORD PTR _name03$[ebp]

; 3715 :         return _Mypair._Myval2._Myptr() + _Mypair._Myval2._Mysize;

	mov	eax, DWORD PTR _name03$[ebp+16]

; 2264 :         if (_Large_string_engaged()) {

	cmovae	ecx, edi
	cmovae	esi, edi

; 3715 :         return _Mypair._Myval2._Myptr() + _Mypair._Myval2._Mysize;

	lea	eax, DWORD PTR [ecx+eax*4]
; File C:\dev\StringLiterals\StringLiterals\src\main.cpp

; 34   : 	for (const auto& c : name03)

	cmp	esi, eax
	je	SHORT $LN6@main
	mov	edi, eax
$LL7@main:

; 35   : 		std::cout << static_cast<char>(c);

	mov	dl, BYTE PTR [esi]
	mov	ecx, DWORD PTR __imp_?cout@std@@3V?$basic_ostream@DU?$char_traits@D@std@@@1@A
	call	??$?6U?$char_traits@D@std@@@std@@YAAAV?$basic_ostream@DU?$char_traits@D@std@@@0@AAV10@D@Z ; std::operator<<<std::char_traits<char> >
	add	esi, 4
	cmp	esi, edi
	jne	SHORT $LL7@main
	mov	edi, DWORD PTR _name03$[ebp]
$LN6@main:

; 36   : 	std::cout << "\0" << std::endl;

	mov	ecx, DWORD PTR __imp_?cout@std@@3V?$basic_ostream@DU?$char_traits@D@std@@@1@A
	mov	edx, OFFSET ??_C@_01LOCGONAA@?$AA@
	push	OFFSET ??$endl@DU?$char_traits@D@std@@@std@@YAAAV?$basic_ostream@DU?$char_traits@D@std@@@0@AAV10@@Z ; std::endl<char,std::char_traits<char> >
	call	??$?6U?$char_traits@D@std@@@std@@YAAAV?$basic_ostream@DU?$char_traits@D@std@@@0@AAV10@PBD@Z ; std::operator<<<std::char_traits<char> >
	mov	ecx, eax
	call	DWORD PTR __imp_??6?$basic_ostream@DU?$char_traits@D@std@@@std@@QAEAAV01@P6AAAV01@AAV01@@Z@Z

; 37   : 
; 38   : 	std::cout << example << std::endl;

	mov	ecx, DWORD PTR __imp_?cout@std@@3V?$basic_ostream@DU?$char_traits@D@std@@@1@A
	mov	edx, OFFSET ??_C@_0BC@GBLLDDOB@Line1?6Line2?6Line3@
	push	OFFSET ??$endl@DU?$char_traits@D@std@@@std@@YAAAV?$basic_ostream@DU?$char_traits@D@std@@@0@AAV10@@Z ; std::endl<char,std::char_traits<char> >
	call	??$?6U?$char_traits@D@std@@@std@@YAAAV?$basic_ostream@DU?$char_traits@D@std@@@0@AAV10@PBD@Z ; std::operator<<<std::char_traits<char> >
	mov	ecx, eax
	call	DWORD PTR __imp_??6?$basic_ostream@DU?$char_traits@D@std@@@std@@QAEAAV01@P6AAAV01@AAV01@@Z@Z

; 39   : 	std::cout << ex << std::endl;

	mov	ecx, DWORD PTR __imp_?cout@std@@3V?$basic_ostream@DU?$char_traits@D@std@@@1@A
	mov	edx, OFFSET ??_C@_0BD@CGOJJEID@line4?6line5?6line6?6@
	push	OFFSET ??$endl@DU?$char_traits@D@std@@@std@@YAAAV?$basic_ostream@DU?$char_traits@D@std@@@0@AAV10@@Z ; std::endl<char,std::char_traits<char> >
	call	??$?6U?$char_traits@D@std@@@std@@YAAAV?$basic_ostream@DU?$char_traits@D@std@@@0@AAV10@PBD@Z ; std::operator<<<std::char_traits<char> >
	mov	ecx, eax
	call	DWORD PTR __imp_??6?$basic_ostream@DU?$char_traits@D@std@@@std@@QAEAAV01@P6AAAV01@AAV01@@Z@Z

; 40   : 
; 41   : 	char Name[] = u8"Ethan";	//

	mov	eax, DWORD PTR ??_C@_05FBADLLFO@Ethan@

; 42   : 	const char* name = Name;
; 43   : 
; 44   : 	//
; 45   : 	const wchar_t* name2 = L"Ethan";	//
; 46   : 
; 47   : 	const char16_t* name3 = u"Etahn";	//16
; 48   : 	const char32_t* name4 = U"Etahn";	//32
; 49   : 
; 50   : 	std::cout << "name:" << name << std::endl;

	mov	edx, OFFSET ??_C@_05HKGIJGOH@name?3@
	mov	ecx, DWORD PTR __imp_?cout@std@@3V?$basic_ostream@DU?$char_traits@D@std@@@1@A
	mov	DWORD PTR _Name$[ebp], eax
	mov	ax, WORD PTR ??_C@_05FBADLLFO@Ethan@+4
	push	OFFSET ??$endl@DU?$char_traits@D@std@@@std@@YAAAV?$basic_ostream@DU?$char_traits@D@std@@@0@AAV10@@Z ; std::endl<char,std::char_traits<char> >
	mov	WORD PTR _Name$[ebp+4], ax
	call	??$?6U?$char_traits@D@std@@@std@@YAAAV?$basic_ostream@DU?$char_traits@D@std@@@0@AAV10@PBD@Z ; std::operator<<<std::char_traits<char> >
	lea	edx, DWORD PTR _Name$[ebp]
	mov	ecx, eax
	call	??$?6U?$char_traits@D@std@@@std@@YAAAV?$basic_ostream@DU?$char_traits@D@std@@@0@AAV10@PBD@Z ; std::operator<<<std::char_traits<char> >
	mov	ecx, eax
	call	DWORD PTR __imp_??6?$basic_ostream@DU?$char_traits@D@std@@@std@@QAEAAV01@P6AAAV01@AAV01@@Z@Z

; 51   : 	
; 52   : 	std::cin.get();

	mov	ecx, DWORD PTR __imp_?cin@std@@3V?$basic_istream@DU?$char_traits@D@std@@@1@A
	call	DWORD PTR __imp_?get@?$basic_istream@DU?$char_traits@D@std@@@std@@QAEHXZ
; File C:\Program Files (x86)\Microsoft Visual Studio\2019\Community\VC\Tools\MSVC\14.29.30133\include\xstring

; 2286 :         return _BUF_SIZE <= _Myres;

	mov	eax, DWORD PTR _name03$[ebp+20]
	cmp	eax, 4

; 4584 :         if (_Mypair._Myval2._Large_string_engaged()) {

	jb	SHORT $LN731@main
; File C:\Program Files (x86)\Microsoft Visual Studio\2019\Community\VC\Tools\MSVC\14.29.30133\include\xmemory

; 797  :         _Deallocate<_New_alignof<_Ty>>(_Ptr, sizeof(_Ty) * _Count);

	lea	ecx, DWORD PTR [eax*4+4]
	mov	eax, edi

; 251  :         if (_Bytes >= _Big_allocation_threshold) { // boost the alignment of big allocations to help autovectorization

	cmp	ecx, 4096				; 00001000H
	jb	SHORT $LN741@main

; 150  :     const uintptr_t _Ptr_container   = _Ptr_user[-1];

	mov	edi, DWORD PTR [edi-4]
	add	ecx, 35					; 00000023H
	sub	eax, edi

; 151  : 
; 152  :     // If the following asserts, it likely means that we are performing
; 153  :     // an aligned delete on memory coming from an unaligned allocation.
; 154  :     _STL_ASSERT(_Ptr_user[-2] == _Big_allocation_sentinel, "invalid argument");
; 155  : 
; 156  :     // Extra paranoia on aligned allocation/deallocation; ensure _Ptr_container is
; 157  :     // in range [_Min_back_shift, _Non_user_size]
; 158  : #ifdef _DEBUG
; 159  :     constexpr uintptr_t _Min_back_shift = 2 * sizeof(void*);
; 160  : #else // ^^^ _DEBUG ^^^ // vvv !_DEBUG vvv
; 161  :     constexpr uintptr_t _Min_back_shift = sizeof(void*);
; 162  : #endif // _DEBUG
; 163  :     const uintptr_t _Back_shift = reinterpret_cast<uintptr_t>(_Ptr) - _Ptr_container;
; 164  :     _STL_VERIFY(_Back_shift >= _Min_back_shift && _Back_shift <= _Non_user_size, "invalid argument");

	add	eax, -4					; fffffffcH
	cmp	eax, 31					; 0000001fH
	ja	$LN819@main
$LN741@main:

; 255  :         ::operator delete(_Ptr, _Bytes);

	push	ecx
	push	edi
	call	??3@YAXPAXI@Z				; operator delete
	add	esp, 8
$LN731@main:
; File C:\Program Files (x86)\Microsoft Visual Studio\2019\Community\VC\Tools\MSVC\14.29.30133\include\xstring

; 2286 :         return _BUF_SIZE <= _Myres;

	mov	eax, DWORD PTR _name02$[ebp+20]
	cmp	eax, 8

; 4584 :         if (_Mypair._Myval2._Large_string_engaged()) {

	jb	SHORT $LN758@main
; File C:\Program Files (x86)\Microsoft Visual Studio\2019\Community\VC\Tools\MSVC\14.29.30133\include\xmemory

; 797  :         _Deallocate<_New_alignof<_Ty>>(_Ptr, sizeof(_Ty) * _Count);

	mov	ecx, DWORD PTR _name02$[ebp]
	lea	edx, DWORD PTR [eax*2+2]
	mov	eax, ecx

; 251  :         if (_Bytes >= _Big_allocation_threshold) { // boost the alignment of big allocations to help autovectorization

	cmp	edx, 4096				; 00001000H
	jb	SHORT $LN768@main

; 150  :     const uintptr_t _Ptr_container   = _Ptr_user[-1];

	mov	ecx, DWORD PTR [ecx-4]
	add	edx, 35					; 00000023H
	sub	eax, ecx

; 151  : 
; 152  :     // If the following asserts, it likely means that we are performing
; 153  :     // an aligned delete on memory coming from an unaligned allocation.
; 154  :     _STL_ASSERT(_Ptr_user[-2] == _Big_allocation_sentinel, "invalid argument");
; 155  : 
; 156  :     // Extra paranoia on aligned allocation/deallocation; ensure _Ptr_container is
; 157  :     // in range [_Min_back_shift, _Non_user_size]
; 158  : #ifdef _DEBUG
; 159  :     constexpr uintptr_t _Min_back_shift = 2 * sizeof(void*);
; 160  : #else // ^^^ _DEBUG ^^^ // vvv !_DEBUG vvv
; 161  :     constexpr uintptr_t _Min_back_shift = sizeof(void*);
; 162  : #endif // _DEBUG
; 163  :     const uintptr_t _Back_shift = reinterpret_cast<uintptr_t>(_Ptr) - _Ptr_container;
; 164  :     _STL_VERIFY(_Back_shift >= _Min_back_shift && _Back_shift <= _Non_user_size, "invalid argument");

	add	eax, -4					; fffffffcH
	cmp	eax, 31					; 0000001fH
	ja	SHORT $LN819@main
$LN768@main:

; 255  :         ::operator delete(_Ptr, _Bytes);

	push	edx
	push	ecx
	call	??3@YAXPAXI@Z				; operator delete
	add	esp, 8
$LN758@main:
; File C:\Program Files (x86)\Microsoft Visual Studio\2019\Community\VC\Tools\MSVC\14.29.30133\include\xstring

; 2286 :         return _BUF_SIZE <= _Myres;

	mov	edx, DWORD PTR _name01$[ebp+20]
	cmp	edx, 8

; 4584 :         if (_Mypair._Myval2._Large_string_engaged()) {

	jb	SHORT $LN785@main
; File C:\Program Files (x86)\Microsoft Visual Studio\2019\Community\VC\Tools\MSVC\14.29.30133\include\xmemory

; 797  :         _Deallocate<_New_alignof<_Ty>>(_Ptr, sizeof(_Ty) * _Count);

	mov	ecx, DWORD PTR _name01$[ebp]
	lea	edx, DWORD PTR [edx*2+2]
	mov	eax, ecx

; 251  :         if (_Bytes >= _Big_allocation_threshold) { // boost the alignment of big allocations to help autovectorization

	cmp	edx, 4096				; 00001000H
	jb	SHORT $LN795@main

; 150  :     const uintptr_t _Ptr_container   = _Ptr_user[-1];

	mov	ecx, DWORD PTR [ecx-4]
	add	edx, 35					; 00000023H
	sub	eax, ecx

; 151  : 
; 152  :     // If the following asserts, it likely means that we are performing
; 153  :     // an aligned delete on memory coming from an unaligned allocation.
; 154  :     _STL_ASSERT(_Ptr_user[-2] == _Big_allocation_sentinel, "invalid argument");
; 155  : 
; 156  :     // Extra paranoia on aligned allocation/deallocation; ensure _Ptr_container is
; 157  :     // in range [_Min_back_shift, _Non_user_size]
; 158  : #ifdef _DEBUG
; 159  :     constexpr uintptr_t _Min_back_shift = 2 * sizeof(void*);
; 160  : #else // ^^^ _DEBUG ^^^ // vvv !_DEBUG vvv
; 161  :     constexpr uintptr_t _Min_back_shift = sizeof(void*);
; 162  : #endif // _DEBUG
; 163  :     const uintptr_t _Back_shift = reinterpret_cast<uintptr_t>(_Ptr) - _Ptr_container;
; 164  :     _STL_VERIFY(_Back_shift >= _Min_back_shift && _Back_shift <= _Non_user_size, "invalid argument");

	add	eax, -4					; fffffffcH
	cmp	eax, 31					; 0000001fH
	ja	SHORT $LN819@main
$LN795@main:

; 255  :         ::operator delete(_Ptr, _Bytes);

	push	edx
	push	ecx
	call	??3@YAXPAXI@Z				; operator delete
	add	esp, 8
$LN785@main:
; File C:\Program Files (x86)\Microsoft Visual Studio\2019\Community\VC\Tools\MSVC\14.29.30133\include\xstring

; 2286 :         return _BUF_SIZE <= _Myres;

	mov	edx, DWORD PTR _name00$[ebp+20]

; 4602 :             _Traits::assign(_Mypair._Myval2._Bx._Buf[0], _Elem());

	xor	eax, eax
	mov	DWORD PTR _name01$[ebp+16], 0
	mov	DWORD PTR _name01$[ebp+20], 7
	mov	WORD PTR _name01$[ebp], ax

; 2286 :         return _BUF_SIZE <= _Myres;

	cmp	edx, 16					; 00000010H

; 4584 :         if (_Mypair._Myval2._Large_string_engaged()) {

	jb	SHORT $LN812@main
; File C:\Program Files (x86)\Microsoft Visual Studio\2019\Community\VC\Tools\MSVC\14.29.30133\include\xmemory

; 797  :         _Deallocate<_New_alignof<_Ty>>(_Ptr, sizeof(_Ty) * _Count);

	mov	ecx, DWORD PTR _name00$[ebp]
; File C:\Program Files (x86)\Microsoft Visual Studio\2019\Community\VC\Tools\MSVC\14.29.30133\include\xstring

; 4588 :             _Al.deallocate(_Ptr, _Mypair._Myval2._Myres + 1);

	inc	edx
; File C:\Program Files (x86)\Microsoft Visual Studio\2019\Community\VC\Tools\MSVC\14.29.30133\include\xmemory

; 797  :         _Deallocate<_New_alignof<_Ty>>(_Ptr, sizeof(_Ty) * _Count);

	mov	eax, ecx

; 251  :         if (_Bytes >= _Big_allocation_threshold) { // boost the alignment of big allocations to help autovectorization

	cmp	edx, 4096				; 00001000H
	jb	SHORT $LN822@main

; 150  :     const uintptr_t _Ptr_container   = _Ptr_user[-1];

	mov	ecx, DWORD PTR [ecx-4]
	add	edx, 35					; 00000023H
	sub	eax, ecx

; 151  : 
; 152  :     // If the following asserts, it likely means that we are performing
; 153  :     // an aligned delete on memory coming from an unaligned allocation.
; 154  :     _STL_ASSERT(_Ptr_user[-2] == _Big_allocation_sentinel, "invalid argument");
; 155  : 
; 156  :     // Extra paranoia on aligned allocation/deallocation; ensure _Ptr_container is
; 157  :     // in range [_Min_back_shift, _Non_user_size]
; 158  : #ifdef _DEBUG
; 159  :     constexpr uintptr_t _Min_back_shift = 2 * sizeof(void*);
; 160  : #else // ^^^ _DEBUG ^^^ // vvv !_DEBUG vvv
; 161  :     constexpr uintptr_t _Min_back_shift = sizeof(void*);
; 162  : #endif // _DEBUG
; 163  :     const uintptr_t _Back_shift = reinterpret_cast<uintptr_t>(_Ptr) - _Ptr_container;
; 164  :     _STL_VERIFY(_Back_shift >= _Min_back_shift && _Back_shift <= _Non_user_size, "invalid argument");

	add	eax, -4					; fffffffcH
	cmp	eax, 31					; 0000001fH
	jbe	SHORT $LN822@main
$LN819@main:
	call	DWORD PTR __imp___invalid_parameter_noinfo_noreturn
$LN822@main:

; 255  :         ::operator delete(_Ptr, _Bytes);

	push	edx
	push	ecx
	call	??3@YAXPAXI@Z				; operator delete
	add	esp, 8
$LN812@main:
; File C:\dev\StringLiterals\StringLiterals\src\main.cpp

; 53   : }

	xor	eax, eax
	mov	ecx, DWORD PTR __$EHRec$[ebp]
	mov	DWORD PTR fs:0, ecx
	pop	ecx
	pop	edi
	pop	esi
	mov	ecx, DWORD PTR __$ArrayPad$[ebp]
	xor	ecx, ebp
	call	@__security_check_cookie@4
	mov	esp, ebp
	pop	ebp
	ret	0
$LN846@main:
_TEXT	ENDS
;	COMDAT text$x
text$x	SEGMENT
__unwindfunclet$_main$0:
	lea	ecx, DWORD PTR $T2[ebp]
	jmp	??1?$basic_string@DU?$char_traits@D@std@@V?$allocator@D@2@@std@@QAE@XZ ; std::basic_string<char,std::char_traits<char>,std::allocator<char> >::~basic_string<char,std::char_traits<char>,std::allocator<char> >
__unwindfunclet$_main$1:
	lea	ecx, DWORD PTR _name00$[ebp]
	jmp	??1?$basic_string@DU?$char_traits@D@std@@V?$allocator@D@2@@std@@QAE@XZ ; std::basic_string<char,std::char_traits<char>,std::allocator<char> >::~basic_string<char,std::char_traits<char>,std::allocator<char> >
__unwindfunclet$_main$2:
	lea	ecx, DWORD PTR $T15[ebp]
	jmp	??1?$basic_string@_WU?$char_traits@_W@std@@V?$allocator@_W@2@@std@@QAE@XZ ; std::basic_string<wchar_t,std::char_traits<wchar_t>,std::allocator<wchar_t> >::~basic_string<wchar_t,std::char_traits<wchar_t>,std::allocator<wchar_t> >
__unwindfunclet$_main$3:
	lea	ecx, DWORD PTR _name01$[ebp]
	jmp	??1?$basic_string@_WU?$char_traits@_W@std@@V?$allocator@_W@2@@std@@QAE@XZ ; std::basic_string<wchar_t,std::char_traits<wchar_t>,std::allocator<wchar_t> >::~basic_string<wchar_t,std::char_traits<wchar_t>,std::allocator<wchar_t> >
__unwindfunclet$_main$4:
	lea	ecx, DWORD PTR $T41[ebp]
	jmp	??1?$basic_string@_SU?$char_traits@_S@std@@V?$allocator@_S@2@@std@@QAE@XZ ; std::basic_string<char16_t,std::char_traits<char16_t>,std::allocator<char16_t> >::~basic_string<char16_t,std::char_traits<char16_t>,std::allocator<char16_t> >
__unwindfunclet$_main$5:
	lea	ecx, DWORD PTR _name02$[ebp]
	jmp	??1?$basic_string@_SU?$char_traits@_S@std@@V?$allocator@_S@2@@std@@QAE@XZ ; std::basic_string<char16_t,std::char_traits<char16_t>,std::allocator<char16_t> >::~basic_string<char16_t,std::char_traits<char16_t>,std::allocator<char16_t> >
__unwindfunclet$_main$6:
	lea	ecx, DWORD PTR $T67[ebp]
	jmp	??1?$basic_string@_UU?$char_traits@_U@std@@V?$allocator@_U@2@@std@@QAE@XZ ; std::basic_string<char32_t,std::char_traits<char32_t>,std::allocator<char32_t> >::~basic_string<char32_t,std::char_traits<char32_t>,std::allocator<char32_t> >
__unwindfunclet$_main$7:
	lea	ecx, DWORD PTR _name03$[ebp]
	jmp	??1?$basic_string@_UU?$char_traits@_U@std@@V?$allocator@_U@2@@std@@QAE@XZ ; std::basic_string<char32_t,std::char_traits<char32_t>,std::allocator<char32_t> >::~basic_string<char32_t,std::char_traits<char32_t>,std::allocator<char32_t> >
__unwindfunclet$_main$42:
	lea	ecx, DWORD PTR $T98[ebp]
	jmp	??1?$basic_string@DU?$char_traits@D@std@@V?$allocator@D@2@@std@@QAE@XZ ; std::basic_string<char,std::char_traits<char>,std::allocator<char> >::~basic_string<char,std::char_traits<char>,std::allocator<char> >
__unwindfunclet$_main$45:
	lea	ecx, DWORD PTR __Guard$136[ebp]
	jmp	??1_Facet_guard@locale@std@@QAE@XZ	; std::locale::_Facet_guard::~_Facet_guard
__unwindfunclet$_main$46:
	lea	ecx, DWORD PTR __Lobj$137[ebp]
	jmp	DWORD PTR __imp_??1_Locinfo@std@@QAE@XZ
__unwindfunclet$_main$8:
	lea	ecx, DWORD PTR $T97[ebp]
	jmp	??1locale@std@@QAE@XZ			; std::locale::~locale
	int	3
	int	3
	int	3
	int	3
	int	3
__ehhandler$_main:
	npad	1
	npad	1
	mov	edx, DWORD PTR [esp+8]
	lea	eax, DWORD PTR [edx+12]
	mov	ecx, DWORD PTR [edx-244]
	xor	ecx, eax
	call	@__security_check_cookie@4
	mov	ecx, DWORD PTR [edx-4]
	xor	ecx, eax
	call	@__security_check_cookie@4
	mov	eax, OFFSET __ehfuncinfo$_main
	jmp	___CxxFrameHandler3
text$x	ENDS
_main	ENDP
; Function compile flags: /Ogtp
; File C:\Program Files (x86)\Microsoft Visual Studio\2019\Community\VC\Tools\MSVC\14.29.30133\include\xstring
;	COMDAT ?_Unchecked_end@?$basic_string@_UU?$char_traits@_U@std@@V?$allocator@_U@2@@std@@QAEPA_UXZ
_TEXT	SEGMENT
?_Unchecked_end@?$basic_string@_UU?$char_traits@_U@std@@V?$allocator@_U@2@@std@@QAEPA_UXZ PROC ; std::basic_string<char32_t,std::char_traits<char32_t>,std::allocator<char32_t> >::_Unchecked_end, COMDAT
; _this$ = ecx

; 2286 :         return _BUF_SIZE <= _Myres;

	cmp	DWORD PTR [ecx+20], 4

; 2263 :         value_type* _Result = _Bx._Buf;

	mov	edx, ecx

; 2264 :         if (_Large_string_engaged()) {

	jb	SHORT $LN4@Unchecked_

; 2265 :             _Result = _Unfancy(_Bx._Ptr);

	mov	edx, DWORD PTR [ecx]
$LN4@Unchecked_:

; 3715 :         return _Mypair._Myval2._Myptr() + _Mypair._Myval2._Mysize;

	mov	eax, DWORD PTR [ecx+16]
	lea	eax, DWORD PTR [edx+eax*4]

; 3716 :     }

	ret	0
?_Unchecked_end@?$basic_string@_UU?$char_traits@_U@std@@V?$allocator@_U@2@@std@@QAEPA_UXZ ENDP ; std::basic_string<char32_t,std::char_traits<char32_t>,std::allocator<char32_t> >::_Unchecked_end
_TEXT	ENDS
; Function compile flags: /Ogtp
; File C:\Program Files (x86)\Microsoft Visual Studio\2019\Community\VC\Tools\MSVC\14.29.30133\include\xstring
;	COMDAT ?_Unchecked_begin@?$basic_string@_UU?$char_traits@_U@std@@V?$allocator@_U@2@@std@@QAEPA_UXZ
_TEXT	SEGMENT
?_Unchecked_begin@?$basic_string@_UU?$char_traits@_U@std@@V?$allocator@_U@2@@std@@QAEPA_UXZ PROC ; std::basic_string<char32_t,std::char_traits<char32_t>,std::allocator<char32_t> >::_Unchecked_begin, COMDAT
; _this$ = ecx

; 2286 :         return _BUF_SIZE <= _Myres;

	cmp	DWORD PTR [ecx+20], 4

; 2264 :         if (_Large_string_engaged()) {

	jb	SHORT $LN8@Unchecked_

; 3707 :         return _Mypair._Myval2._Myptr();

	mov	eax, DWORD PTR [ecx]

; 3708 :     }

	ret	0
$LN8@Unchecked_:

; 3707 :         return _Mypair._Myval2._Myptr();

	mov	eax, ecx

; 3708 :     }

	ret	0
?_Unchecked_begin@?$basic_string@_UU?$char_traits@_U@std@@V?$allocator@_U@2@@std@@QAEPA_UXZ ENDP ; std::basic_string<char32_t,std::char_traits<char32_t>,std::allocator<char32_t> >::_Unchecked_begin
_TEXT	ENDS
; Function compile flags: /Ogtp
; File C:\Program Files (x86)\Microsoft Visual Studio\2019\Community\VC\Tools\MSVC\14.29.30133\include\xstring
; File C:\Program Files (x86)\Microsoft Visual Studio\2019\Community\VC\Tools\MSVC\14.29.30133\include\xmemory
; File C:\Program Files (x86)\Microsoft Visual Studio\2019\Community\VC\Tools\MSVC\14.29.30133\include\xstring
; File C:\Program Files (x86)\Microsoft Visual Studio\2019\Community\VC\Tools\MSVC\14.29.30133\include\xmemory
; File C:\Program Files (x86)\Microsoft Visual Studio\2019\Community\VC\Tools\MSVC\14.29.30133\include\xstring
;	COMDAT ??1?$basic_string@_UU?$char_traits@_U@std@@V?$allocator@_U@2@@std@@QAE@XZ
_TEXT	SEGMENT
??1?$basic_string@_UU?$char_traits@_U@std@@V?$allocator@_U@2@@std@@QAE@XZ PROC ; std::basic_string<char32_t,std::char_traits<char32_t>,std::allocator<char32_t> >::~basic_string<char32_t,std::char_traits<char32_t>,std::allocator<char32_t> >, COMDAT
; _this$ = ecx

; 2968 :     _CONSTEXPR20_CONTAINER ~basic_string() noexcept {

	push	esi
	mov	esi, ecx

; 2286 :         return _BUF_SIZE <= _Myres;

	mov	ecx, DWORD PTR [esi+20]
	cmp	ecx, 4

; 4584 :         if (_Mypair._Myval2._Large_string_engaged()) {

	jb	SHORT $LN12@basic_stri
; File C:\Program Files (x86)\Microsoft Visual Studio\2019\Community\VC\Tools\MSVC\14.29.30133\include\xmemory

; 797  :         _Deallocate<_New_alignof<_Ty>>(_Ptr, sizeof(_Ty) * _Count);

	mov	eax, DWORD PTR [esi]
	lea	ecx, DWORD PTR [ecx*4+4]

; 251  :         if (_Bytes >= _Big_allocation_threshold) { // boost the alignment of big allocations to help autovectorization

	cmp	ecx, 4096				; 00001000H
	jb	SHORT $LN22@basic_stri

; 150  :     const uintptr_t _Ptr_container   = _Ptr_user[-1];

	mov	edx, DWORD PTR [eax-4]
	add	ecx, 35					; 00000023H

; 151  : 
; 152  :     // If the following asserts, it likely means that we are performing
; 153  :     // an aligned delete on memory coming from an unaligned allocation.
; 154  :     _STL_ASSERT(_Ptr_user[-2] == _Big_allocation_sentinel, "invalid argument");
; 155  : 
; 156  :     // Extra paranoia on aligned allocation/deallocation; ensure _Ptr_container is
; 157  :     // in range [_Min_back_shift, _Non_user_size]
; 158  : #ifdef _DEBUG
; 159  :     constexpr uintptr_t _Min_back_shift = 2 * sizeof(void*);
; 160  : #else // ^^^ _DEBUG ^^^ // vvv !_DEBUG vvv
; 161  :     constexpr uintptr_t _Min_back_shift = sizeof(void*);
; 162  : #endif // _DEBUG
; 163  :     const uintptr_t _Back_shift = reinterpret_cast<uintptr_t>(_Ptr) - _Ptr_container;

	sub	eax, edx

; 164  :     _STL_VERIFY(_Back_shift >= _Min_back_shift && _Back_shift <= _Non_user_size, "invalid argument");

	add	eax, -4					; fffffffcH
	cmp	eax, 31					; 0000001fH
	ja	SHORT $LN19@basic_stri

; 165  :     _Ptr = reinterpret_cast<void*>(_Ptr_container);

	mov	eax, edx
$LN22@basic_stri:

; 255  :         ::operator delete(_Ptr, _Bytes);

	push	ecx
	push	eax
	call	??3@YAXPAXI@Z				; operator delete
	add	esp, 8
$LN12@basic_stri:
; File C:\Program Files (x86)\Microsoft Visual Studio\2019\Community\VC\Tools\MSVC\14.29.30133\include\xstring

; 4599 :             _Mypair._Myval2._Mysize = 0;

	mov	DWORD PTR [esi+16], 0

; 4600 :             _Mypair._Myval2._Myres  = _BUF_SIZE - 1;

	mov	DWORD PTR [esi+20], 3

; 4601 :             // the _Traits::assign is last so the codegen doesn't think the char write can alias this
; 4602 :             _Traits::assign(_Mypair._Myval2._Bx._Buf[0], _Elem());

	mov	DWORD PTR [esi], 0
	pop	esi

; 2976 :     }

	ret	0
$LN19@basic_stri:
; File C:\Program Files (x86)\Microsoft Visual Studio\2019\Community\VC\Tools\MSVC\14.29.30133\include\xmemory

; 164  :     _STL_VERIFY(_Back_shift >= _Min_back_shift && _Back_shift <= _Non_user_size, "invalid argument");

	call	DWORD PTR __imp___invalid_parameter_noinfo_noreturn
$LN27@basic_stri:
	int	3
??1?$basic_string@_UU?$char_traits@_U@std@@V?$allocator@_U@2@@std@@QAE@XZ ENDP ; std::basic_string<char32_t,std::char_traits<char32_t>,std::allocator<char32_t> >::~basic_string<char32_t,std::char_traits<char32_t>,std::allocator<char32_t> >
_TEXT	ENDS
; Function compile flags: /Ogtp
; File C:\Program Files (x86)\Microsoft Visual Studio\2019\Community\VC\Tools\MSVC\14.29.30133\include\xstring
; File C:\Program Files (x86)\Microsoft Visual Studio\2019\Community\VC\Tools\MSVC\14.29.30133\include\xmemory
; File C:\Program Files (x86)\Microsoft Visual Studio\2019\Community\VC\Tools\MSVC\14.29.30133\include\xstring
; File C:\Program Files (x86)\Microsoft Visual Studio\2019\Community\VC\Tools\MSVC\14.29.30133\include\xmemory
; File C:\Program Files (x86)\Microsoft Visual Studio\2019\Community\VC\Tools\MSVC\14.29.30133\include\xstring
; File C:\Program Files (x86)\Microsoft Visual Studio\2019\Community\VC\Tools\MSVC\14.29.30133\include\xmemory
; File C:\Program Files (x86)\Microsoft Visual Studio\2019\Community\VC\Tools\MSVC\14.29.30133\include\xstring
;	COMDAT ??0?$basic_string@_UU?$char_traits@_U@std@@V?$allocator@_U@2@@std@@QAE@QB_UI@Z
_TEXT	SEGMENT
__Ptr$dead$ = 8						; size = 4
__Count$dead$ = 12					; size = 4
??0?$basic_string@_UU?$char_traits@_U@std@@V?$allocator@_U@2@@std@@QAE@QB_UI@Z PROC ; std::basic_string<char32_t,std::char_traits<char32_t>,std::allocator<char32_t> >::basic_string<char32_t,std::char_traits<char32_t>,std::allocator<char32_t> >, COMDAT
; _this$ = ecx

; 2465 :         : _Mypair(_Zero_then_variadic_args_t{}) {

	push	ebp
	mov	ebp, esp
	push	esi
	mov	esi, ecx
; File C:\Program Files (x86)\Microsoft Visual Studio\2019\Community\VC\Tools\MSVC\14.29.30133\include\xmemory

; 79   :         return ::operator new(_Bytes);

	push	32					; 00000020H
; File C:\Program Files (x86)\Microsoft Visual Studio\2019\Community\VC\Tools\MSVC\14.29.30133\include\xstring

; 4562 :         _My_data._Mysize = 0;

	mov	DWORD PTR [esi+16], 0

; 4563 : 
; 4564 : #ifdef __cpp_lib_constexpr_string
; 4565 :         if (_STD is_constant_evaluated()) {
; 4566 :             _My_data._Myres        = _BUF_SIZE; // SSO disabled in constexpr context
; 4567 :             auto& _Al              = _Getal();
; 4568 :             const pointer _New_ptr = _Al.allocate(_BUF_SIZE + 1); // throws
; 4569 :             _My_data._Bx._Ptr      = _New_ptr;
; 4570 : 
; 4571 :             _Elem* const _Raw_new = _Unfancy(_New_ptr);
; 4572 :             _Traits::assign(_Raw_new, _BUF_SIZE + 1, _Elem());
; 4573 :         } else
; 4574 : #endif // __cpp_lib_constexpr_string
; 4575 :         {
; 4576 :             _My_data._Myres = _BUF_SIZE - 1;

	mov	DWORD PTR [esi+20], 3

; 4577 :             // the _Traits::assign is last so the codegen doesn't think the char write can alias this
; 4578 :             _Traits::assign(_My_data._Bx._Buf[0], _Elem());

	mov	DWORD PTR [esi], 0
; File C:\Program Files (x86)\Microsoft Visual Studio\2019\Community\VC\Tools\MSVC\14.29.30133\include\xmemory

; 79   :         return ::operator new(_Bytes);

	call	??2@YAPAXI@Z				; operator new
; File C:\Program Files (x86)\Microsoft Visual Studio\2019\Community\VC\Tools\MSVC\14.29.30133\include\xstring

; 4489 :         _Mypair._Myval2._Mysize = _New_size;

	mov	DWORD PTR [esi+16], 5
; File C:\Program Files (x86)\Microsoft Visual Studio\2019\Community\VC\Tools\MSVC\14.29.30133\include\xmemory

; 79   :         return ::operator new(_Bytes);

	add	esp, 4
; File C:\Program Files (x86)\Microsoft Visual Studio\2019\Community\VC\Tools\MSVC\14.29.30133\include\xstring

; 4490 :         _Mypair._Myval2._Myres  = _New_capacity;

	mov	DWORD PTR [esi+20], 7

; 64   :         _CSTD memcpy(_First1, _First2, _Count * sizeof(_Elem));

	movups	xmm0, XMMWORD PTR ??_C@_2BI@CPCKAEFF@?$AA?$AA?$AAE?$AA?$AA?$AAt?$AA?$AA?$AAh?$AA?$AA?$AAa?$AA?$AA?$AAn@
	movups	XMMWORD PTR [eax], xmm0
	mov	ecx, DWORD PTR ??_C@_2BI@CPCKAEFF@?$AA?$AA?$AAE?$AA?$AA?$AAt?$AA?$AA?$AAh?$AA?$AA?$AAa?$AA?$AA?$AAn@+16
	mov	DWORD PTR [eax+16], ecx

; 3224 :                 _Traits::assign(_New_ptr[_Count], _Elem());

	mov	DWORD PTR [eax+20], 0

; 4496 :             _Construct_in_place(_Mypair._Myval2._Bx._Ptr, _New_ptr);

	mov	DWORD PTR [esi], eax

; 2466 :         auto&& _Alproxy = _GET_PROXY_ALLOCATOR(_Alty, _Getal());
; 2467 :         _Container_proxy_ptr<_Alty> _Proxy(_Alproxy, _Mypair._Myval2);
; 2468 :         _Tidy_init();
; 2469 :         assign(_Ptr, _Count);
; 2470 :         _Proxy._Release();
; 2471 :     }

	mov	eax, esi
	pop	esi
	pop	ebp
	ret	8
??0?$basic_string@_UU?$char_traits@_U@std@@V?$allocator@_U@2@@std@@QAE@QB_UI@Z ENDP ; std::basic_string<char32_t,std::char_traits<char32_t>,std::allocator<char32_t> >::basic_string<char32_t,std::char_traits<char32_t>,std::allocator<char32_t> >
_TEXT	ENDS
; Function compile flags: /Ogtp
; File C:\Program Files (x86)\Microsoft Visual Studio\2019\Community\VC\Tools\MSVC\14.29.30133\include\xstring
;	COMDAT ?_Unchecked_end@?$basic_string@_SU?$char_traits@_S@std@@V?$allocator@_S@2@@std@@QAEPA_SXZ
_TEXT	SEGMENT
?_Unchecked_end@?$basic_string@_SU?$char_traits@_S@std@@V?$allocator@_S@2@@std@@QAEPA_SXZ PROC ; std::basic_string<char16_t,std::char_traits<char16_t>,std::allocator<char16_t> >::_Unchecked_end, COMDAT
; _this$ = ecx

; 2286 :         return _BUF_SIZE <= _Myres;

	cmp	DWORD PTR [ecx+20], 8

; 2263 :         value_type* _Result = _Bx._Buf;

	mov	edx, ecx

; 2264 :         if (_Large_string_engaged()) {

	jb	SHORT $LN4@Unchecked_

; 2265 :             _Result = _Unfancy(_Bx._Ptr);

	mov	edx, DWORD PTR [ecx]
$LN4@Unchecked_:

; 3715 :         return _Mypair._Myval2._Myptr() + _Mypair._Myval2._Mysize;

	mov	eax, DWORD PTR [ecx+16]
	lea	eax, DWORD PTR [edx+eax*2]

; 3716 :     }

	ret	0
?_Unchecked_end@?$basic_string@_SU?$char_traits@_S@std@@V?$allocator@_S@2@@std@@QAEPA_SXZ ENDP ; std::basic_string<char16_t,std::char_traits<char16_t>,std::allocator<char16_t> >::_Unchecked_end
_TEXT	ENDS
; Function compile flags: /Ogtp
; File C:\Program Files (x86)\Microsoft Visual Studio\2019\Community\VC\Tools\MSVC\14.29.30133\include\xstring
;	COMDAT ?_Unchecked_begin@?$basic_string@_SU?$char_traits@_S@std@@V?$allocator@_S@2@@std@@QAEPA_SXZ
_TEXT	SEGMENT
?_Unchecked_begin@?$basic_string@_SU?$char_traits@_S@std@@V?$allocator@_S@2@@std@@QAEPA_SXZ PROC ; std::basic_string<char16_t,std::char_traits<char16_t>,std::allocator<char16_t> >::_Unchecked_begin, COMDAT
; _this$ = ecx

; 2286 :         return _BUF_SIZE <= _Myres;

	cmp	DWORD PTR [ecx+20], 8

; 2264 :         if (_Large_string_engaged()) {

	jb	SHORT $LN8@Unchecked_

; 3707 :         return _Mypair._Myval2._Myptr();

	mov	eax, DWORD PTR [ecx]

; 3708 :     }

	ret	0
$LN8@Unchecked_:

; 3707 :         return _Mypair._Myval2._Myptr();

	mov	eax, ecx

; 3708 :     }

	ret	0
?_Unchecked_begin@?$basic_string@_SU?$char_traits@_S@std@@V?$allocator@_S@2@@std@@QAEPA_SXZ ENDP ; std::basic_string<char16_t,std::char_traits<char16_t>,std::allocator<char16_t> >::_Unchecked_begin
_TEXT	ENDS
; Function compile flags: /Ogtp
; File C:\Program Files (x86)\Microsoft Visual Studio\2019\Community\VC\Tools\MSVC\14.29.30133\include\xstring
; File C:\Program Files (x86)\Microsoft Visual Studio\2019\Community\VC\Tools\MSVC\14.29.30133\include\xmemory
; File C:\Program Files (x86)\Microsoft Visual Studio\2019\Community\VC\Tools\MSVC\14.29.30133\include\xstring
; File C:\Program Files (x86)\Microsoft Visual Studio\2019\Community\VC\Tools\MSVC\14.29.30133\include\xmemory
; File C:\Program Files (x86)\Microsoft Visual Studio\2019\Community\VC\Tools\MSVC\14.29.30133\include\xstring
;	COMDAT ??1?$basic_string@_SU?$char_traits@_S@std@@V?$allocator@_S@2@@std@@QAE@XZ
_TEXT	SEGMENT
??1?$basic_string@_SU?$char_traits@_S@std@@V?$allocator@_S@2@@std@@QAE@XZ PROC ; std::basic_string<char16_t,std::char_traits<char16_t>,std::allocator<char16_t> >::~basic_string<char16_t,std::char_traits<char16_t>,std::allocator<char16_t> >, COMDAT
; _this$ = ecx

; 2968 :     _CONSTEXPR20_CONTAINER ~basic_string() noexcept {

	push	esi
	mov	esi, ecx

; 2286 :         return _BUF_SIZE <= _Myres;

	mov	ecx, DWORD PTR [esi+20]
	cmp	ecx, 8

; 4584 :         if (_Mypair._Myval2._Large_string_engaged()) {

	jb	SHORT $LN12@basic_stri
; File C:\Program Files (x86)\Microsoft Visual Studio\2019\Community\VC\Tools\MSVC\14.29.30133\include\xmemory

; 797  :         _Deallocate<_New_alignof<_Ty>>(_Ptr, sizeof(_Ty) * _Count);

	mov	eax, DWORD PTR [esi]
	lea	ecx, DWORD PTR [ecx*2+2]

; 251  :         if (_Bytes >= _Big_allocation_threshold) { // boost the alignment of big allocations to help autovectorization

	cmp	ecx, 4096				; 00001000H
	jb	SHORT $LN22@basic_stri

; 150  :     const uintptr_t _Ptr_container   = _Ptr_user[-1];

	mov	edx, DWORD PTR [eax-4]
	add	ecx, 35					; 00000023H

; 151  : 
; 152  :     // If the following asserts, it likely means that we are performing
; 153  :     // an aligned delete on memory coming from an unaligned allocation.
; 154  :     _STL_ASSERT(_Ptr_user[-2] == _Big_allocation_sentinel, "invalid argument");
; 155  : 
; 156  :     // Extra paranoia on aligned allocation/deallocation; ensure _Ptr_container is
; 157  :     // in range [_Min_back_shift, _Non_user_size]
; 158  : #ifdef _DEBUG
; 159  :     constexpr uintptr_t _Min_back_shift = 2 * sizeof(void*);
; 160  : #else // ^^^ _DEBUG ^^^ // vvv !_DEBUG vvv
; 161  :     constexpr uintptr_t _Min_back_shift = sizeof(void*);
; 162  : #endif // _DEBUG
; 163  :     const uintptr_t _Back_shift = reinterpret_cast<uintptr_t>(_Ptr) - _Ptr_container;

	sub	eax, edx

; 164  :     _STL_VERIFY(_Back_shift >= _Min_back_shift && _Back_shift <= _Non_user_size, "invalid argument");

	add	eax, -4					; fffffffcH
	cmp	eax, 31					; 0000001fH
	ja	SHORT $LN19@basic_stri

; 165  :     _Ptr = reinterpret_cast<void*>(_Ptr_container);

	mov	eax, edx
$LN22@basic_stri:

; 255  :         ::operator delete(_Ptr, _Bytes);

	push	ecx
	push	eax
	call	??3@YAXPAXI@Z				; operator delete
	add	esp, 8
$LN12@basic_stri:
; File C:\Program Files (x86)\Microsoft Visual Studio\2019\Community\VC\Tools\MSVC\14.29.30133\include\xstring

; 4602 :             _Traits::assign(_Mypair._Myval2._Bx._Buf[0], _Elem());

	xor	eax, eax
	mov	DWORD PTR [esi+16], 0
	mov	DWORD PTR [esi+20], 7
	mov	WORD PTR [esi], ax
	pop	esi

; 2976 :     }

	ret	0
$LN19@basic_stri:
; File C:\Program Files (x86)\Microsoft Visual Studio\2019\Community\VC\Tools\MSVC\14.29.30133\include\xmemory

; 164  :     _STL_VERIFY(_Back_shift >= _Min_back_shift && _Back_shift <= _Non_user_size, "invalid argument");

	call	DWORD PTR __imp___invalid_parameter_noinfo_noreturn
$LN27@basic_stri:
	int	3
??1?$basic_string@_SU?$char_traits@_S@std@@V?$allocator@_S@2@@std@@QAE@XZ ENDP ; std::basic_string<char16_t,std::char_traits<char16_t>,std::allocator<char16_t> >::~basic_string<char16_t,std::char_traits<char16_t>,std::allocator<char16_t> >
_TEXT	ENDS
; Function compile flags: /Ogtp
; File C:\Program Files (x86)\Microsoft Visual Studio\2019\Community\VC\Tools\MSVC\14.29.30133\include\xstring
;	COMDAT ??0?$basic_string@_SU?$char_traits@_S@std@@V?$allocator@_S@2@@std@@QAE@QB_SI@Z
_TEXT	SEGMENT
__Ptr$dead$ = 8						; size = 4
__Count$dead$ = 12					; size = 4
??0?$basic_string@_SU?$char_traits@_S@std@@V?$allocator@_S@2@@std@@QAE@QB_SI@Z PROC ; std::basic_string<char16_t,std::char_traits<char16_t>,std::allocator<char16_t> >::basic_string<char16_t,std::char_traits<char16_t>,std::allocator<char16_t> >, COMDAT
; _this$ = ecx

; 2465 :         : _Mypair(_Zero_then_variadic_args_t{}) {

	push	ebp
	mov	ebp, esp
	push	esi
	mov	esi, ecx

; 121  :         _CSTD memmove(_First1, _First2, _Count * sizeof(_Elem));

	push	10					; 0000000aH
	push	OFFSET ??_C@_1M@MIBHDLFD@?$AAE?$AAt?$AAh?$AAa?$AAn@
	push	esi

; 2313 :         _CONSTEXPR20_CONTAINER _Bxty() noexcept : _Ptr() {} // user-provided, for fancy pointers

	mov	DWORD PTR [esi], 0

; 4576 :             _My_data._Myres = _BUF_SIZE - 1;

	mov	DWORD PTR [esi+20], 7

; 3214 :             _Mypair._Myval2._Mysize = _Count;

	mov	DWORD PTR [esi+16], 5

; 121  :         _CSTD memmove(_First1, _First2, _Count * sizeof(_Elem));

	call	_memmove
	add	esp, 12					; 0000000cH

; 3216 :             _Traits::assign(_Old_ptr[_Count], _Elem());

	xor	eax, eax
	mov	WORD PTR [esi+10], ax

; 2466 :         auto&& _Alproxy = _GET_PROXY_ALLOCATOR(_Alty, _Getal());
; 2467 :         _Container_proxy_ptr<_Alty> _Proxy(_Alproxy, _Mypair._Myval2);
; 2468 :         _Tidy_init();
; 2469 :         assign(_Ptr, _Count);
; 2470 :         _Proxy._Release();
; 2471 :     }

	mov	eax, esi
	pop	esi
	pop	ebp
	ret	8
??0?$basic_string@_SU?$char_traits@_S@std@@V?$allocator@_S@2@@std@@QAE@QB_SI@Z ENDP ; std::basic_string<char16_t,std::char_traits<char16_t>,std::allocator<char16_t> >::basic_string<char16_t,std::char_traits<char16_t>,std::allocator<char16_t> >
_TEXT	ENDS
; Function compile flags: /Ogtp
; File C:\Program Files (x86)\Microsoft Visual Studio\2019\Community\VC\Tools\MSVC\14.29.30133\include\xstring
; File C:\Program Files (x86)\Microsoft Visual Studio\2019\Community\VC\Tools\MSVC\14.29.30133\include\xmemory
; File C:\Program Files (x86)\Microsoft Visual Studio\2019\Community\VC\Tools\MSVC\14.29.30133\include\xstring
; File C:\Program Files (x86)\Microsoft Visual Studio\2019\Community\VC\Tools\MSVC\14.29.30133\include\xmemory
; File C:\Program Files (x86)\Microsoft Visual Studio\2019\Community\VC\Tools\MSVC\14.29.30133\include\xstring
;	COMDAT ??1?$basic_string@_WU?$char_traits@_W@std@@V?$allocator@_W@2@@std@@QAE@XZ
_TEXT	SEGMENT
??1?$basic_string@_WU?$char_traits@_W@std@@V?$allocator@_W@2@@std@@QAE@XZ PROC ; std::basic_string<wchar_t,std::char_traits<wchar_t>,std::allocator<wchar_t> >::~basic_string<wchar_t,std::char_traits<wchar_t>,std::allocator<wchar_t> >, COMDAT
; _this$ = ecx

; 2968 :     _CONSTEXPR20_CONTAINER ~basic_string() noexcept {

	push	esi
	mov	esi, ecx

; 2286 :         return _BUF_SIZE <= _Myres;

	mov	ecx, DWORD PTR [esi+20]
	cmp	ecx, 8

; 4584 :         if (_Mypair._Myval2._Large_string_engaged()) {

	jb	SHORT $LN12@basic_stri
; File C:\Program Files (x86)\Microsoft Visual Studio\2019\Community\VC\Tools\MSVC\14.29.30133\include\xmemory

; 797  :         _Deallocate<_New_alignof<_Ty>>(_Ptr, sizeof(_Ty) * _Count);

	mov	eax, DWORD PTR [esi]
	lea	ecx, DWORD PTR [ecx*2+2]

; 251  :         if (_Bytes >= _Big_allocation_threshold) { // boost the alignment of big allocations to help autovectorization

	cmp	ecx, 4096				; 00001000H
	jb	SHORT $LN22@basic_stri

; 150  :     const uintptr_t _Ptr_container   = _Ptr_user[-1];

	mov	edx, DWORD PTR [eax-4]
	add	ecx, 35					; 00000023H

; 151  : 
; 152  :     // If the following asserts, it likely means that we are performing
; 153  :     // an aligned delete on memory coming from an unaligned allocation.
; 154  :     _STL_ASSERT(_Ptr_user[-2] == _Big_allocation_sentinel, "invalid argument");
; 155  : 
; 156  :     // Extra paranoia on aligned allocation/deallocation; ensure _Ptr_container is
; 157  :     // in range [_Min_back_shift, _Non_user_size]
; 158  : #ifdef _DEBUG
; 159  :     constexpr uintptr_t _Min_back_shift = 2 * sizeof(void*);
; 160  : #else // ^^^ _DEBUG ^^^ // vvv !_DEBUG vvv
; 161  :     constexpr uintptr_t _Min_back_shift = sizeof(void*);
; 162  : #endif // _DEBUG
; 163  :     const uintptr_t _Back_shift = reinterpret_cast<uintptr_t>(_Ptr) - _Ptr_container;

	sub	eax, edx

; 164  :     _STL_VERIFY(_Back_shift >= _Min_back_shift && _Back_shift <= _Non_user_size, "invalid argument");

	add	eax, -4					; fffffffcH
	cmp	eax, 31					; 0000001fH
	ja	SHORT $LN19@basic_stri

; 165  :     _Ptr = reinterpret_cast<void*>(_Ptr_container);

	mov	eax, edx
$LN22@basic_stri:

; 255  :         ::operator delete(_Ptr, _Bytes);

	push	ecx
	push	eax
	call	??3@YAXPAXI@Z				; operator delete
	add	esp, 8
$LN12@basic_stri:
; File C:\Program Files (x86)\Microsoft Visual Studio\2019\Community\VC\Tools\MSVC\14.29.30133\include\xstring

; 4602 :             _Traits::assign(_Mypair._Myval2._Bx._Buf[0], _Elem());

	xor	eax, eax
	mov	DWORD PTR [esi+16], 0
	mov	DWORD PTR [esi+20], 7
	mov	WORD PTR [esi], ax
	pop	esi

; 2976 :     }

	ret	0
$LN19@basic_stri:
; File C:\Program Files (x86)\Microsoft Visual Studio\2019\Community\VC\Tools\MSVC\14.29.30133\include\xmemory

; 164  :     _STL_VERIFY(_Back_shift >= _Min_back_shift && _Back_shift <= _Non_user_size, "invalid argument");

	call	DWORD PTR __imp___invalid_parameter_noinfo_noreturn
$LN27@basic_stri:
	int	3
??1?$basic_string@_WU?$char_traits@_W@std@@V?$allocator@_W@2@@std@@QAE@XZ ENDP ; std::basic_string<wchar_t,std::char_traits<wchar_t>,std::allocator<wchar_t> >::~basic_string<wchar_t,std::char_traits<wchar_t>,std::allocator<wchar_t> >
_TEXT	ENDS
; Function compile flags: /Ogtp
; File C:\Program Files (x86)\Microsoft Visual Studio\2019\Community\VC\Tools\MSVC\14.29.30133\include\xstring
;	COMDAT ??0?$basic_string@_WU?$char_traits@_W@std@@V?$allocator@_W@2@@std@@QAE@$$QAV01@@Z
_TEXT	SEGMENT
__Right$ = 8						; size = 4
??0?$basic_string@_WU?$char_traits@_W@std@@V?$allocator@_W@2@@std@@QAE@$$QAV01@@Z PROC ; std::basic_string<wchar_t,std::char_traits<wchar_t>,std::allocator<wchar_t> >::basic_string<wchar_t,std::char_traits<wchar_t>,std::allocator<wchar_t> >, COMDAT
; _this$ = ecx

; 2571 :         : _Mypair(_One_then_variadic_args_t{}, _STD move(_Right._Getal())) {

	push	ebp
	mov	ebp, esp

; 2835 :         _CSTD memcpy(_My_data_mem, _Right_data_mem, _Memcpy_val_size);

	mov	eax, DWORD PTR __Right$[ebp]

; 4578 :             _Traits::assign(_My_data._Bx._Buf[0], _Elem());

	xor	edx, edx

; 2313 :         _CONSTEXPR20_CONTAINER _Bxty() noexcept : _Ptr() {} // user-provided, for fancy pointers

	mov	DWORD PTR [ecx], 0

; 2322 :     size_type _Mysize = 0; // current length of string

	mov	DWORD PTR [ecx+16], 0

; 2323 :     size_type _Myres  = 0; // current storage reserved for string

	mov	DWORD PTR [ecx+20], 0

; 2835 :         _CSTD memcpy(_My_data_mem, _Right_data_mem, _Memcpy_val_size);

	movups	xmm0, XMMWORD PTR [eax]
	movups	XMMWORD PTR [ecx], xmm0
	movq	xmm0, QWORD PTR [eax+16]
	movq	QWORD PTR [ecx+16], xmm0

; 4562 :         _My_data._Mysize = 0;

	mov	DWORD PTR [eax+16], 0

; 4563 : 
; 4564 : #ifdef __cpp_lib_constexpr_string
; 4565 :         if (_STD is_constant_evaluated()) {
; 4566 :             _My_data._Myres        = _BUF_SIZE; // SSO disabled in constexpr context
; 4567 :             auto& _Al              = _Getal();
; 4568 :             const pointer _New_ptr = _Al.allocate(_BUF_SIZE + 1); // throws
; 4569 :             _My_data._Bx._Ptr      = _New_ptr;
; 4570 : 
; 4571 :             _Elem* const _Raw_new = _Unfancy(_New_ptr);
; 4572 :             _Traits::assign(_Raw_new, _BUF_SIZE + 1, _Elem());
; 4573 :         } else
; 4574 : #endif // __cpp_lib_constexpr_string
; 4575 :         {
; 4576 :             _My_data._Myres = _BUF_SIZE - 1;

	mov	DWORD PTR [eax+20], 7

; 4577 :             // the _Traits::assign is last so the codegen doesn't think the char write can alias this
; 4578 :             _Traits::assign(_My_data._Bx._Buf[0], _Elem());

	mov	WORD PTR [eax], dx

; 2572 :         _Mypair._Myval2._Alloc_proxy(_GET_PROXY_ALLOCATOR(_Alty, _Getal()));
; 2573 :         _Take_contents(_Right);
; 2574 :     }

	mov	eax, ecx
	pop	ebp
	ret	4
??0?$basic_string@_WU?$char_traits@_W@std@@V?$allocator@_W@2@@std@@QAE@$$QAV01@@Z ENDP ; std::basic_string<wchar_t,std::char_traits<wchar_t>,std::allocator<wchar_t> >::basic_string<wchar_t,std::char_traits<wchar_t>,std::allocator<wchar_t> >
_TEXT	ENDS
; Function compile flags: /Ogtp
; File C:\Program Files (x86)\Microsoft Visual Studio\2019\Community\VC\Tools\MSVC\14.29.30133\include\xstring
;	COMDAT ??0?$basic_string@_WU?$char_traits@_W@std@@V?$allocator@_W@2@@std@@QAE@QB_WI@Z
_TEXT	SEGMENT
__Ptr$dead$ = 8						; size = 4
__Count$dead$ = 12					; size = 4
??0?$basic_string@_WU?$char_traits@_W@std@@V?$allocator@_W@2@@std@@QAE@QB_WI@Z PROC ; std::basic_string<wchar_t,std::char_traits<wchar_t>,std::allocator<wchar_t> >::basic_string<wchar_t,std::char_traits<wchar_t>,std::allocator<wchar_t> >, COMDAT
; _this$ = ecx

; 2465 :         : _Mypair(_Zero_then_variadic_args_t{}) {

	push	ebp
	mov	ebp, esp
	push	esi
	mov	esi, ecx

; 121  :         _CSTD memmove(_First1, _First2, _Count * sizeof(_Elem));

	push	10					; 0000000aH
	push	OFFSET ??_C@_1M@MIBHDLFD@?$AAE?$AAt?$AAh?$AAa?$AAn@
	push	esi

; 2313 :         _CONSTEXPR20_CONTAINER _Bxty() noexcept : _Ptr() {} // user-provided, for fancy pointers

	mov	DWORD PTR [esi], 0

; 4576 :             _My_data._Myres = _BUF_SIZE - 1;

	mov	DWORD PTR [esi+20], 7

; 3214 :             _Mypair._Myval2._Mysize = _Count;

	mov	DWORD PTR [esi+16], 5

; 121  :         _CSTD memmove(_First1, _First2, _Count * sizeof(_Elem));

	call	_memmove
	add	esp, 12					; 0000000cH

; 3216 :             _Traits::assign(_Old_ptr[_Count], _Elem());

	xor	eax, eax
	mov	WORD PTR [esi+10], ax

; 2466 :         auto&& _Alproxy = _GET_PROXY_ALLOCATOR(_Alty, _Getal());
; 2467 :         _Container_proxy_ptr<_Alty> _Proxy(_Alproxy, _Mypair._Myval2);
; 2468 :         _Tidy_init();
; 2469 :         assign(_Ptr, _Count);
; 2470 :         _Proxy._Release();
; 2471 :     }

	mov	eax, esi
	pop	esi
	pop	ebp
	ret	8
??0?$basic_string@_WU?$char_traits@_W@std@@V?$allocator@_W@2@@std@@QAE@QB_WI@Z ENDP ; std::basic_string<wchar_t,std::char_traits<wchar_t>,std::allocator<wchar_t> >::basic_string<wchar_t,std::char_traits<wchar_t>,std::allocator<wchar_t> >
_TEXT	ENDS
; Function compile flags: /Ogtp
; File C:\Program Files (x86)\Microsoft Visual Studio\2019\Community\VC\Tools\MSVC\14.29.30133\include\xstring
;	COMDAT ?c_str@?$basic_string@DU?$char_traits@D@std@@V?$allocator@D@2@@std@@QBEPBDXZ
_TEXT	SEGMENT
?c_str@?$basic_string@DU?$char_traits@D@std@@V?$allocator@D@2@@std@@QBEPBDXZ PROC ; std::basic_string<char,std::char_traits<char>,std::allocator<char> >::c_str, COMDAT
; _this$ = ecx

; 2286 :         return _BUF_SIZE <= _Myres;

	cmp	DWORD PTR [ecx+20], 16			; 00000010H

; 2273 :         if (_Large_string_engaged()) {

	jb	SHORT $LN8@c_str

; 3888 :         return _Mypair._Myval2._Myptr();

	mov	eax, DWORD PTR [ecx]

; 3889 :     }

	ret	0
$LN8@c_str:

; 3888 :         return _Mypair._Myval2._Myptr();

	mov	eax, ecx

; 3889 :     }

	ret	0
?c_str@?$basic_string@DU?$char_traits@D@std@@V?$allocator@D@2@@std@@QBEPBDXZ ENDP ; std::basic_string<char,std::char_traits<char>,std::allocator<char> >::c_str
_TEXT	ENDS
; Function compile flags: /Ogtp
; File C:\Program Files (x86)\Microsoft Visual Studio\2019\Community\VC\Tools\MSVC\14.29.30133\include\xstring
;	COMDAT ?append@?$basic_string@DU?$char_traits@D@std@@V?$allocator@D@2@@std@@QAEAAV12@QBD@Z
_TEXT	SEGMENT
$T5 = -4						; size = 1
__Ptr$dead$ = 8						; size = 4
?append@?$basic_string@DU?$char_traits@D@std@@V?$allocator@D@2@@std@@QAEAAV12@QBD@Z PROC ; std::basic_string<char,std::char_traits<char>,std::allocator<char> >::append, COMDAT
; _this$ = ecx

; 3140 :     _CONSTEXPR20_CONTAINER basic_string& append(_In_z_ const _Elem* const _Ptr) { // append [_Ptr, <null>)

	push	ebp
	mov	ebp, esp
	push	ecx
	mov	edx, ecx
	push	esi

; 3121 :         if (_Count <= _Mypair._Myval2._Myres - _Old_size) {

	mov	ecx, DWORD PTR [edx+20]
	mov	eax, ecx
	mov	esi, DWORD PTR [edx+16]
	sub	eax, esi
	cmp	eax, 2
	jb	SHORT $LN6@append

; 3122 :             _Mypair._Myval2._Mysize = _Old_size + _Count;

	lea	eax, DWORD PTR [esi+2]
	mov	DWORD PTR [edx+16], eax

; 2263 :         value_type* _Result = _Bx._Buf;

	mov	eax, edx

; 2286 :         return _BUF_SIZE <= _Myres;

	cmp	ecx, 16					; 00000010H

; 2264 :         if (_Large_string_engaged()) {

	jb	SHORT $LN9@append

; 2265 :             _Result = _Unfancy(_Bx._Ptr);

	mov	eax, DWORD PTR [edx]
$LN9@append:

; 121  :         _CSTD memmove(_First1, _First2, _Count * sizeof(_Elem));

	mov	cx, WORD PTR ??_C@_02PLJDPFIO@00@
	mov	WORD PTR [eax+esi], cx

; 3125 :             _Traits::assign(_Old_ptr[_Old_size + _Count], _Elem());

	mov	BYTE PTR [eax+esi+2], 0

; 3141 :         return append(_Ptr, _Convert_size<size_type>(_Traits::length(_Ptr)));

	mov	eax, edx
	pop	esi

; 3142 :     }

	mov	esp, ebp
	pop	ebp
	ret	4
$LN6@append:

; 3129 :         return _Reallocate_grow_by(

	push	2
	push	ecx
	mov	BYTE PTR $T5[ebp], 0
	mov	ecx, edx
	push	DWORD PTR $T5[ebp]
	push	2
	call	??$_Reallocate_grow_by@V<lambda_ab246b20b9526e2ef7792587e4298a77>@@PBDI@?$basic_string@DU?$char_traits@D@std@@V?$allocator@D@2@@std@@AAEAAV01@IV<lambda_ab246b20b9526e2ef7792587e4298a77>@@PBDI@Z ; std::basic_string<char,std::char_traits<char>,std::allocator<char> >::_Reallocate_grow_by<<lambda_ab246b20b9526e2ef7792587e4298a77>,char const *,unsigned int>
	pop	esi

; 3142 :     }

	mov	esp, ebp
	pop	ebp
	ret	4
?append@?$basic_string@DU?$char_traits@D@std@@V?$allocator@D@2@@std@@QAEAAV12@QBD@Z ENDP ; std::basic_string<char,std::char_traits<char>,std::allocator<char> >::append
_TEXT	ENDS
; Function compile flags: /Ogtp
; File C:\Program Files (x86)\Microsoft Visual Studio\2019\Community\VC\Tools\MSVC\14.29.30133\include\xstring
; File C:\Program Files (x86)\Microsoft Visual Studio\2019\Community\VC\Tools\MSVC\14.29.30133\include\xmemory
; File C:\Program Files (x86)\Microsoft Visual Studio\2019\Community\VC\Tools\MSVC\14.29.30133\include\xstring
; File C:\Program Files (x86)\Microsoft Visual Studio\2019\Community\VC\Tools\MSVC\14.29.30133\include\xmemory
; File C:\Program Files (x86)\Microsoft Visual Studio\2019\Community\VC\Tools\MSVC\14.29.30133\include\xstring
; File C:\Program Files (x86)\Microsoft Visual Studio\2019\Community\VC\Tools\MSVC\14.29.30133\include\xmemory
; File C:\Program Files (x86)\Microsoft Visual Studio\2019\Community\VC\Tools\MSVC\14.29.30133\include\xstring
;	COMDAT ??1?$basic_string@DU?$char_traits@D@std@@V?$allocator@D@2@@std@@QAE@XZ
_TEXT	SEGMENT
??1?$basic_string@DU?$char_traits@D@std@@V?$allocator@D@2@@std@@QAE@XZ PROC ; std::basic_string<char,std::char_traits<char>,std::allocator<char> >::~basic_string<char,std::char_traits<char>,std::allocator<char> >, COMDAT
; _this$ = ecx

; 2968 :     _CONSTEXPR20_CONTAINER ~basic_string() noexcept {

	push	esi
	mov	esi, ecx

; 2286 :         return _BUF_SIZE <= _Myres;

	mov	ecx, DWORD PTR [esi+20]
	cmp	ecx, 16					; 00000010H

; 4584 :         if (_Mypair._Myval2._Large_string_engaged()) {

	jb	SHORT $LN12@basic_stri
; File C:\Program Files (x86)\Microsoft Visual Studio\2019\Community\VC\Tools\MSVC\14.29.30133\include\xmemory

; 797  :         _Deallocate<_New_alignof<_Ty>>(_Ptr, sizeof(_Ty) * _Count);

	mov	eax, DWORD PTR [esi]
; File C:\Program Files (x86)\Microsoft Visual Studio\2019\Community\VC\Tools\MSVC\14.29.30133\include\xstring

; 4588 :             _Al.deallocate(_Ptr, _Mypair._Myval2._Myres + 1);

	inc	ecx
; File C:\Program Files (x86)\Microsoft Visual Studio\2019\Community\VC\Tools\MSVC\14.29.30133\include\xmemory

; 251  :         if (_Bytes >= _Big_allocation_threshold) { // boost the alignment of big allocations to help autovectorization

	cmp	ecx, 4096				; 00001000H
	jb	SHORT $LN22@basic_stri

; 150  :     const uintptr_t _Ptr_container   = _Ptr_user[-1];

	mov	edx, DWORD PTR [eax-4]
	add	ecx, 35					; 00000023H

; 151  : 
; 152  :     // If the following asserts, it likely means that we are performing
; 153  :     // an aligned delete on memory coming from an unaligned allocation.
; 154  :     _STL_ASSERT(_Ptr_user[-2] == _Big_allocation_sentinel, "invalid argument");
; 155  : 
; 156  :     // Extra paranoia on aligned allocation/deallocation; ensure _Ptr_container is
; 157  :     // in range [_Min_back_shift, _Non_user_size]
; 158  : #ifdef _DEBUG
; 159  :     constexpr uintptr_t _Min_back_shift = 2 * sizeof(void*);
; 160  : #else // ^^^ _DEBUG ^^^ // vvv !_DEBUG vvv
; 161  :     constexpr uintptr_t _Min_back_shift = sizeof(void*);
; 162  : #endif // _DEBUG
; 163  :     const uintptr_t _Back_shift = reinterpret_cast<uintptr_t>(_Ptr) - _Ptr_container;

	sub	eax, edx

; 164  :     _STL_VERIFY(_Back_shift >= _Min_back_shift && _Back_shift <= _Non_user_size, "invalid argument");

	add	eax, -4					; fffffffcH
	cmp	eax, 31					; 0000001fH
	ja	SHORT $LN19@basic_stri

; 165  :     _Ptr = reinterpret_cast<void*>(_Ptr_container);

	mov	eax, edx
$LN22@basic_stri:

; 255  :         ::operator delete(_Ptr, _Bytes);

	push	ecx
	push	eax
	call	??3@YAXPAXI@Z				; operator delete
	add	esp, 8
$LN12@basic_stri:
; File C:\Program Files (x86)\Microsoft Visual Studio\2019\Community\VC\Tools\MSVC\14.29.30133\include\xstring

; 4599 :             _Mypair._Myval2._Mysize = 0;

	mov	DWORD PTR [esi+16], 0

; 4600 :             _Mypair._Myval2._Myres  = _BUF_SIZE - 1;

	mov	DWORD PTR [esi+20], 15			; 0000000fH

; 4601 :             // the _Traits::assign is last so the codegen doesn't think the char write can alias this
; 4602 :             _Traits::assign(_Mypair._Myval2._Bx._Buf[0], _Elem());

	mov	BYTE PTR [esi], 0
	pop	esi

; 2976 :     }

	ret	0
$LN19@basic_stri:
; File C:\Program Files (x86)\Microsoft Visual Studio\2019\Community\VC\Tools\MSVC\14.29.30133\include\xmemory

; 164  :     _STL_VERIFY(_Back_shift >= _Min_back_shift && _Back_shift <= _Non_user_size, "invalid argument");

	call	DWORD PTR __imp___invalid_parameter_noinfo_noreturn
$LN27@basic_stri:
	int	3
??1?$basic_string@DU?$char_traits@D@std@@V?$allocator@D@2@@std@@QAE@XZ ENDP ; std::basic_string<char,std::char_traits<char>,std::allocator<char> >::~basic_string<char,std::char_traits<char>,std::allocator<char> >
_TEXT	ENDS
; Function compile flags: /Ogtp
; File C:\Program Files (x86)\Microsoft Visual Studio\2019\Community\VC\Tools\MSVC\14.29.30133\include\xstring
;	COMDAT ??0?$basic_string@DU?$char_traits@D@std@@V?$allocator@D@2@@std@@QAE@$$QAV01@@Z
_TEXT	SEGMENT
__Right$ = 8						; size = 4
??0?$basic_string@DU?$char_traits@D@std@@V?$allocator@D@2@@std@@QAE@$$QAV01@@Z PROC ; std::basic_string<char,std::char_traits<char>,std::allocator<char> >::basic_string<char,std::char_traits<char>,std::allocator<char> >, COMDAT
; _this$ = ecx

; 2571 :         : _Mypair(_One_then_variadic_args_t{}, _STD move(_Right._Getal())) {

	push	ebp
	mov	ebp, esp

; 2835 :         _CSTD memcpy(_My_data_mem, _Right_data_mem, _Memcpy_val_size);

	mov	eax, DWORD PTR __Right$[ebp]

; 2313 :         _CONSTEXPR20_CONTAINER _Bxty() noexcept : _Ptr() {} // user-provided, for fancy pointers

	mov	DWORD PTR [ecx], 0

; 2322 :     size_type _Mysize = 0; // current length of string

	mov	DWORD PTR [ecx+16], 0

; 2323 :     size_type _Myres  = 0; // current storage reserved for string

	mov	DWORD PTR [ecx+20], 0

; 2835 :         _CSTD memcpy(_My_data_mem, _Right_data_mem, _Memcpy_val_size);

	movups	xmm0, XMMWORD PTR [eax]
	movups	XMMWORD PTR [ecx], xmm0
	movq	xmm0, QWORD PTR [eax+16]
	movq	QWORD PTR [ecx+16], xmm0

; 4562 :         _My_data._Mysize = 0;

	mov	DWORD PTR [eax+16], 0

; 4563 : 
; 4564 : #ifdef __cpp_lib_constexpr_string
; 4565 :         if (_STD is_constant_evaluated()) {
; 4566 :             _My_data._Myres        = _BUF_SIZE; // SSO disabled in constexpr context
; 4567 :             auto& _Al              = _Getal();
; 4568 :             const pointer _New_ptr = _Al.allocate(_BUF_SIZE + 1); // throws
; 4569 :             _My_data._Bx._Ptr      = _New_ptr;
; 4570 : 
; 4571 :             _Elem* const _Raw_new = _Unfancy(_New_ptr);
; 4572 :             _Traits::assign(_Raw_new, _BUF_SIZE + 1, _Elem());
; 4573 :         } else
; 4574 : #endif // __cpp_lib_constexpr_string
; 4575 :         {
; 4576 :             _My_data._Myres = _BUF_SIZE - 1;

	mov	DWORD PTR [eax+20], 15			; 0000000fH

; 4577 :             // the _Traits::assign is last so the codegen doesn't think the char write can alias this
; 4578 :             _Traits::assign(_My_data._Bx._Buf[0], _Elem());

	mov	BYTE PTR [eax], 0

; 2572 :         _Mypair._Myval2._Alloc_proxy(_GET_PROXY_ALLOCATOR(_Alty, _Getal()));
; 2573 :         _Take_contents(_Right);
; 2574 :     }

	mov	eax, ecx
	pop	ebp
	ret	4
??0?$basic_string@DU?$char_traits@D@std@@V?$allocator@D@2@@std@@QAE@$$QAV01@@Z ENDP ; std::basic_string<char,std::char_traits<char>,std::allocator<char> >::basic_string<char,std::char_traits<char>,std::allocator<char> >
_TEXT	ENDS
; Function compile flags: /Ogtp
; File C:\Program Files (x86)\Microsoft Visual Studio\2019\Community\VC\Tools\MSVC\14.29.30133\include\xstring
;	COMDAT ??0?$basic_string@DU?$char_traits@D@std@@V?$allocator@D@2@@std@@QAE@QBD@Z
_TEXT	SEGMENT
__Ptr$dead$ = 8						; size = 4
??0?$basic_string@DU?$char_traits@D@std@@V?$allocator@D@2@@std@@QAE@QBD@Z PROC ; std::basic_string<char,std::char_traits<char>,std::allocator<char> >::basic_string<char,std::char_traits<char>,std::allocator<char> >, COMDAT
; _this$ = ecx

; 2483 :     _CONSTEXPR20_CONTAINER basic_string(_In_z_ const _Elem* const _Ptr) : _Mypair(_Zero_then_variadic_args_t{}) {

	push	esi
	mov	esi, ecx

; 3230 :         return assign(_Ptr, _Convert_size<size_type>(_Traits::length(_Ptr)));

	push	3
	push	OFFSET ??_C@_03LFPOMIKD@chs@

; 2313 :         _CONSTEXPR20_CONTAINER _Bxty() noexcept : _Ptr() {} // user-provided, for fancy pointers

	mov	DWORD PTR [esi], 0

; 4562 :         _My_data._Mysize = 0;

	mov	DWORD PTR [esi+16], 0

; 4563 : 
; 4564 : #ifdef __cpp_lib_constexpr_string
; 4565 :         if (_STD is_constant_evaluated()) {
; 4566 :             _My_data._Myres        = _BUF_SIZE; // SSO disabled in constexpr context
; 4567 :             auto& _Al              = _Getal();
; 4568 :             const pointer _New_ptr = _Al.allocate(_BUF_SIZE + 1); // throws
; 4569 :             _My_data._Bx._Ptr      = _New_ptr;
; 4570 : 
; 4571 :             _Elem* const _Raw_new = _Unfancy(_New_ptr);
; 4572 :             _Traits::assign(_Raw_new, _BUF_SIZE + 1, _Elem());
; 4573 :         } else
; 4574 : #endif // __cpp_lib_constexpr_string
; 4575 :         {
; 4576 :             _My_data._Myres = _BUF_SIZE - 1;

	mov	DWORD PTR [esi+20], 15			; 0000000fH

; 3230 :         return assign(_Ptr, _Convert_size<size_type>(_Traits::length(_Ptr)));

	call	?assign@?$basic_string@DU?$char_traits@D@std@@V?$allocator@D@2@@std@@QAEAAV12@QBDI@Z ; std::basic_string<char,std::char_traits<char>,std::allocator<char> >::assign

; 2484 :         auto&& _Alproxy = _GET_PROXY_ALLOCATOR(_Alty, _Getal());
; 2485 :         _Container_proxy_ptr<_Alty> _Proxy(_Alproxy, _Mypair._Myval2);
; 2486 :         _Tidy_init();
; 2487 :         assign(_Ptr);
; 2488 :         _Proxy._Release();
; 2489 :     }

	mov	eax, esi
	pop	esi
	ret	4
??0?$basic_string@DU?$char_traits@D@std@@V?$allocator@D@2@@std@@QAE@QBD@Z ENDP ; std::basic_string<char,std::char_traits<char>,std::allocator<char> >::basic_string<char,std::char_traits<char>,std::allocator<char> >
_TEXT	ENDS
; Function compile flags: /Ogtp
; File C:\Program Files (x86)\Microsoft Visual Studio\2019\Community\VC\Tools\MSVC\14.29.30133\include\xstring
;	COMDAT ??0?$basic_string@DU?$char_traits@D@std@@V?$allocator@D@2@@std@@QAE@QBDI@Z
_TEXT	SEGMENT
__Ptr$dead$ = 8						; size = 4
__Count$dead$ = 12					; size = 4
??0?$basic_string@DU?$char_traits@D@std@@V?$allocator@D@2@@std@@QAE@QBDI@Z PROC ; std::basic_string<char,std::char_traits<char>,std::allocator<char> >::basic_string<char,std::char_traits<char>,std::allocator<char> >, COMDAT
; _this$ = ecx

; 2465 :         : _Mypair(_Zero_then_variadic_args_t{}) {

	push	esi
	mov	esi, ecx

; 2466 :         auto&& _Alproxy = _GET_PROXY_ALLOCATOR(_Alty, _Getal());
; 2467 :         _Container_proxy_ptr<_Alty> _Proxy(_Alproxy, _Mypair._Myval2);
; 2468 :         _Tidy_init();
; 2469 :         assign(_Ptr, _Count);

	push	5
	push	OFFSET ??_C@_05FBADLLFO@Ethan@

; 2313 :         _CONSTEXPR20_CONTAINER _Bxty() noexcept : _Ptr() {} // user-provided, for fancy pointers

	mov	DWORD PTR [esi], 0

; 4562 :         _My_data._Mysize = 0;

	mov	DWORD PTR [esi+16], 0

; 4563 : 
; 4564 : #ifdef __cpp_lib_constexpr_string
; 4565 :         if (_STD is_constant_evaluated()) {
; 4566 :             _My_data._Myres        = _BUF_SIZE; // SSO disabled in constexpr context
; 4567 :             auto& _Al              = _Getal();
; 4568 :             const pointer _New_ptr = _Al.allocate(_BUF_SIZE + 1); // throws
; 4569 :             _My_data._Bx._Ptr      = _New_ptr;
; 4570 : 
; 4571 :             _Elem* const _Raw_new = _Unfancy(_New_ptr);
; 4572 :             _Traits::assign(_Raw_new, _BUF_SIZE + 1, _Elem());
; 4573 :         } else
; 4574 : #endif // __cpp_lib_constexpr_string
; 4575 :         {
; 4576 :             _My_data._Myres = _BUF_SIZE - 1;

	mov	DWORD PTR [esi+20], 15			; 0000000fH

; 2466 :         auto&& _Alproxy = _GET_PROXY_ALLOCATOR(_Alty, _Getal());
; 2467 :         _Container_proxy_ptr<_Alty> _Proxy(_Alproxy, _Mypair._Myval2);
; 2468 :         _Tidy_init();
; 2469 :         assign(_Ptr, _Count);

	call	?assign@?$basic_string@DU?$char_traits@D@std@@V?$allocator@D@2@@std@@QAEAAV12@QBDI@Z ; std::basic_string<char,std::char_traits<char>,std::allocator<char> >::assign

; 2470 :         _Proxy._Release();
; 2471 :     }

	mov	eax, esi
	pop	esi
	ret	8
??0?$basic_string@DU?$char_traits@D@std@@V?$allocator@D@2@@std@@QAE@QBDI@Z ENDP ; std::basic_string<char,std::char_traits<char>,std::allocator<char> >::basic_string<char,std::char_traits<char>,std::allocator<char> >
_TEXT	ENDS
; Function compile flags: /Ogtp
;	COMDAT ??1?$_Compressed_pair@V?$allocator@_U@std@@V?$_String_val@U?$_Simple_types@_U@std@@@2@$00@std@@QAE@XZ
_TEXT	SEGMENT
??1?$_Compressed_pair@V?$allocator@_U@std@@V?$_String_val@U?$_Simple_types@_U@std@@@2@$00@std@@QAE@XZ PROC ; std::_Compressed_pair<std::allocator<char32_t>,std::_String_val<std::_Simple_types<char32_t> >,1>::~_Compressed_pair<std::allocator<char32_t>,std::_String_val<std::_Simple_types<char32_t> >,1>, COMDAT
; _this$ = ecx
	ret	0
??1?$_Compressed_pair@V?$allocator@_U@std@@V?$_String_val@U?$_Simple_types@_U@std@@@2@$00@std@@QAE@XZ ENDP ; std::_Compressed_pair<std::allocator<char32_t>,std::_String_val<std::_Simple_types<char32_t> >,1>::~_Compressed_pair<std::allocator<char32_t>,std::_String_val<std::_Simple_types<char32_t> >,1>
_TEXT	ENDS
; Function compile flags: /Ogtp
;	COMDAT ??1?$_Compressed_pair@V?$allocator@_S@std@@V?$_String_val@U?$_Simple_types@_S@std@@@2@$00@std@@QAE@XZ
_TEXT	SEGMENT
??1?$_Compressed_pair@V?$allocator@_S@std@@V?$_String_val@U?$_Simple_types@_S@std@@@2@$00@std@@QAE@XZ PROC ; std::_Compressed_pair<std::allocator<char16_t>,std::_String_val<std::_Simple_types<char16_t> >,1>::~_Compressed_pair<std::allocator<char16_t>,std::_String_val<std::_Simple_types<char16_t> >,1>, COMDAT
; _this$ = ecx
	ret	0
??1?$_Compressed_pair@V?$allocator@_S@std@@V?$_String_val@U?$_Simple_types@_S@std@@@2@$00@std@@QAE@XZ ENDP ; std::_Compressed_pair<std::allocator<char16_t>,std::_String_val<std::_Simple_types<char16_t> >,1>::~_Compressed_pair<std::allocator<char16_t>,std::_String_val<std::_Simple_types<char16_t> >,1>
_TEXT	ENDS
; Function compile flags: /Ogtp
;	COMDAT ??1?$_Compressed_pair@V?$allocator@_W@std@@V?$_String_val@U?$_Simple_types@_W@std@@@2@$00@std@@QAE@XZ
_TEXT	SEGMENT
??1?$_Compressed_pair@V?$allocator@_W@std@@V?$_String_val@U?$_Simple_types@_W@std@@@2@$00@std@@QAE@XZ PROC ; std::_Compressed_pair<std::allocator<wchar_t>,std::_String_val<std::_Simple_types<wchar_t> >,1>::~_Compressed_pair<std::allocator<wchar_t>,std::_String_val<std::_Simple_types<wchar_t> >,1>, COMDAT
; _this$ = ecx
	ret	0
??1?$_Compressed_pair@V?$allocator@_W@std@@V?$_String_val@U?$_Simple_types@_W@std@@@2@$00@std@@QAE@XZ ENDP ; std::_Compressed_pair<std::allocator<wchar_t>,std::_String_val<std::_Simple_types<wchar_t> >,1>::~_Compressed_pair<std::allocator<wchar_t>,std::_String_val<std::_Simple_types<wchar_t> >,1>
_TEXT	ENDS
; Function compile flags: /Ogtp
;	COMDAT ??1?$_Compressed_pair@V?$allocator@D@std@@V?$_String_val@U?$_Simple_types@D@std@@@2@$00@std@@QAE@XZ
_TEXT	SEGMENT
??1?$_Compressed_pair@V?$allocator@D@std@@V?$_String_val@U?$_Simple_types@D@std@@@2@$00@std@@QAE@XZ PROC ; std::_Compressed_pair<std::allocator<char>,std::_String_val<std::_Simple_types<char> >,1>::~_Compressed_pair<std::allocator<char>,std::_String_val<std::_Simple_types<char> >,1>, COMDAT
; _this$ = ecx
	ret	0
??1?$_Compressed_pair@V?$allocator@D@std@@V?$_String_val@U?$_Simple_types@D@std@@@2@$00@std@@QAE@XZ ENDP ; std::_Compressed_pair<std::allocator<char>,std::_String_val<std::_Simple_types<char> >,1>::~_Compressed_pair<std::allocator<char>,std::_String_val<std::_Simple_types<char> >,1>
_TEXT	ENDS
; Function compile flags: /Ogtp
;	COMDAT ??1?$_String_val@U?$_Simple_types@_U@std@@@std@@QAE@XZ
_TEXT	SEGMENT
??1?$_String_val@U?$_Simple_types@_U@std@@@std@@QAE@XZ PROC ; std::_String_val<std::_Simple_types<char32_t> >::~_String_val<std::_Simple_types<char32_t> >, COMDAT
; _this$ = ecx
	ret	0
??1?$_String_val@U?$_Simple_types@_U@std@@@std@@QAE@XZ ENDP ; std::_String_val<std::_Simple_types<char32_t> >::~_String_val<std::_Simple_types<char32_t> >
_TEXT	ENDS
; Function compile flags: /Ogtp
;	COMDAT ??1?$_String_val@U?$_Simple_types@_S@std@@@std@@QAE@XZ
_TEXT	SEGMENT
??1?$_String_val@U?$_Simple_types@_S@std@@@std@@QAE@XZ PROC ; std::_String_val<std::_Simple_types<char16_t> >::~_String_val<std::_Simple_types<char16_t> >, COMDAT
; _this$ = ecx
	ret	0
??1?$_String_val@U?$_Simple_types@_S@std@@@std@@QAE@XZ ENDP ; std::_String_val<std::_Simple_types<char16_t> >::~_String_val<std::_Simple_types<char16_t> >
_TEXT	ENDS
; Function compile flags: /Ogtp
;	COMDAT ??1?$_String_val@U?$_Simple_types@_W@std@@@std@@QAE@XZ
_TEXT	SEGMENT
??1?$_String_val@U?$_Simple_types@_W@std@@@std@@QAE@XZ PROC ; std::_String_val<std::_Simple_types<wchar_t> >::~_String_val<std::_Simple_types<wchar_t> >, COMDAT
; _this$ = ecx
	ret	0
??1?$_String_val@U?$_Simple_types@_W@std@@@std@@QAE@XZ ENDP ; std::_String_val<std::_Simple_types<wchar_t> >::~_String_val<std::_Simple_types<wchar_t> >
_TEXT	ENDS
; Function compile flags: /Ogtp
;	COMDAT ??1?$_String_val@U?$_Simple_types@D@std@@@std@@QAE@XZ
_TEXT	SEGMENT
??1?$_String_val@U?$_Simple_types@D@std@@@std@@QAE@XZ PROC ; std::_String_val<std::_Simple_types<char> >::~_String_val<std::_Simple_types<char> >, COMDAT
; _this$ = ecx
	ret	0
??1?$_String_val@U?$_Simple_types@D@std@@@std@@QAE@XZ ENDP ; std::_String_val<std::_Simple_types<char> >::~_String_val<std::_Simple_types<char> >
_TEXT	ENDS
; Function compile flags: /Ogtp
; File C:\Program Files (x86)\Microsoft Visual Studio\2019\Community\VC\Tools\MSVC\14.29.30133\include\xstring
; File C:\Program Files (x86)\Microsoft Visual Studio\2019\Community\VC\Tools\MSVC\14.29.30133\include\xmemory
; File C:\Program Files (x86)\Microsoft Visual Studio\2019\Community\VC\Tools\MSVC\14.29.30133\include\xstring
; File C:\Program Files (x86)\Microsoft Visual Studio\2019\Community\VC\Tools\MSVC\14.29.30133\include\xmemory
; File C:\Program Files (x86)\Microsoft Visual Studio\2019\Community\VC\Tools\MSVC\14.29.30133\include\xstring
;	COMDAT ?_Tidy_deallocate@?$basic_string@_UU?$char_traits@_U@std@@V?$allocator@_U@2@@std@@AAEXXZ
_TEXT	SEGMENT
?_Tidy_deallocate@?$basic_string@_UU?$char_traits@_U@std@@V?$allocator@_U@2@@std@@AAEXXZ PROC ; std::basic_string<char32_t,std::char_traits<char32_t>,std::allocator<char32_t> >::_Tidy_deallocate, COMDAT
; _this$ = ecx

; 4582 :     _CONSTEXPR20_CONTAINER void _Tidy_deallocate() noexcept { // initialize buffer, deallocating any storage

	push	esi
	mov	esi, ecx

; 2286 :         return _BUF_SIZE <= _Myres;

	mov	ecx, DWORD PTR [esi+20]
	cmp	ecx, 4

; 4583 :         _Mypair._Myval2._Orphan_all();
; 4584 :         if (_Mypair._Myval2._Large_string_engaged()) {

	jb	SHORT $LN10@Tidy_deall
; File C:\Program Files (x86)\Microsoft Visual Studio\2019\Community\VC\Tools\MSVC\14.29.30133\include\xmemory

; 797  :         _Deallocate<_New_alignof<_Ty>>(_Ptr, sizeof(_Ty) * _Count);

	mov	eax, DWORD PTR [esi]
	lea	ecx, DWORD PTR [ecx*4+4]

; 251  :         if (_Bytes >= _Big_allocation_threshold) { // boost the alignment of big allocations to help autovectorization

	cmp	ecx, 4096				; 00001000H
	jb	SHORT $LN20@Tidy_deall

; 150  :     const uintptr_t _Ptr_container   = _Ptr_user[-1];

	mov	edx, DWORD PTR [eax-4]
	add	ecx, 35					; 00000023H

; 151  : 
; 152  :     // If the following asserts, it likely means that we are performing
; 153  :     // an aligned delete on memory coming from an unaligned allocation.
; 154  :     _STL_ASSERT(_Ptr_user[-2] == _Big_allocation_sentinel, "invalid argument");
; 155  : 
; 156  :     // Extra paranoia on aligned allocation/deallocation; ensure _Ptr_container is
; 157  :     // in range [_Min_back_shift, _Non_user_size]
; 158  : #ifdef _DEBUG
; 159  :     constexpr uintptr_t _Min_back_shift = 2 * sizeof(void*);
; 160  : #else // ^^^ _DEBUG ^^^ // vvv !_DEBUG vvv
; 161  :     constexpr uintptr_t _Min_back_shift = sizeof(void*);
; 162  : #endif // _DEBUG
; 163  :     const uintptr_t _Back_shift = reinterpret_cast<uintptr_t>(_Ptr) - _Ptr_container;

	sub	eax, edx

; 164  :     _STL_VERIFY(_Back_shift >= _Min_back_shift && _Back_shift <= _Non_user_size, "invalid argument");

	add	eax, -4					; fffffffcH
	cmp	eax, 31					; 0000001fH
	ja	SHORT $LN17@Tidy_deall

; 165  :     _Ptr = reinterpret_cast<void*>(_Ptr_container);

	mov	eax, edx
$LN20@Tidy_deall:

; 255  :         ::operator delete(_Ptr, _Bytes);

	push	ecx
	push	eax
	call	??3@YAXPAXI@Z				; operator delete
	add	esp, 8
$LN10@Tidy_deall:
; File C:\Program Files (x86)\Microsoft Visual Studio\2019\Community\VC\Tools\MSVC\14.29.30133\include\xstring

; 4599 :             _Mypair._Myval2._Mysize = 0;

	mov	DWORD PTR [esi+16], 0

; 4600 :             _Mypair._Myval2._Myres  = _BUF_SIZE - 1;

	mov	DWORD PTR [esi+20], 3

; 4601 :             // the _Traits::assign is last so the codegen doesn't think the char write can alias this
; 4602 :             _Traits::assign(_Mypair._Myval2._Bx._Buf[0], _Elem());

	mov	DWORD PTR [esi], 0
	pop	esi

; 4604 :     }

	ret	0
$LN17@Tidy_deall:
; File C:\Program Files (x86)\Microsoft Visual Studio\2019\Community\VC\Tools\MSVC\14.29.30133\include\xmemory

; 164  :     _STL_VERIFY(_Back_shift >= _Min_back_shift && _Back_shift <= _Non_user_size, "invalid argument");

	call	DWORD PTR __imp___invalid_parameter_noinfo_noreturn
$LN24@Tidy_deall:
	int	3
