; Listing generated by Microsoft (R) Optimizing Compiler Version 19.29.30152.0 

	TITLE	C:\dev\StringLiterals\bin\intermediates\Win32\Debug\main.obj
	.686P
	.XMM
	include listing.inc
	.model	flat

INCLUDELIB MSVCRTD
INCLUDELIB OLDNAMES

msvcjmc	SEGMENT
__97D3638F_vcruntime_new@h DB 01H
__39E86DCC_corecrt_math@h DB 01H
__C10B80C4_stdlib@h DB 01H
__244AF085_cstdlib DB 01H
__60BC708E_cmath DB 01H
__273F4120_corecrt_stdio_config@h DB 01H
__C764670D_corecrt_wstdio@h DB 01H
__9ABD077A_stdio@h DB 01H
__6F9A29D9_corecrt_memcpy_s@h DB 01H
__E2AB8E04_corecrt_memory@h DB 01H
__8944299F_corecrt_wstring@h DB 01H
__47781460_string@h DB 01H
__831B113A_corecrt_wconio@h DB 01H
__2DD5E9F0_corecrt_wio@h DB 01H
__3475F697_corecrt_wtime@h DB 01H
__BEB49BB0_stat@h DB 01H
__649BE487_wchar@h DB 01H
__589FA321_type_traits DB 01H
__12269DE6_xutility DB 01H
__5526A732_malloc@h DB 01H
__B0A13A33_vcruntime_exception@h DB 01H
__FF458F76_exception DB 01H
__7FE5F402_limits DB 01H
__79D216CD_xmemory DB 01H
__0D019051_xstring DB 01H
__760BB52B_stdexcept DB 01H
__A4685E82_xcall_once@h DB 01H
__850E836D_time@h DB 01H
__DDB379A0_xthreads@h DB 01H
__14D0A8C0_atomic DB 01H
__1B354CA2_system_error DB 01H
__65ADBEC9_vcruntime_typeinfo@h DB 01H
__62F96EFF_typeinfo DB 01H
__C34BF88C_memory DB 01H
__EF0EAF83_xfacet DB 01H
__45955544_ctype@h DB 01H
__7D708D37_xlocinfo DB 01H
__D23FE460_xlocale DB 01H
__4495FA24_xiosbase DB 01H
__4CB88277_xlocnum DB 01H
__845859A3_ios DB 01H
__B7987E10_string DB 01H
__FE33131C_xlocmes DB 01H
__67DA974F_xlocmon DB 01H
__D96D2425_xloctime DB 01H
__B0E46530_main@cpp DB 01H
__68A60A21_locale DB 01H
__A2FF0B9E_istream DB 01H
__C12F3EA4_ostream DB 01H
__74AB0D97_streambuf DB 01H
__038A2AA6_iterator DB 01H
__B30C2184_iosfwd DB 01H
__1347750E_utility DB 01H
__E458E21C_xstddef DB 01H
__F54903A0_xatomic@h DB 01H
msvcjmc	ENDS
PUBLIC	?__empty_global_delete@@YAXPAX@Z		; __empty_global_delete
PUBLIC	?__empty_global_delete@@YAXPAXI@Z		; __empty_global_delete
PUBLIC	??2@YAPAXIPAX@Z					; operator new
PUBLIC	_wmemcpy
PUBLIC	??0exception@std@@QAE@QBDH@Z			; std::exception::exception
PUBLIC	??0exception@std@@QAE@ABV01@@Z			; std::exception::exception
PUBLIC	??1exception@std@@UAE@XZ			; std::exception::~exception
PUBLIC	?what@exception@std@@UBEPBDXZ			; std::exception::what
PUBLIC	??_Gexception@std@@UAEPAXI@Z			; std::exception::`scalar deleting destructor'
PUBLIC	??0bad_alloc@std@@AAE@QBD@Z			; std::bad_alloc::bad_alloc
PUBLIC	??1bad_alloc@std@@UAE@XZ			; std::bad_alloc::~bad_alloc
PUBLIC	??0bad_alloc@std@@QAE@ABV01@@Z			; std::bad_alloc::bad_alloc
PUBLIC	??_Gbad_alloc@std@@UAEPAXI@Z			; std::bad_alloc::`scalar deleting destructor'
PUBLIC	??0bad_array_new_length@std@@QAE@XZ		; std::bad_array_new_length::bad_array_new_length
PUBLIC	??1bad_array_new_length@std@@UAE@XZ		; std::bad_array_new_length::~bad_array_new_length
PUBLIC	??0bad_array_new_length@std@@QAE@ABV01@@Z	; std::bad_array_new_length::bad_array_new_length
PUBLIC	??_Gbad_array_new_length@std@@UAEPAXI@Z		; std::bad_array_new_length::`scalar deleting destructor'
PUBLIC	?_Throw_bad_array_new_length@std@@YAXXZ		; std::_Throw_bad_array_new_length
PUBLIC	?max@?$numeric_limits@H@std@@SAHXZ		; std::numeric_limits<int>::max
PUBLIC	?_Allocate@_Default_allocate_traits@std@@SAPAXI@Z ; std::_Default_allocate_traits::_Allocate
PUBLIC	?_Adjust_manually_vector_aligned@std@@YAXAAPAXAAI@Z ; std::_Adjust_manually_vector_aligned
PUBLIC	??0_Container_proxy@std@@QAE@PAU_Container_base12@1@@Z ; std::_Container_proxy::_Container_proxy
PUBLIC	??0_Container_base12@std@@QAE@XZ		; std::_Container_base12::_Container_base12
PUBLIC	?_Orphan_all@_Container_base12@std@@QAEXXZ	; std::_Container_base12::_Orphan_all
PUBLIC	?_Swap_proxy_and_iterators@_Container_base12@std@@QAEXAAU12@@Z ; std::_Container_base12::_Swap_proxy_and_iterators
PUBLIC	?_Orphan_all_unlocked_v3@_Container_base12@std@@AAEXXZ ; std::_Container_base12::_Orphan_all_unlocked_v3
PUBLIC	?_Swap_proxy_and_iterators_unlocked@_Container_base12@std@@AAEXAAU12@@Z ; std::_Container_base12::_Swap_proxy_and_iterators_unlocked
PUBLIC	?_Orphan_all_locked_v3@_Container_base12@std@@AAEXXZ ; std::_Container_base12::_Orphan_all_locked_v3
PUBLIC	?_Swap_proxy_and_iterators_locked@_Container_base12@std@@AAEXAAU12@@Z ; std::_Container_base12::_Swap_proxy_and_iterators_locked
PUBLIC	?_Release@_Basic_container_proxy_ptr12@std@@QAEXXZ ; std::_Basic_container_proxy_ptr12::_Release
PUBLIC	??0_Basic_container_proxy_ptr12@std@@IAE@XZ	; std::_Basic_container_proxy_ptr12::_Basic_container_proxy_ptr12
PUBLIC	??$addressof@U_Container_base12@std@@@std@@YAPAU_Container_base12@0@AAU10@@Z ; std::addressof<std::_Container_base12>
PUBLIC	??$_Construct_in_place@U_Container_proxy@std@@PAU_Container_base12@2@@std@@YAXAAU_Container_proxy@0@$$QAPAU_Container_base12@0@@Z ; std::_Construct_in_place<std::_Container_proxy,std::_Container_base12 *>
PUBLIC	?copy@?$_Char_traits@_SG@std@@SAPA_SQA_SQB_SI@Z	; std::_Char_traits<char16_t,unsigned short>::copy
PUBLIC	?move@?$_Char_traits@_SG@std@@SAPA_SQA_SQB_SI@Z	; std::_Char_traits<char16_t,unsigned short>::move
PUBLIC	?length@?$_WChar_traits@_S@std@@SAIPB_S@Z	; std::_WChar_traits<char16_t>::length
PUBLIC	?assign@?$_WChar_traits@_S@std@@SAXAA_SAB_S@Z	; std::_WChar_traits<char16_t>::assign
PUBLIC	?copy@?$_Char_traits@_UI@std@@SAPA_UQA_UQB_UI@Z	; std::_Char_traits<char32_t,unsigned int>::copy
PUBLIC	?move@?$_Char_traits@_UI@std@@SAPA_UQA_UQB_UI@Z	; std::_Char_traits<char32_t,unsigned int>::move
PUBLIC	?length@?$_Char_traits@_UI@std@@SAIPB_U@Z	; std::_Char_traits<char32_t,unsigned int>::length
PUBLIC	?assign@?$_Char_traits@_UI@std@@SAXAA_UAB_U@Z	; std::_Char_traits<char32_t,unsigned int>::assign
PUBLIC	?copy@?$_Char_traits@_WG@std@@SAPA_WQA_WQB_WI@Z	; std::_Char_traits<wchar_t,unsigned short>::copy
PUBLIC	?move@?$_Char_traits@_WG@std@@SAPA_WQA_WQB_WI@Z	; std::_Char_traits<wchar_t,unsigned short>::move
PUBLIC	?length@?$_WChar_traits@_W@std@@SAIPB_W@Z	; std::_WChar_traits<wchar_t>::length
PUBLIC	?assign@?$_WChar_traits@_W@std@@SAXAA_WAB_W@Z	; std::_WChar_traits<wchar_t>::assign
PUBLIC	?eq_int_type@?$_WChar_traits@_W@std@@SA_NABG0@Z	; std::_WChar_traits<wchar_t>::eq_int_type
PUBLIC	?eof@?$_WChar_traits@_W@std@@SAGXZ		; std::_WChar_traits<wchar_t>::eof
PUBLIC	?copy@?$_Char_traits@DH@std@@SAPADQADQBDI@Z	; std::_Char_traits<char,int>::copy
PUBLIC	?move@?$_Char_traits@DH@std@@SAPADQADQBDI@Z	; std::_Char_traits<char,int>::move
PUBLIC	?length@?$_Narrow_char_traits@DH@std@@SAIQBD@Z	; std::_Narrow_char_traits<char,int>::length
PUBLIC	?assign@?$_Narrow_char_traits@DH@std@@SAXAADABD@Z ; std::_Narrow_char_traits<char,int>::assign
PUBLIC	?eq_int_type@?$_Narrow_char_traits@DH@std@@SA_NABH0@Z ; std::_Narrow_char_traits<char,int>::eq_int_type
PUBLIC	?eof@?$_Narrow_char_traits@DH@std@@SAHXZ	; std::_Narrow_char_traits<char,int>::eof
PUBLIC	?_Xlen_string@std@@YAXXZ			; std::_Xlen_string
PUBLIC	??__Ks@string_literals@literals@std@@YA?AV?$basic_string@DU?$char_traits@D@std@@V?$allocator@D@2@@3@PBDI@Z ; std::literals::string_literals::operator "" s
PUBLIC	??0?$allocator@D@std@@QAE@XZ			; std::allocator<char>::allocator<char>
PUBLIC	?deallocate@?$allocator@D@std@@QAEXQADI@Z	; std::allocator<char>::deallocate
PUBLIC	?allocate@?$allocator@D@std@@QAEPADI@Z		; std::allocator<char>::allocate
PUBLIC	?max_size@?$_Default_allocator_traits@V?$allocator@D@std@@@std@@SAIABV?$allocator@D@2@@Z ; std::_Default_allocator_traits<std::allocator<char> >::max_size
PUBLIC	??0?$_String_val@U?$_Simple_types@D@std@@@std@@QAE@XZ ; std::_String_val<std::_Simple_types<char> >::_String_val<std::_Simple_types<char> >
PUBLIC	?_Myptr@?$_String_val@U?$_Simple_types@D@std@@@std@@QAEPADXZ ; std::_String_val<std::_Simple_types<char> >::_Myptr
PUBLIC	?_Myptr@?$_String_val@U?$_Simple_types@D@std@@@std@@QBEPBDXZ ; std::_String_val<std::_Simple_types<char> >::_Myptr
PUBLIC	?_Large_string_engaged@?$_String_val@U?$_Simple_types@D@std@@@std@@QBE_NXZ ; std::_String_val<std::_Simple_types<char> >::_Large_string_engaged
PUBLIC	??0_Bxty@?$_String_val@U?$_Simple_types@D@std@@@std@@QAE@XZ ; std::_String_val<std::_Simple_types<char> >::_Bxty::_Bxty
PUBLIC	??1_Bxty@?$_String_val@U?$_Simple_types@D@std@@@std@@QAE@XZ ; std::_String_val<std::_Simple_types<char> >::_Bxty::~_Bxty
PUBLIC	??1?$_String_val@U?$_Simple_types@D@std@@@std@@QAE@XZ ; std::_String_val<std::_Simple_types<char> >::~_String_val<std::_Simple_types<char> >
PUBLIC	??0?$basic_string@DU?$char_traits@D@std@@V?$allocator@D@2@@std@@QAE@QBDI@Z ; std::basic_string<char,std::char_traits<char>,std::allocator<char> >::basic_string<char,std::char_traits<char>,std::allocator<char> >
PUBLIC	??0?$basic_string@DU?$char_traits@D@std@@V?$allocator@D@2@@std@@QAE@QBD@Z ; std::basic_string<char,std::char_traits<char>,std::allocator<char> >::basic_string<char,std::char_traits<char>,std::allocator<char> >
PUBLIC	??0?$basic_string@DU?$char_traits@D@std@@V?$allocator@D@2@@std@@QAE@$$QAV01@@Z ; std::basic_string<char,std::char_traits<char>,std::allocator<char> >::basic_string<char,std::char_traits<char>,std::allocator<char> >
PUBLIC	?_Memcpy_val_from@?$basic_string@DU?$char_traits@D@std@@V?$allocator@D@2@@std@@AAEXABV12@@Z ; std::basic_string<char,std::char_traits<char>,std::allocator<char> >::_Memcpy_val_from
PUBLIC	?_Take_contents@?$basic_string@DU?$char_traits@D@std@@V?$allocator@D@2@@std@@AAEXAAV12@@Z ; std::basic_string<char,std::char_traits<char>,std::allocator<char> >::_Take_contents
PUBLIC	??1?$basic_string@DU?$char_traits@D@std@@V?$allocator@D@2@@std@@QAE@XZ ; std::basic_string<char,std::char_traits<char>,std::allocator<char> >::~basic_string<char,std::char_traits<char>,std::allocator<char> >
PUBLIC	?append@?$basic_string@DU?$char_traits@D@std@@V?$allocator@D@2@@std@@QAEAAV12@QBDI@Z ; std::basic_string<char,std::char_traits<char>,std::allocator<char> >::append
PUBLIC	?append@?$basic_string@DU?$char_traits@D@std@@V?$allocator@D@2@@std@@QAEAAV12@QBD@Z ; std::basic_string<char,std::char_traits<char>,std::allocator<char> >::append
PUBLIC	?assign@?$basic_string@DU?$char_traits@D@std@@V?$allocator@D@2@@std@@QAEAAV12@QBDI@Z ; std::basic_string<char,std::char_traits<char>,std::allocator<char> >::assign
PUBLIC	?assign@?$basic_string@DU?$char_traits@D@std@@V?$allocator@D@2@@std@@QAEAAV12@QBD@Z ; std::basic_string<char,std::char_traits<char>,std::allocator<char> >::assign
PUBLIC	?c_str@?$basic_string@DU?$char_traits@D@std@@V?$allocator@D@2@@std@@QBEPBDXZ ; std::basic_string<char,std::char_traits<char>,std::allocator<char> >::c_str
PUBLIC	?data@?$basic_string@DU?$char_traits@D@std@@V?$allocator@D@2@@std@@QBEPBDXZ ; std::basic_string<char,std::char_traits<char>,std::allocator<char> >::data
PUBLIC	?size@?$basic_string@DU?$char_traits@D@std@@V?$allocator@D@2@@std@@QBEIXZ ; std::basic_string<char,std::char_traits<char>,std::allocator<char> >::size
PUBLIC	?max_size@?$basic_string@DU?$char_traits@D@std@@V?$allocator@D@2@@std@@QBEIXZ ; std::basic_string<char,std::char_traits<char>,std::allocator<char> >::max_size
PUBLIC	?_Calculate_growth@?$basic_string@DU?$char_traits@D@std@@V?$allocator@D@2@@std@@CAIIII@Z ; std::basic_string<char,std::char_traits<char>,std::allocator<char> >::_Calculate_growth
PUBLIC	?_Calculate_growth@?$basic_string@DU?$char_traits@D@std@@V?$allocator@D@2@@std@@ABEII@Z ; std::basic_string<char,std::char_traits<char>,std::allocator<char> >::_Calculate_growth
PUBLIC	?_Tidy_init@?$basic_string@DU?$char_traits@D@std@@V?$allocator@D@2@@std@@AAEXXZ ; std::basic_string<char,std::char_traits<char>,std::allocator<char> >::_Tidy_init
PUBLIC	?_Tidy_deallocate@?$basic_string@DU?$char_traits@D@std@@V?$allocator@D@2@@std@@AAEXXZ ; std::basic_string<char,std::char_traits<char>,std::allocator<char> >::_Tidy_deallocate
PUBLIC	?_Swap_proxy_and_iterators@?$basic_string@DU?$char_traits@D@std@@V?$allocator@D@2@@std@@AAEXAAV12@@Z ; std::basic_string<char,std::char_traits<char>,std::allocator<char> >::_Swap_proxy_and_iterators
PUBLIC	?_Getal@?$basic_string@DU?$char_traits@D@std@@V?$allocator@D@2@@std@@AAEAAV?$allocator@D@2@XZ ; std::basic_string<char,std::char_traits<char>,std::allocator<char> >::_Getal
PUBLIC	?_Getal@?$basic_string@DU?$char_traits@D@std@@V?$allocator@D@2@@std@@ABEABV?$allocator@D@2@XZ ; std::basic_string<char,std::char_traits<char>,std::allocator<char> >::_Getal
PUBLIC	?_Get_first@?$_Compressed_pair@V?$allocator@D@std@@V?$_String_val@U?$_Simple_types@D@std@@@2@$00@std@@QAEAAV?$allocator@D@2@XZ ; std::_Compressed_pair<std::allocator<char>,std::_String_val<std::_Simple_types<char> >,1>::_Get_first
PUBLIC	?_Get_first@?$_Compressed_pair@V?$allocator@D@std@@V?$_String_val@U?$_Simple_types@D@std@@@2@$00@std@@QBEABV?$allocator@D@2@XZ ; std::_Compressed_pair<std::allocator<char>,std::_String_val<std::_Simple_types<char> >,1>::_Get_first
PUBLIC	??1?$_Compressed_pair@V?$allocator@D@std@@V?$_String_val@U?$_Simple_types@D@std@@@2@$00@std@@QAE@XZ ; std::_Compressed_pair<std::allocator<char>,std::_String_val<std::_Simple_types<char> >,1>::~_Compressed_pair<std::allocator<char>,std::_String_val<std::_Simple_types<char> >,1>
PUBLIC	??__Ks@string_literals@literals@std@@YA?AV?$basic_string@_WU?$char_traits@_W@std@@V?$allocator@_W@2@@3@PB_WI@Z ; std::literals::string_literals::operator "" s
PUBLIC	??0?$allocator@_W@std@@QAE@XZ			; std::allocator<wchar_t>::allocator<wchar_t>
PUBLIC	?deallocate@?$allocator@_W@std@@QAEXQA_WI@Z	; std::allocator<wchar_t>::deallocate
PUBLIC	?allocate@?$allocator@_W@std@@QAEPA_WI@Z	; std::allocator<wchar_t>::allocate
PUBLIC	?max_size@?$_Default_allocator_traits@V?$allocator@_W@std@@@std@@SAIABV?$allocator@_W@2@@Z ; std::_Default_allocator_traits<std::allocator<wchar_t> >::max_size
PUBLIC	??0?$_String_val@U?$_Simple_types@_W@std@@@std@@QAE@XZ ; std::_String_val<std::_Simple_types<wchar_t> >::_String_val<std::_Simple_types<wchar_t> >
PUBLIC	?_Myptr@?$_String_val@U?$_Simple_types@_W@std@@@std@@QAEPA_WXZ ; std::_String_val<std::_Simple_types<wchar_t> >::_Myptr
PUBLIC	?_Myptr@?$_String_val@U?$_Simple_types@_W@std@@@std@@QBEPB_WXZ ; std::_String_val<std::_Simple_types<wchar_t> >::_Myptr
PUBLIC	?_Large_string_engaged@?$_String_val@U?$_Simple_types@_W@std@@@std@@QBE_NXZ ; std::_String_val<std::_Simple_types<wchar_t> >::_Large_string_engaged
PUBLIC	??0_Bxty@?$_String_val@U?$_Simple_types@_W@std@@@std@@QAE@XZ ; std::_String_val<std::_Simple_types<wchar_t> >::_Bxty::_Bxty
PUBLIC	??1_Bxty@?$_String_val@U?$_Simple_types@_W@std@@@std@@QAE@XZ ; std::_String_val<std::_Simple_types<wchar_t> >::_Bxty::~_Bxty
PUBLIC	??1?$_String_val@U?$_Simple_types@_W@std@@@std@@QAE@XZ ; std::_String_val<std::_Simple_types<wchar_t> >::~_String_val<std::_Simple_types<wchar_t> >
PUBLIC	??0?$basic_string@_WU?$char_traits@_W@std@@V?$allocator@_W@2@@std@@QAE@QB_WI@Z ; std::basic_string<wchar_t,std::char_traits<wchar_t>,std::allocator<wchar_t> >::basic_string<wchar_t,std::char_traits<wchar_t>,std::allocator<wchar_t> >
PUBLIC	??0?$basic_string@_WU?$char_traits@_W@std@@V?$allocator@_W@2@@std@@QAE@$$QAV01@@Z ; std::basic_string<wchar_t,std::char_traits<wchar_t>,std::allocator<wchar_t> >::basic_string<wchar_t,std::char_traits<wchar_t>,std::allocator<wchar_t> >
PUBLIC	?_Memcpy_val_from@?$basic_string@_WU?$char_traits@_W@std@@V?$allocator@_W@2@@std@@AAEXABV12@@Z ; std::basic_string<wchar_t,std::char_traits<wchar_t>,std::allocator<wchar_t> >::_Memcpy_val_from
PUBLIC	?_Take_contents@?$basic_string@_WU?$char_traits@_W@std@@V?$allocator@_W@2@@std@@AAEXAAV12@@Z ; std::basic_string<wchar_t,std::char_traits<wchar_t>,std::allocator<wchar_t> >::_Take_contents
PUBLIC	??1?$basic_string@_WU?$char_traits@_W@std@@V?$allocator@_W@2@@std@@QAE@XZ ; std::basic_string<wchar_t,std::char_traits<wchar_t>,std::allocator<wchar_t> >::~basic_string<wchar_t,std::char_traits<wchar_t>,std::allocator<wchar_t> >
PUBLIC	?append@?$basic_string@_WU?$char_traits@_W@std@@V?$allocator@_W@2@@std@@QAEAAV12@QB_WI@Z ; std::basic_string<wchar_t,std::char_traits<wchar_t>,std::allocator<wchar_t> >::append
PUBLIC	?append@?$basic_string@_WU?$char_traits@_W@std@@V?$allocator@_W@2@@std@@QAEAAV12@QB_W@Z ; std::basic_string<wchar_t,std::char_traits<wchar_t>,std::allocator<wchar_t> >::append
PUBLIC	?assign@?$basic_string@_WU?$char_traits@_W@std@@V?$allocator@_W@2@@std@@QAEAAV12@QB_WI@Z ; std::basic_string<wchar_t,std::char_traits<wchar_t>,std::allocator<wchar_t> >::assign
PUBLIC	?data@?$basic_string@_WU?$char_traits@_W@std@@V?$allocator@_W@2@@std@@QBEPB_WXZ ; std::basic_string<wchar_t,std::char_traits<wchar_t>,std::allocator<wchar_t> >::data
PUBLIC	?size@?$basic_string@_WU?$char_traits@_W@std@@V?$allocator@_W@2@@std@@QBEIXZ ; std::basic_string<wchar_t,std::char_traits<wchar_t>,std::allocator<wchar_t> >::size
PUBLIC	?max_size@?$basic_string@_WU?$char_traits@_W@std@@V?$allocator@_W@2@@std@@QBEIXZ ; std::basic_string<wchar_t,std::char_traits<wchar_t>,std::allocator<wchar_t> >::max_size
PUBLIC	?_Calculate_growth@?$basic_string@_WU?$char_traits@_W@std@@V?$allocator@_W@2@@std@@CAIIII@Z ; std::basic_string<wchar_t,std::char_traits<wchar_t>,std::allocator<wchar_t> >::_Calculate_growth
PUBLIC	?_Calculate_growth@?$basic_string@_WU?$char_traits@_W@std@@V?$allocator@_W@2@@std@@ABEII@Z ; std::basic_string<wchar_t,std::char_traits<wchar_t>,std::allocator<wchar_t> >::_Calculate_growth
PUBLIC	?_Tidy_init@?$basic_string@_WU?$char_traits@_W@std@@V?$allocator@_W@2@@std@@AAEXXZ ; std::basic_string<wchar_t,std::char_traits<wchar_t>,std::allocator<wchar_t> >::_Tidy_init
PUBLIC	?_Tidy_deallocate@?$basic_string@_WU?$char_traits@_W@std@@V?$allocator@_W@2@@std@@AAEXXZ ; std::basic_string<wchar_t,std::char_traits<wchar_t>,std::allocator<wchar_t> >::_Tidy_deallocate
PUBLIC	?_Swap_proxy_and_iterators@?$basic_string@_WU?$char_traits@_W@std@@V?$allocator@_W@2@@std@@AAEXAAV12@@Z ; std::basic_string<wchar_t,std::char_traits<wchar_t>,std::allocator<wchar_t> >::_Swap_proxy_and_iterators
PUBLIC	?_Getal@?$basic_string@_WU?$char_traits@_W@std@@V?$allocator@_W@2@@std@@AAEAAV?$allocator@_W@2@XZ ; std::basic_string<wchar_t,std::char_traits<wchar_t>,std::allocator<wchar_t> >::_Getal
PUBLIC	?_Getal@?$basic_string@_WU?$char_traits@_W@std@@V?$allocator@_W@2@@std@@ABEABV?$allocator@_W@2@XZ ; std::basic_string<wchar_t,std::char_traits<wchar_t>,std::allocator<wchar_t> >::_Getal
PUBLIC	?_Get_first@?$_Compressed_pair@V?$allocator@_W@std@@V?$_String_val@U?$_Simple_types@_W@std@@@2@$00@std@@QAEAAV?$allocator@_W@2@XZ ; std::_Compressed_pair<std::allocator<wchar_t>,std::_String_val<std::_Simple_types<wchar_t> >,1>::_Get_first
PUBLIC	?_Get_first@?$_Compressed_pair@V?$allocator@_W@std@@V?$_String_val@U?$_Simple_types@_W@std@@@2@$00@std@@QBEABV?$allocator@_W@2@XZ ; std::_Compressed_pair<std::allocator<wchar_t>,std::_String_val<std::_Simple_types<wchar_t> >,1>::_Get_first
PUBLIC	??1?$_Compressed_pair@V?$allocator@_W@std@@V?$_String_val@U?$_Simple_types@_W@std@@@2@$00@std@@QAE@XZ ; std::_Compressed_pair<std::allocator<wchar_t>,std::_String_val<std::_Simple_types<wchar_t> >,1>::~_Compressed_pair<std::allocator<wchar_t>,std::_String_val<std::_Simple_types<wchar_t> >,1>
PUBLIC	??__Ks@string_literals@literals@std@@YA?AV?$basic_string@_SU?$char_traits@_S@std@@V?$allocator@_S@2@@3@PB_SI@Z ; std::literals::string_literals::operator "" s
PUBLIC	??0?$allocator@_S@std@@QAE@XZ			; std::allocator<char16_t>::allocator<char16_t>
PUBLIC	?deallocate@?$allocator@_S@std@@QAEXQA_SI@Z	; std::allocator<char16_t>::deallocate
PUBLIC	?allocate@?$allocator@_S@std@@QAEPA_SI@Z	; std::allocator<char16_t>::allocate
PUBLIC	?max_size@?$_Default_allocator_traits@V?$allocator@_S@std@@@std@@SAIABV?$allocator@_S@2@@Z ; std::_Default_allocator_traits<std::allocator<char16_t> >::max_size
PUBLIC	??0?$_String_val@U?$_Simple_types@_S@std@@@std@@QAE@XZ ; std::_String_val<std::_Simple_types<char16_t> >::_String_val<std::_Simple_types<char16_t> >
PUBLIC	?_Myptr@?$_String_val@U?$_Simple_types@_S@std@@@std@@QAEPA_SXZ ; std::_String_val<std::_Simple_types<char16_t> >::_Myptr
PUBLIC	?_Large_string_engaged@?$_String_val@U?$_Simple_types@_S@std@@@std@@QBE_NXZ ; std::_String_val<std::_Simple_types<char16_t> >::_Large_string_engaged
PUBLIC	??0_Bxty@?$_String_val@U?$_Simple_types@_S@std@@@std@@QAE@XZ ; std::_String_val<std::_Simple_types<char16_t> >::_Bxty::_Bxty
PUBLIC	??1_Bxty@?$_String_val@U?$_Simple_types@_S@std@@@std@@QAE@XZ ; std::_String_val<std::_Simple_types<char16_t> >::_Bxty::~_Bxty
PUBLIC	??1?$_String_val@U?$_Simple_types@_S@std@@@std@@QAE@XZ ; std::_String_val<std::_Simple_types<char16_t> >::~_String_val<std::_Simple_types<char16_t> >
PUBLIC	??0?$basic_string@_SU?$char_traits@_S@std@@V?$allocator@_S@2@@std@@QAE@QB_SI@Z ; std::basic_string<char16_t,std::char_traits<char16_t>,std::allocator<char16_t> >::basic_string<char16_t,std::char_traits<char16_t>,std::allocator<char16_t> >
PUBLIC	??0?$basic_string@_SU?$char_traits@_S@std@@V?$allocator@_S@2@@std@@QAE@$$QAV01@@Z ; std::basic_string<char16_t,std::char_traits<char16_t>,std::allocator<char16_t> >::basic_string<char16_t,std::char_traits<char16_t>,std::allocator<char16_t> >
PUBLIC	?_Memcpy_val_from@?$basic_string@_SU?$char_traits@_S@std@@V?$allocator@_S@2@@std@@AAEXABV12@@Z ; std::basic_string<char16_t,std::char_traits<char16_t>,std::allocator<char16_t> >::_Memcpy_val_from
PUBLIC	?_Take_contents@?$basic_string@_SU?$char_traits@_S@std@@V?$allocator@_S@2@@std@@AAEXAAV12@@Z ; std::basic_string<char16_t,std::char_traits<char16_t>,std::allocator<char16_t> >::_Take_contents
PUBLIC	??1?$basic_string@_SU?$char_traits@_S@std@@V?$allocator@_S@2@@std@@QAE@XZ ; std::basic_string<char16_t,std::char_traits<char16_t>,std::allocator<char16_t> >::~basic_string<char16_t,std::char_traits<char16_t>,std::allocator<char16_t> >
PUBLIC	?append@?$basic_string@_SU?$char_traits@_S@std@@V?$allocator@_S@2@@std@@QAEAAV12@QB_SI@Z ; std::basic_string<char16_t,std::char_traits<char16_t>,std::allocator<char16_t> >::append
PUBLIC	?append@?$basic_string@_SU?$char_traits@_S@std@@V?$allocator@_S@2@@std@@QAEAAV12@QB_S@Z ; std::basic_string<char16_t,std::char_traits<char16_t>,std::allocator<char16_t> >::append
PUBLIC	?assign@?$basic_string@_SU?$char_traits@_S@std@@V?$allocator@_S@2@@std@@QAEAAV12@QB_SI@Z ; std::basic_string<char16_t,std::char_traits<char16_t>,std::allocator<char16_t> >::assign
PUBLIC	?_Unchecked_begin@?$basic_string@_SU?$char_traits@_S@std@@V?$allocator@_S@2@@std@@QAEPA_SXZ ; std::basic_string<char16_t,std::char_traits<char16_t>,std::allocator<char16_t> >::_Unchecked_begin
PUBLIC	?_Unchecked_end@?$basic_string@_SU?$char_traits@_S@std@@V?$allocator@_S@2@@std@@QAEPA_SXZ ; std::basic_string<char16_t,std::char_traits<char16_t>,std::allocator<char16_t> >::_Unchecked_end
PUBLIC	?max_size@?$basic_string@_SU?$char_traits@_S@std@@V?$allocator@_S@2@@std@@QBEIXZ ; std::basic_string<char16_t,std::char_traits<char16_t>,std::allocator<char16_t> >::max_size
PUBLIC	?_Calculate_growth@?$basic_string@_SU?$char_traits@_S@std@@V?$allocator@_S@2@@std@@CAIIII@Z ; std::basic_string<char16_t,std::char_traits<char16_t>,std::allocator<char16_t> >::_Calculate_growth
PUBLIC	?_Calculate_growth@?$basic_string@_SU?$char_traits@_S@std@@V?$allocator@_S@2@@std@@ABEII@Z ; std::basic_string<char16_t,std::char_traits<char16_t>,std::allocator<char16_t> >::_Calculate_growth
PUBLIC	?_Tidy_init@?$basic_string@_SU?$char_traits@_S@std@@V?$allocator@_S@2@@std@@AAEXXZ ; std::basic_string<char16_t,std::char_traits<char16_t>,std::allocator<char16_t> >::_Tidy_init
PUBLIC	?_Tidy_deallocate@?$basic_string@_SU?$char_traits@_S@std@@V?$allocator@_S@2@@std@@AAEXXZ ; std::basic_string<char16_t,std::char_traits<char16_t>,std::allocator<char16_t> >::_Tidy_deallocate
PUBLIC	?_Swap_proxy_and_iterators@?$basic_string@_SU?$char_traits@_S@std@@V?$allocator@_S@2@@std@@AAEXAAV12@@Z ; std::basic_string<char16_t,std::char_traits<char16_t>,std::allocator<char16_t> >::_Swap_proxy_and_iterators
PUBLIC	?_Getal@?$basic_string@_SU?$char_traits@_S@std@@V?$allocator@_S@2@@std@@AAEAAV?$allocator@_S@2@XZ ; std::basic_string<char16_t,std::char_traits<char16_t>,std::allocator<char16_t> >::_Getal
PUBLIC	?_Getal@?$basic_string@_SU?$char_traits@_S@std@@V?$allocator@_S@2@@std@@ABEABV?$allocator@_S@2@XZ ; std::basic_string<char16_t,std::char_traits<char16_t>,std::allocator<char16_t> >::_Getal
PUBLIC	?_Get_first@?$_Compressed_pair@V?$allocator@_S@std@@V?$_String_val@U?$_Simple_types@_S@std@@@2@$00@std@@QAEAAV?$allocator@_S@2@XZ ; std::_Compressed_pair<std::allocator<char16_t>,std::_String_val<std::_Simple_types<char16_t> >,1>::_Get_first
PUBLIC	?_Get_first@?$_Compressed_pair@V?$allocator@_S@std@@V?$_String_val@U?$_Simple_types@_S@std@@@2@$00@std@@QBEABV?$allocator@_S@2@XZ ; std::_Compressed_pair<std::allocator<char16_t>,std::_String_val<std::_Simple_types<char16_t> >,1>::_Get_first
PUBLIC	??1?$_Compressed_pair@V?$allocator@_S@std@@V?$_String_val@U?$_Simple_types@_S@std@@@2@$00@std@@QAE@XZ ; std::_Compressed_pair<std::allocator<char16_t>,std::_String_val<std::_Simple_types<char16_t> >,1>::~_Compressed_pair<std::allocator<char16_t>,std::_String_val<std::_Simple_types<char16_t> >,1>
PUBLIC	??__Ks@string_literals@literals@std@@YA?AV?$basic_string@_UU?$char_traits@_U@std@@V?$allocator@_U@2@@3@PB_UI@Z ; std::literals::string_literals::operator "" s
PUBLIC	??0?$allocator@_U@std@@QAE@XZ			; std::allocator<char32_t>::allocator<char32_t>
PUBLIC	?deallocate@?$allocator@_U@std@@QAEXQA_UI@Z	; std::allocator<char32_t>::deallocate
PUBLIC	?allocate@?$allocator@_U@std@@QAEPA_UI@Z	; std::allocator<char32_t>::allocate
PUBLIC	?max_size@?$_Default_allocator_traits@V?$allocator@_U@std@@@std@@SAIABV?$allocator@_U@2@@Z ; std::_Default_allocator_traits<std::allocator<char32_t> >::max_size
PUBLIC	??0?$_String_val@U?$_Simple_types@_U@std@@@std@@QAE@XZ ; std::_String_val<std::_Simple_types<char32_t> >::_String_val<std::_Simple_types<char32_t> >
PUBLIC	?_Myptr@?$_String_val@U?$_Simple_types@_U@std@@@std@@QAEPA_UXZ ; std::_String_val<std::_Simple_types<char32_t> >::_Myptr
PUBLIC	?_Large_string_engaged@?$_String_val@U?$_Simple_types@_U@std@@@std@@QBE_NXZ ; std::_String_val<std::_Simple_types<char32_t> >::_Large_string_engaged
PUBLIC	??0_Bxty@?$_String_val@U?$_Simple_types@_U@std@@@std@@QAE@XZ ; std::_String_val<std::_Simple_types<char32_t> >::_Bxty::_Bxty
PUBLIC	??1_Bxty@?$_String_val@U?$_Simple_types@_U@std@@@std@@QAE@XZ ; std::_String_val<std::_Simple_types<char32_t> >::_Bxty::~_Bxty
PUBLIC	??1?$_String_val@U?$_Simple_types@_U@std@@@std@@QAE@XZ ; std::_String_val<std::_Simple_types<char32_t> >::~_String_val<std::_Simple_types<char32_t> >
PUBLIC	??0?$basic_string@_UU?$char_traits@_U@std@@V?$allocator@_U@2@@std@@QAE@QB_UI@Z ; std::basic_string<char32_t,std::char_traits<char32_t>,std::allocator<char32_t> >::basic_string<char32_t,std::char_traits<char32_t>,std::allocator<char32_t> >
PUBLIC	??0?$basic_string@_UU?$char_traits@_U@std@@V?$allocator@_U@2@@std@@QAE@$$QAV01@@Z ; std::basic_string<char32_t,std::char_traits<char32_t>,std::allocator<char32_t> >::basic_string<char32_t,std::char_traits<char32_t>,std::allocator<char32_t> >
PUBLIC	?_Memcpy_val_from@?$basic_string@_UU?$char_traits@_U@std@@V?$allocator@_U@2@@std@@AAEXABV12@@Z ; std::basic_string<char32_t,std::char_traits<char32_t>,std::allocator<char32_t> >::_Memcpy_val_from
PUBLIC	?_Take_contents@?$basic_string@_UU?$char_traits@_U@std@@V?$allocator@_U@2@@std@@AAEXAAV12@@Z ; std::basic_string<char32_t,std::char_traits<char32_t>,std::allocator<char32_t> >::_Take_contents
PUBLIC	??1?$basic_string@_UU?$char_traits@_U@std@@V?$allocator@_U@2@@std@@QAE@XZ ; std::basic_string<char32_t,std::char_traits<char32_t>,std::allocator<char32_t> >::~basic_string<char32_t,std::char_traits<char32_t>,std::allocator<char32_t> >
PUBLIC	?append@?$basic_string@_UU?$char_traits@_U@std@@V?$allocator@_U@2@@std@@QAEAAV12@QB_UI@Z ; std::basic_string<char32_t,std::char_traits<char32_t>,std::allocator<char32_t> >::append
PUBLIC	?append@?$basic_string@_UU?$char_traits@_U@std@@V?$allocator@_U@2@@std@@QAEAAV12@QB_U@Z ; std::basic_string<char32_t,std::char_traits<char32_t>,std::allocator<char32_t> >::append
PUBLIC	?assign@?$basic_string@_UU?$char_traits@_U@std@@V?$allocator@_U@2@@std@@QAEAAV12@QB_UI@Z ; std::basic_string<char32_t,std::char_traits<char32_t>,std::allocator<char32_t> >::assign
PUBLIC	?_Unchecked_begin@?$basic_string@_UU?$char_traits@_U@std@@V?$allocator@_U@2@@std@@QAEPA_UXZ ; std::basic_string<char32_t,std::char_traits<char32_t>,std::allocator<char32_t> >::_Unchecked_begin
PUBLIC	?_Unchecked_end@?$basic_string@_UU?$char_traits@_U@std@@V?$allocator@_U@2@@std@@QAEPA_UXZ ; std::basic_string<char32_t,std::char_traits<char32_t>,std::allocator<char32_t> >::_Unchecked_end
PUBLIC	?max_size@?$basic_string@_UU?$char_traits@_U@std@@V?$allocator@_U@2@@std@@QBEIXZ ; std::basic_string<char32_t,std::char_traits<char32_t>,std::allocator<char32_t> >::max_size
PUBLIC	?_Calculate_growth@?$basic_string@_UU?$char_traits@_U@std@@V?$allocator@_U@2@@std@@CAIIII@Z ; std::basic_string<char32_t,std::char_traits<char32_t>,std::allocator<char32_t> >::_Calculate_growth
PUBLIC	?_Calculate_growth@?$basic_string@_UU?$char_traits@_U@std@@V?$allocator@_U@2@@std@@ABEII@Z ; std::basic_string<char32_t,std::char_traits<char32_t>,std::allocator<char32_t> >::_Calculate_growth
PUBLIC	?_Tidy_init@?$basic_string@_UU?$char_traits@_U@std@@V?$allocator@_U@2@@std@@AAEXXZ ; std::basic_string<char32_t,std::char_traits<char32_t>,std::allocator<char32_t> >::_Tidy_init
PUBLIC	?_Tidy_deallocate@?$basic_string@_UU?$char_traits@_U@std@@V?$allocator@_U@2@@std@@AAEXXZ ; std::basic_string<char32_t,std::char_traits<char32_t>,std::allocator<char32_t> >::_Tidy_deallocate
PUBLIC	?_Swap_proxy_and_iterators@?$basic_string@_UU?$char_traits@_U@std@@V?$allocator@_U@2@@std@@AAEXAAV12@@Z ; std::basic_string<char32_t,std::char_traits<char32_t>,std::allocator<char32_t> >::_Swap_proxy_and_iterators
PUBLIC	?_Getal@?$basic_string@_UU?$char_traits@_U@std@@V?$allocator@_U@2@@std@@AAEAAV?$allocator@_U@2@XZ ; std::basic_string<char32_t,std::char_traits<char32_t>,std::allocator<char32_t> >::_Getal
PUBLIC	?_Getal@?$basic_string@_UU?$char_traits@_U@std@@V?$allocator@_U@2@@std@@ABEABV?$allocator@_U@2@XZ ; std::basic_string<char32_t,std::char_traits<char32_t>,std::allocator<char32_t> >::_Getal
PUBLIC	?_Get_first@?$_Compressed_pair@V?$allocator@_U@std@@V?$_String_val@U?$_Simple_types@_U@std@@@2@$00@std@@QAEAAV?$allocator@_U@2@XZ ; std::_Compressed_pair<std::allocator<char32_t>,std::_String_val<std::_Simple_types<char32_t> >,1>::_Get_first
PUBLIC	?_Get_first@?$_Compressed_pair@V?$allocator@_U@std@@V?$_String_val@U?$_Simple_types@_U@std@@@2@$00@std@@QBEABV?$allocator@_U@2@XZ ; std::_Compressed_pair<std::allocator<char32_t>,std::_String_val<std::_Simple_types<char32_t> >,1>::_Get_first
PUBLIC	??1?$_Compressed_pair@V?$allocator@_U@std@@V?$_String_val@U?$_Simple_types@_U@std@@@2@$00@std@@QAE@XZ ; std::_Compressed_pair<std::allocator<char32_t>,std::_String_val<std::_Simple_types<char32_t> >,1>::~_Compressed_pair<std::allocator<char32_t>,std::_String_val<std::_Simple_types<char32_t> >,1>
PUBLIC	??1_Facet_guard@locale@std@@QAE@XZ		; std::locale::_Facet_guard::~_Facet_guard
PUBLIC	?_Construct@locale@std@@AAEXABV?$basic_string@DU?$char_traits@D@std@@V?$allocator@D@2@@2@H@Z ; std::locale::_Construct
PUBLIC	??0locale@std@@QAE@PBDH@Z			; std::locale::locale
PUBLIC	??1locale@std@@QAE@XZ				; std::locale::~locale
PUBLIC	?_Badname@locale@std@@AAE_NABV_Locinfo@2@@Z	; std::locale::_Badname
PUBLIC	??$_Maklocstr@_W@std@@YAPA_WPBDPA_WABU_Cvtvec@@@Z ; std::_Maklocstr<wchar_t>
PUBLIC	?_Maklocwcs@std@@YAPA_WPB_W@Z			; std::_Maklocwcs
PUBLIC	??$_Maklocstr@D@std@@YAPADPBDPADABU_Cvtvec@@@Z	; std::_Maklocstr<char>
PUBLIC	??$_Getvals@_W@?$time_get@DV?$istreambuf_iterator@DU?$char_traits@D@std@@@std@@@std@@IAEX_WABV_Locinfo@1@@Z ; std::time_get<char,std::istreambuf_iterator<char,std::char_traits<char> > >::_Getvals<wchar_t>
PUBLIC	??$_Getvals@_W@?$time_get@_WV?$istreambuf_iterator@_WU?$char_traits@_W@std@@@std@@@std@@IAEX_WABV_Locinfo@1@@Z ; std::time_get<wchar_t,std::istreambuf_iterator<wchar_t,std::char_traits<wchar_t> > >::_Getvals<wchar_t>
PUBLIC	_main
PUBLIC	??$?HDU?$char_traits@D@std@@V?$allocator@D@1@@std@@YA?AV?$basic_string@DU?$char_traits@D@std@@V?$allocator@D@2@@0@$$QAV10@QBD@Z ; std::operator+<char,std::char_traits<char>,std::allocator<char> >
PUBLIC	??$?H_WU?$char_traits@_W@std@@V?$allocator@_W@1@@std@@YA?AV?$basic_string@_WU?$char_traits@_W@std@@V?$allocator@_W@2@@0@$$QAV10@QB_W@Z ; std::operator+<wchar_t,std::char_traits<wchar_t>,std::allocator<wchar_t> >
PUBLIC	??$?H_SU?$char_traits@_S@std@@V?$allocator@_S@1@@std@@YA?AV?$basic_string@_SU?$char_traits@_S@std@@V?$allocator@_S@2@@0@$$QAV10@QB_S@Z ; std::operator+<char16_t,std::char_traits<char16_t>,std::allocator<char16_t> >
PUBLIC	??$?H_UU?$char_traits@_U@std@@V?$allocator@_U@1@@std@@YA?AV?$basic_string@_UU?$char_traits@_U@std@@V?$allocator@_U@2@@0@$$QAV10@QB_U@Z ; std::operator+<char32_t,std::char_traits<char32_t>,std::allocator<char32_t> >
PUBLIC	??$?6DU?$char_traits@D@std@@V?$allocator@D@1@@std@@YAAAV?$basic_ostream@DU?$char_traits@D@std@@@0@AAV10@ABV?$basic_string@DU?$char_traits@D@std@@V?$allocator@D@2@@0@@Z ; std::operator<<<char,std::char_traits<char>,std::allocator<char> >
PUBLIC	??$endl@DU?$char_traits@D@std@@@std@@YAAAV?$basic_ostream@DU?$char_traits@D@std@@@0@AAV10@@Z ; std::endl<char,std::char_traits<char> >
PUBLIC	??$?6_WU?$char_traits@_W@std@@V?$allocator@_W@1@@std@@YAAAV?$basic_ostream@_WU?$char_traits@_W@std@@@0@AAV10@ABV?$basic_string@_WU?$char_traits@_W@std@@V?$allocator@_W@2@@0@@Z ; std::operator<<<wchar_t,std::char_traits<wchar_t>,std::allocator<wchar_t> >
PUBLIC	??$endl@_WU?$char_traits@_W@std@@@std@@YAAAV?$basic_ostream@_WU?$char_traits@_W@std@@@0@AAV10@@Z ; std::endl<wchar_t,std::char_traits<wchar_t> >
PUBLIC	??$?6U?$char_traits@D@std@@@std@@YAAAV?$basic_ostream@DU?$char_traits@D@std@@@0@AAV10@D@Z ; std::operator<<<std::char_traits<char> >
PUBLIC	??$?6U?$char_traits@D@std@@@std@@YAAAV?$basic_ostream@DU?$char_traits@D@std@@@0@AAV10@PBD@Z ; std::operator<<<std::char_traits<char> >
PUBLIC	??$move@AAV?$basic_string@_WU?$char_traits@_W@std@@V?$allocator@_W@2@@std@@@std@@YA$$QAV?$basic_string@_WU?$char_traits@_W@std@@V?$allocator@_W@2@@0@AAV10@@Z ; std::move<std::basic_string<wchar_t,std::char_traits<wchar_t>,std::allocator<wchar_t> > &>
PUBLIC	??$move@AAV?$basic_string@DU?$char_traits@D@std@@V?$allocator@D@2@@std@@@std@@YA$$QAV?$basic_string@DU?$char_traits@D@std@@V?$allocator@D@2@@0@AAV10@@Z ; std::move<std::basic_string<char,std::char_traits<char>,std::allocator<char> > &>
PUBLIC	??$min@I@std@@YAABIABI0@Z			; std::min<unsigned int>
PUBLIC	?allocate@?$allocator@U_Container_proxy@std@@@std@@QAEPAU_Container_proxy@2@I@Z ; std::allocator<std::_Container_proxy>::allocate
PUBLIC	??$?0_U@?$allocator@U_Container_proxy@std@@@std@@QAE@ABV?$allocator@_U@1@@Z ; std::allocator<std::_Container_proxy>::allocator<std::_Container_proxy><char32_t>
PUBLIC	??$_Delete_plain_internal@V?$allocator@U_Container_proxy@std@@@std@@@std@@YAXAAV?$allocator@U_Container_proxy@std@@@0@QAU_Container_proxy@0@@Z ; std::_Delete_plain_internal<std::allocator<std::_Container_proxy> >
PUBLIC	??$?0$$V@?$_Compressed_pair@V?$allocator@_U@std@@V?$_String_val@U?$_Simple_types@_U@std@@@2@$00@std@@QAE@U_Zero_then_variadic_args_t@1@@Z ; std::_Compressed_pair<std::allocator<char32_t>,std::_String_val<std::_Simple_types<char32_t> >,1>::_Compressed_pair<std::allocator<char32_t>,std::_String_val<std::_Simple_types<char32_t> >,1><>
PUBLIC	??0?$_Container_proxy_ptr12@V?$allocator@U_Container_proxy@std@@@std@@@std@@QAE@AAV?$allocator@U_Container_proxy@std@@@1@AAU_Container_base12@1@@Z ; std::_Container_proxy_ptr12<std::allocator<std::_Container_proxy> >::_Container_proxy_ptr12<std::allocator<std::_Container_proxy> >
PUBLIC	??1?$_Container_proxy_ptr12@V?$allocator@U_Container_proxy@std@@@std@@@std@@QAE@XZ ; std::_Container_proxy_ptr12<std::allocator<std::_Container_proxy> >::~_Container_proxy_ptr12<std::allocator<std::_Container_proxy> >
PUBLIC	??$?0_S@?$allocator@U_Container_proxy@std@@@std@@QAE@ABV?$allocator@_S@1@@Z ; std::allocator<std::_Container_proxy>::allocator<std::_Container_proxy><char16_t>
PUBLIC	??$?0$$V@?$_Compressed_pair@V?$allocator@_S@std@@V?$_String_val@U?$_Simple_types@_S@std@@@2@$00@std@@QAE@U_Zero_then_variadic_args_t@1@@Z ; std::_Compressed_pair<std::allocator<char16_t>,std::_String_val<std::_Simple_types<char16_t> >,1>::_Compressed_pair<std::allocator<char16_t>,std::_String_val<std::_Simple_types<char16_t> >,1><>
PUBLIC	??$?0_W@?$allocator@U_Container_proxy@std@@@std@@QAE@ABV?$allocator@_W@1@@Z ; std::allocator<std::_Container_proxy>::allocator<std::_Container_proxy><wchar_t>
PUBLIC	??$move@AAV?$allocator@_W@std@@@std@@YA$$QAV?$allocator@_W@0@AAV10@@Z ; std::move<std::allocator<wchar_t> &>
PUBLIC	??$?0V?$allocator@_W@std@@$$V@?$_Compressed_pair@V?$allocator@_W@std@@V?$_String_val@U?$_Simple_types@_W@std@@@2@$00@std@@QAE@U_One_then_variadic_args_t@1@$$QAV?$allocator@_W@1@@Z ; std::_Compressed_pair<std::allocator<wchar_t>,std::_String_val<std::_Simple_types<wchar_t> >,1>::_Compressed_pair<std::allocator<wchar_t>,std::_String_val<std::_Simple_types<wchar_t> >,1><std::allocator<wchar_t> >
PUBLIC	??$_Alloc_proxy@V?$allocator@U_Container_proxy@std@@@std@@@_Container_base12@std@@QAEX$$QAV?$allocator@U_Container_proxy@std@@@1@@Z ; std::_Container_base12::_Alloc_proxy<std::allocator<std::_Container_proxy> >
PUBLIC	??$?0$$V@?$_Compressed_pair@V?$allocator@_W@std@@V?$_String_val@U?$_Simple_types@_W@std@@@2@$00@std@@QAE@U_Zero_then_variadic_args_t@1@@Z ; std::_Compressed_pair<std::allocator<wchar_t>,std::_String_val<std::_Simple_types<wchar_t> >,1>::_Compressed_pair<std::allocator<wchar_t>,std::_String_val<std::_Simple_types<wchar_t> >,1><>
PUBLIC	??$_Convert_size@I@std@@YAII@Z			; std::_Convert_size<unsigned int>
PUBLIC	??$?0D@?$allocator@U_Container_proxy@std@@@std@@QAE@ABV?$allocator@D@1@@Z ; std::allocator<std::_Container_proxy>::allocator<std::_Container_proxy><char>
PUBLIC	??$move@AAV?$allocator@D@std@@@std@@YA$$QAV?$allocator@D@0@AAV10@@Z ; std::move<std::allocator<char> &>
PUBLIC	??$?0V?$allocator@D@std@@$$V@?$_Compressed_pair@V?$allocator@D@std@@V?$_String_val@U?$_Simple_types@D@std@@@2@$00@std@@QAE@U_One_then_variadic_args_t@1@$$QAV?$allocator@D@1@@Z ; std::_Compressed_pair<std::allocator<char>,std::_String_val<std::_Simple_types<char> >,1>::_Compressed_pair<std::allocator<char>,std::_String_val<std::_Simple_types<char> >,1><std::allocator<char> >
PUBLIC	??$?0$$V@?$_Compressed_pair@V?$allocator@D@std@@V?$_String_val@U?$_Simple_types@D@std@@@2@$00@std@@QAE@U_Zero_then_variadic_args_t@1@@Z ; std::_Compressed_pair<std::allocator<char>,std::_String_val<std::_Simple_types<char> >,1>::_Compressed_pair<std::allocator<char>,std::_String_val<std::_Simple_types<char> >,1><>
PUBLIC	??$_Unfancy@U_Container_proxy@std@@@std@@YAPAU_Container_proxy@0@PAU10@@Z ; std::_Unfancy<std::_Container_proxy>
PUBLIC	??$_Destroy_in_place@PA_U@std@@YAXAAPA_U@Z	; std::_Destroy_in_place<char32_t *>
PUBLIC	??R<lambda_02ffc73a80c062ba6e5e6c9f53d514cc>@@QBE@QA_UIQB_U@Z ; <lambda_02ffc73a80c062ba6e5e6c9f53d514cc>::operator()
PUBLIC	??$_Reallocate_for@V<lambda_02ffc73a80c062ba6e5e6c9f53d514cc>@@PB_U@?$basic_string@_UU?$char_traits@_U@std@@V?$allocator@_U@2@@std@@AAEAAV01@IV<lambda_02ffc73a80c062ba6e5e6c9f53d514cc>@@PB_U@Z ; std::basic_string<char32_t,std::char_traits<char32_t>,std::allocator<char32_t> >::_Reallocate_for<<lambda_02ffc73a80c062ba6e5e6c9f53d514cc>,char32_t const *>
PUBLIC	??$_Unfancy@_U@std@@YAPA_UPA_U@Z		; std::_Unfancy<char32_t>
PUBLIC	??$_Destroy_in_place@PA_S@std@@YAXAAPA_S@Z	; std::_Destroy_in_place<char16_t *>
PUBLIC	??R<lambda_493290ea8cd8fcd66ff9f3cecf244fbc>@@QBE@QA_SIQB_S@Z ; <lambda_493290ea8cd8fcd66ff9f3cecf244fbc>::operator()
PUBLIC	??$_Reallocate_for@V<lambda_493290ea8cd8fcd66ff9f3cecf244fbc>@@PB_S@?$basic_string@_SU?$char_traits@_S@std@@V?$allocator@_S@2@@std@@AAEAAV01@IV<lambda_493290ea8cd8fcd66ff9f3cecf244fbc>@@PB_S@Z ; std::basic_string<char16_t,std::char_traits<char16_t>,std::allocator<char16_t> >::_Reallocate_for<<lambda_493290ea8cd8fcd66ff9f3cecf244fbc>,char16_t const *>
PUBLIC	??$_Unfancy@_S@std@@YAPA_SPA_S@Z		; std::_Unfancy<char16_t>
PUBLIC	??$_Destroy_in_place@PA_W@std@@YAXAAPA_W@Z	; std::_Destroy_in_place<wchar_t *>
PUBLIC	??R<lambda_03628ca18370b1f44a99b655e704819b>@@QBE@QA_WIQB_W@Z ; <lambda_03628ca18370b1f44a99b655e704819b>::operator()
PUBLIC	??$_Reallocate_for@V<lambda_03628ca18370b1f44a99b655e704819b>@@PB_W@?$basic_string@_WU?$char_traits@_W@std@@V?$allocator@_W@2@@std@@AAEAAV01@IV<lambda_03628ca18370b1f44a99b655e704819b>@@PB_W@Z ; std::basic_string<wchar_t,std::char_traits<wchar_t>,std::allocator<wchar_t> >::_Reallocate_for<<lambda_03628ca18370b1f44a99b655e704819b>,wchar_t const *>
PUBLIC	??$_Construct_in_place@PA_WAAPA_W@std@@YAXAAPA_W0@Z ; std::_Construct_in_place<wchar_t *,wchar_t * &>
PUBLIC	??$_Unfancy@_W@std@@YAPA_WPA_W@Z		; std::_Unfancy<wchar_t>
PUBLIC	??$_Destroy_in_place@PAD@std@@YAXAAPAD@Z	; std::_Destroy_in_place<char *>
PUBLIC	??R<lambda_9366063389c5f42a00a5088cf24e69de>@@QBE@QADIQBD@Z ; <lambda_9366063389c5f42a00a5088cf24e69de>::operator()
PUBLIC	??$_Reallocate_for@V<lambda_9366063389c5f42a00a5088cf24e69de>@@PBD@?$basic_string@DU?$char_traits@D@std@@V?$allocator@D@2@@std@@AAEAAV01@IV<lambda_9366063389c5f42a00a5088cf24e69de>@@PBD@Z ; std::basic_string<char,std::char_traits<char>,std::allocator<char> >::_Reallocate_for<<lambda_9366063389c5f42a00a5088cf24e69de>,char const *>
PUBLIC	??R<lambda_ab246b20b9526e2ef7792587e4298a77>@@QBE@QADQBDI1I@Z ; <lambda_ab246b20b9526e2ef7792587e4298a77>::operator()
PUBLIC	??$_Reallocate_grow_by@V<lambda_ab246b20b9526e2ef7792587e4298a77>@@PBDI@?$basic_string@DU?$char_traits@D@std@@V?$allocator@D@2@@std@@AAEAAV01@IV<lambda_ab246b20b9526e2ef7792587e4298a77>@@PBDI@Z ; std::basic_string<char,std::char_traits<char>,std::allocator<char> >::_Reallocate_grow_by<<lambda_ab246b20b9526e2ef7792587e4298a77>,char const *,unsigned int>
PUBLIC	??$_Construct_in_place@PADABQAD@std@@YAXAAPADABQAD@Z ; std::_Construct_in_place<char *,char * const &>
PUBLIC	??$_Unfancy@D@std@@YAPADPAD@Z			; std::_Unfancy<char>
PUBLIC	??$_Construct_in_place@PADAAPAD@std@@YAXAAPAD0@Z ; std::_Construct_in_place<char *,char * &>
PUBLIC	??$max@I@std@@YAABIABI0@Z			; std::max<unsigned int>
PUBLIC	??$_Get_size_of_n@$07@std@@YAII@Z		; std::_Get_size_of_n<8>
PUBLIC	??$_Allocate@$07U_Default_allocate_traits@std@@$0A@@std@@YAPAXI@Z ; std::_Allocate<8,std::_Default_allocate_traits,0>
PUBLIC	??$_Deallocate@$07$0A@@std@@YAXPAXI@Z		; std::_Deallocate<8,0>
PUBLIC	??$addressof@V?$_String_val@U?$_Simple_types@_W@std@@@std@@@std@@YAPAV?$_String_val@U?$_Simple_types@_W@std@@@0@AAV10@@Z ; std::addressof<std::_String_val<std::_Simple_types<wchar_t> > >
PUBLIC	??$_Construct_in_place@PA_WABQA_W@std@@YAXAAPA_WABQA_W@Z ; std::_Construct_in_place<wchar_t *,wchar_t * const &>
PUBLIC	??$addressof@$$CBV?$_String_val@U?$_Simple_types@_W@std@@@std@@@std@@YAPBV?$_String_val@U?$_Simple_types@_W@std@@@0@ABV10@@Z ; std::addressof<std::_String_val<std::_Simple_types<wchar_t> > const >
PUBLIC	??$addressof@V?$_String_val@U?$_Simple_types@D@std@@@std@@@std@@YAPAV?$_String_val@U?$_Simple_types@D@std@@@0@AAV10@@Z ; std::addressof<std::_String_val<std::_Simple_types<char> > >
PUBLIC	??$addressof@$$CBV?$_String_val@U?$_Simple_types@D@std@@@std@@@std@@YAPBV?$_String_val@U?$_Simple_types@D@std@@@0@ABV10@@Z ; std::addressof<std::_String_val<std::_Simple_types<char> > const >
PUBLIC	??$_Get_size_of_n@$00@std@@YAII@Z		; std::_Get_size_of_n<1>
PUBLIC	??0_Sentry_base@?$basic_ostream@DU?$char_traits@D@std@@@std@@QAE@AAV12@@Z ; std::basic_ostream<char,std::char_traits<char> >::_Sentry_base::_Sentry_base
PUBLIC	??1_Sentry_base@?$basic_ostream@DU?$char_traits@D@std@@@std@@QAE@XZ ; std::basic_ostream<char,std::char_traits<char> >::_Sentry_base::~_Sentry_base
PUBLIC	??0sentry@?$basic_ostream@DU?$char_traits@D@std@@@std@@QAE@AAV12@@Z ; std::basic_ostream<char,std::char_traits<char> >::sentry::sentry
PUBLIC	??1sentry@?$basic_ostream@DU?$char_traits@D@std@@@std@@QAE@XZ ; std::basic_ostream<char,std::char_traits<char> >::sentry::~sentry
PUBLIC	??Bsentry@?$basic_ostream@DU?$char_traits@D@std@@@std@@QBE_NXZ ; std::basic_ostream<char,std::char_traits<char> >::sentry::operator bool
PUBLIC	??R<lambda_2fb699096920f2dc628cb0826b07831d>@@QBE@QA_WQB_WI1I@Z ; <lambda_2fb699096920f2dc628cb0826b07831d>::operator()
PUBLIC	??$_Reallocate_grow_by@V<lambda_2fb699096920f2dc628cb0826b07831d>@@PB_WI@?$basic_string@_WU?$char_traits@_W@std@@V?$allocator@_W@2@@std@@AAEAAV01@IV<lambda_2fb699096920f2dc628cb0826b07831d>@@PB_WI@Z ; std::basic_string<wchar_t,std::char_traits<wchar_t>,std::allocator<wchar_t> >::_Reallocate_grow_by<<lambda_2fb699096920f2dc628cb0826b07831d>,wchar_t const *,unsigned int>
PUBLIC	??$_Get_size_of_n@$01@std@@YAII@Z		; std::_Get_size_of_n<2>
PUBLIC	??$addressof@U_Container_proxy@std@@@std@@YAPAU_Container_proxy@0@AAU10@@Z ; std::addressof<std::_Container_proxy>
PUBLIC	??$_Voidify_iter@PAU_Container_proxy@std@@@std@@YAPAXPAU_Container_proxy@0@@Z ; std::_Voidify_iter<std::_Container_proxy *>
PUBLIC	??$forward@PAU_Container_base12@std@@@std@@YA$$QAPAU_Container_base12@0@AAPAU10@@Z ; std::forward<std::_Container_base12 *>
PUBLIC	??$move@AAV?$basic_string@_SU?$char_traits@_S@std@@V?$allocator@_S@2@@std@@@std@@YA$$QAV?$basic_string@_SU?$char_traits@_S@std@@V?$allocator@_S@2@@0@AAV10@@Z ; std::move<std::basic_string<char16_t,std::char_traits<char16_t>,std::allocator<char16_t> > &>
PUBLIC	??$move@AAV?$basic_string@_UU?$char_traits@_U@std@@V?$allocator@_U@2@@std@@@std@@YA$$QAV?$basic_string@_UU?$char_traits@_U@std@@V?$allocator@_U@2@@0@AAV10@@Z ; std::move<std::basic_string<char32_t,std::char_traits<char32_t>,std::allocator<char32_t> > &>
PUBLIC	??$_Insert_string@DU?$char_traits@D@std@@I@std@@YAAAV?$basic_ostream@DU?$char_traits@D@std@@@0@AAV10@QBDI@Z ; std::_Insert_string<char,std::char_traits<char>,unsigned int>
PUBLIC	??$_Insert_string@_WU?$char_traits@_W@std@@I@std@@YAAAV?$basic_ostream@_WU?$char_traits@_W@std@@@0@AAV10@QB_WI@Z ; std::_Insert_string<wchar_t,std::char_traits<wchar_t>,unsigned int>
PUBLIC	??$_Deallocate_plain@V?$allocator@U_Container_proxy@std@@@std@@@std@@YAXAAV?$allocator@U_Container_proxy@std@@@0@QAU_Container_proxy@0@@Z ; std::_Deallocate_plain<std::allocator<std::_Container_proxy> >
PUBLIC	??$forward@V?$allocator@_W@std@@@std@@YA$$QAV?$allocator@_W@0@AAV10@@Z ; std::forward<std::allocator<wchar_t> >
PUBLIC	??$forward@V?$allocator@D@std@@@std@@YA$$QAV?$allocator@D@0@AAV10@@Z ; std::forward<std::allocator<char> >
PUBLIC	??$_Construct_in_place@PA_UABQA_U@std@@YAXAAPA_UABQA_U@Z ; std::_Construct_in_place<char32_t *,char32_t * const &>
PUBLIC	??$_Construct_in_place@PA_SABQA_S@std@@YAXAAPA_SABQA_S@Z ; std::_Construct_in_place<char16_t *,char16_t * const &>
PUBLIC	??$addressof@PA_W@std@@YAPAPA_WAAPA_W@Z		; std::addressof<wchar_t *>
PUBLIC	??$_Voidify_iter@PAPA_W@std@@YAPAXPAPA_W@Z	; std::_Voidify_iter<wchar_t * *>
PUBLIC	??$forward@AAPA_W@std@@YAAAPA_WAAPA_W@Z		; std::forward<wchar_t * &>
PUBLIC	??$addressof@PAD@std@@YAPAPADAAPAD@Z		; std::addressof<char *>
PUBLIC	??$_Voidify_iter@PAPAD@std@@YAPAXPAPAD@Z	; std::_Voidify_iter<char * *>
PUBLIC	??$forward@ABQAD@std@@YAABQADABQAD@Z		; std::forward<char * const &>
PUBLIC	??$forward@AAPAD@std@@YAAAPADAAPAD@Z		; std::forward<char * &>
PUBLIC	??$_Allocate_manually_vector_aligned@U_Default_allocate_traits@std@@@std@@YAPAXI@Z ; std::_Allocate_manually_vector_aligned<std::_Default_allocate_traits>
PUBLIC	??$forward@ABQA_W@std@@YAABQA_WABQA_W@Z		; std::forward<wchar_t * const &>
PUBLIC	??0_Sentry_base@?$basic_ostream@_WU?$char_traits@_W@std@@@std@@QAE@AAV12@@Z ; std::basic_ostream<wchar_t,std::char_traits<wchar_t> >::_Sentry_base::_Sentry_base
PUBLIC	??1_Sentry_base@?$basic_ostream@_WU?$char_traits@_W@std@@@std@@QAE@XZ ; std::basic_ostream<wchar_t,std::char_traits<wchar_t> >::_Sentry_base::~_Sentry_base
PUBLIC	??0sentry@?$basic_ostream@_WU?$char_traits@_W@std@@@std@@QAE@AAV12@@Z ; std::basic_ostream<wchar_t,std::char_traits<wchar_t> >::sentry::sentry
PUBLIC	??1sentry@?$basic_ostream@_WU?$char_traits@_W@std@@@std@@QAE@XZ ; std::basic_ostream<wchar_t,std::char_traits<wchar_t> >::sentry::~sentry
PUBLIC	??Bsentry@?$basic_ostream@_WU?$char_traits@_W@std@@@std@@QBE_NXZ ; std::basic_ostream<wchar_t,std::char_traits<wchar_t> >::sentry::operator bool
PUBLIC	??$move@AAV?$allocator@_U@std@@@std@@YA$$QAV?$allocator@_U@0@AAV10@@Z ; std::move<std::allocator<char32_t> &>
PUBLIC	??$?0V?$allocator@_U@std@@$$V@?$_Compressed_pair@V?$allocator@_U@std@@V?$_String_val@U?$_Simple_types@_U@std@@@2@$00@std@@QAE@U_One_then_variadic_args_t@1@$$QAV?$allocator@_U@1@@Z ; std::_Compressed_pair<std::allocator<char32_t>,std::_String_val<std::_Simple_types<char32_t> >,1>::_Compressed_pair<std::allocator<char32_t>,std::_String_val<std::_Simple_types<char32_t> >,1><std::allocator<char32_t> >
PUBLIC	??$_Get_size_of_n@$03@std@@YAII@Z		; std::_Get_size_of_n<4>
PUBLIC	??$move@AAV?$allocator@_S@std@@@std@@YA$$QAV?$allocator@_S@0@AAV10@@Z ; std::move<std::allocator<char16_t> &>
PUBLIC	??$?0V?$allocator@_S@std@@$$V@?$_Compressed_pair@V?$allocator@_S@std@@V?$_String_val@U?$_Simple_types@_S@std@@@2@$00@std@@QAE@U_One_then_variadic_args_t@1@$$QAV?$allocator@_S@1@@Z ; std::_Compressed_pair<std::allocator<char16_t>,std::_String_val<std::_Simple_types<char16_t> >,1>::_Compressed_pair<std::allocator<char16_t>,std::_String_val<std::_Simple_types<char16_t> >,1><std::allocator<char16_t> >
PUBLIC	??R<lambda_aabcc5df0dcdbd223414bc3ba38ad6d9>@@QBE@QA_UQB_UI1I@Z ; <lambda_aabcc5df0dcdbd223414bc3ba38ad6d9>::operator()
PUBLIC	??$_Reallocate_grow_by@V<lambda_aabcc5df0dcdbd223414bc3ba38ad6d9>@@PB_UI@?$basic_string@_UU?$char_traits@_U@std@@V?$allocator@_U@2@@std@@AAEAAV01@IV<lambda_aabcc5df0dcdbd223414bc3ba38ad6d9>@@PB_UI@Z ; std::basic_string<char32_t,std::char_traits<char32_t>,std::allocator<char32_t> >::_Reallocate_grow_by<<lambda_aabcc5df0dcdbd223414bc3ba38ad6d9>,char32_t const *,unsigned int>
PUBLIC	??$_Construct_in_place@PA_UAAPA_U@std@@YAXAAPA_U0@Z ; std::_Construct_in_place<char32_t *,char32_t * &>
PUBLIC	??R<lambda_98ae700cc7810ca9f391bc310db97391>@@QBE@QA_SQB_SI1I@Z ; <lambda_98ae700cc7810ca9f391bc310db97391>::operator()
PUBLIC	??$_Reallocate_grow_by@V<lambda_98ae700cc7810ca9f391bc310db97391>@@PB_SI@?$basic_string@_SU?$char_traits@_S@std@@V?$allocator@_S@2@@std@@AAEAAV01@IV<lambda_98ae700cc7810ca9f391bc310db97391>@@PB_SI@Z ; std::basic_string<char16_t,std::char_traits<char16_t>,std::allocator<char16_t> >::_Reallocate_grow_by<<lambda_98ae700cc7810ca9f391bc310db97391>,char16_t const *,unsigned int>
PUBLIC	??$_Construct_in_place@PA_SAAPA_S@std@@YAXAAPA_S0@Z ; std::_Construct_in_place<char16_t *,char16_t * &>
PUBLIC	??$addressof@V?$_String_val@U?$_Simple_types@_U@std@@@std@@@std@@YAPAV?$_String_val@U?$_Simple_types@_U@std@@@0@AAV10@@Z ; std::addressof<std::_String_val<std::_Simple_types<char32_t> > >
PUBLIC	??$addressof@$$CBV?$_String_val@U?$_Simple_types@_U@std@@@std@@@std@@YAPBV?$_String_val@U?$_Simple_types@_U@std@@@0@ABV10@@Z ; std::addressof<std::_String_val<std::_Simple_types<char32_t> > const >
PUBLIC	??$addressof@V?$_String_val@U?$_Simple_types@_S@std@@@std@@@std@@YAPAV?$_String_val@U?$_Simple_types@_S@std@@@0@AAV10@@Z ; std::addressof<std::_String_val<std::_Simple_types<char16_t> > >
PUBLIC	??$addressof@$$CBV?$_String_val@U?$_Simple_types@_S@std@@@std@@@std@@YAPBV?$_String_val@U?$_Simple_types@_S@std@@@0@ABV10@@Z ; std::addressof<std::_String_val<std::_Simple_types<char16_t> > const >
PUBLIC	?deallocate@?$_Default_allocator_traits@V?$allocator@U_Container_proxy@std@@@std@@@std@@SAXAAV?$allocator@U_Container_proxy@std@@@2@QAU_Container_proxy@2@I@Z ; std::_Default_allocator_traits<std::allocator<std::_Container_proxy> >::deallocate
PUBLIC	??$addressof@PA_U@std@@YAPAPA_UAAPA_U@Z		; std::addressof<char32_t *>
PUBLIC	??$_Voidify_iter@PAPA_U@std@@YAPAXPAPA_U@Z	; std::_Voidify_iter<char32_t * *>
PUBLIC	??$forward@ABQA_U@std@@YAABQA_UABQA_U@Z		; std::forward<char32_t * const &>
PUBLIC	??$addressof@PA_S@std@@YAPAPA_SAAPA_S@Z		; std::addressof<char16_t *>
PUBLIC	??$_Voidify_iter@PAPA_S@std@@YAPAXPAPA_S@Z	; std::_Voidify_iter<char16_t * *>
PUBLIC	??$forward@ABQA_S@std@@YAABQA_SABQA_S@Z		; std::forward<char16_t * const &>
PUBLIC	??$forward@V?$allocator@_U@std@@@std@@YA$$QAV?$allocator@_U@0@AAV10@@Z ; std::forward<std::allocator<char32_t> >
PUBLIC	??$forward@V?$allocator@_S@std@@@std@@YA$$QAV?$allocator@_S@0@AAV10@@Z ; std::forward<std::allocator<char16_t> >
PUBLIC	??$forward@AAPA_U@std@@YAAAPA_UAAPA_U@Z		; std::forward<char32_t * &>
PUBLIC	??$forward@AAPA_S@std@@YAAAPA_SAAPA_S@Z		; std::forward<char16_t * &>
PUBLIC	__JustMyCode_Default
PUBLIC	??_7exception@std@@6B@				; std::exception::`vftable'
PUBLIC	??_C@_0BC@EOODALEL@Unknown?5exception@		; `string'
PUBLIC	??_7bad_alloc@std@@6B@				; std::bad_alloc::`vftable'
PUBLIC	??_7bad_array_new_length@std@@6B@		; std::bad_array_new_length::`vftable'
PUBLIC	??_C@_0BF@KINCDENJ@bad?5array?5new?5length@	; `string'
PUBLIC	__TI3?AVbad_array_new_length@std@@
PUBLIC	__CTA3?AVbad_array_new_length@std@@
PUBLIC	??_R0?AVbad_array_new_length@std@@@8		; std::bad_array_new_length `RTTI Type Descriptor'
PUBLIC	__CT??_R0?AVbad_array_new_length@std@@@8??0bad_array_new_length@std@@QAE@ABV01@@Z12
PUBLIC	??_R0?AVbad_alloc@std@@@8			; std::bad_alloc `RTTI Type Descriptor'
PUBLIC	__CT??_R0?AVbad_alloc@std@@@8??0bad_alloc@std@@QAE@ABV01@@Z12
PUBLIC	??_R0?AVexception@std@@@8			; std::exception `RTTI Type Descriptor'
PUBLIC	__CT??_R0?AVexception@std@@@8??0exception@std@@QAE@ABV01@@Z12
PUBLIC	?__LINE__Var@?0??_Adjust_manually_vector_aligned@std@@YAXAAPAXAAI@Z@4JA ; `std::_Adjust_manually_vector_aligned'::`1'::__LINE__Var
PUBLIC	??_C@_0BB@FCMFBGOM@invalid?5argument@		; `string'
PUBLIC	??_C@_02DKCKIIND@?$CFs@				; `string'
PUBLIC	??_C@_0GI@MNEMJBML@C?3?2Program?5Files?5?$CIx86?$CJ?2Microsof@ ; `string'
PUBLIC	??_C@_1NA@MJBOBEJL@?$AAC?$AA?3?$AA?2?$AAP?$AAr?$AAo?$AAg?$AAr?$AAa?$AAm?$AA?5?$AAF?$AAi?$AAl?$AAe@ ; `string'
PUBLIC	??_C@_11LOCGONAA@@				; `string'
PUBLIC	??_C@_1CG@JNLFBNGN@?$AA?$CC?$AAi?$AAn?$AAv?$AAa?$AAl?$AAi?$AAd?$AA?5?$AAa?$AAr?$AAg?$AAu?$AAm?$AAe@ ; `string'
PUBLIC	??_C@_0BA@JFNIOLAK@string?5too?5long@		; `string'
PUBLIC	??_C@_0BA@ELKIONDK@bad?5locale?5name@		; `string'
PUBLIC	??_C@_0GI@GFIAKDGM@C?3?2Program?5Files?5?$CIx86?$CJ?2Microsof@ ; `string'
PUBLIC	??_C@_01NBENCBCI@?$CK@				; `string'
PUBLIC	?__LINE__Var@?0??_Maklocwcs@std@@YAPA_WPB_W@Z@4JA ; `std::_Maklocwcs'::`1'::__LINE__Var
PUBLIC	??_C@_0GI@OGMNKBMN@C?3?2Program?5Files?5?$CIx86?$CJ?2Microsof@ ; `string'
PUBLIC	??_C@_02PLJDPFIO@00@				; `string'
PUBLIC	??_C@_05FBADLLFO@Ethan@				; `string'
PUBLIC	??_C@_15CNAMGDF@?$AA0?$AA1@			; `string'
PUBLIC	??_C@_1M@MIBHDLFD@?$AAE?$AAt?$AAh?$AAa?$AAn@	; `string'
PUBLIC	??_C@_15BAGFGJNL@?$AA0?$AA2@			; `string'
PUBLIC	??_C@_2M@JLEBFLAK@?$AA?$AA?$AA0?$AA?$AA?$AA3@	; `string'
PUBLIC	??_C@_2BI@CPCKAEFF@?$AA?$AA?$AAE?$AA?$AA?$AAt?$AA?$AA?$AAh?$AA?$AA?$AAa?$AA?$AA?$AAn@ ; `string'
PUBLIC	??_C@_0BC@GBLLDDOB@Line1?6Line2?6Line3@		; `string'
PUBLIC	??_C@_0BD@HHMEIFCK@line1?6line2?6line3?6@	; `string'
PUBLIC	??_C@_03LFPOMIKD@chs@				; `string'
PUBLIC	??_C@_01LOCGONAA@?$AA@				; `string'
PUBLIC	??_C@_1M@PAFHHBLA@?$AAE?$AAt?$AAa?$AAh?$AAn@	; `string'
PUBLIC	??_C@_2BI@GPPIDABK@?$AA?$AA?$AAE?$AA?$AA?$AAt?$AA?$AA?$AAa?$AA?$AA?$AAh?$AA?$AA?$AAn@ ; `string'
PUBLIC	??_C@_05HKGIJGOH@name?3@			; `string'
PUBLIC	??_C@_0N@LPFKKEBD@?3AM?3am?3PM?3pm@		; `string'
PUBLIC	??_C@_1BK@MHIKGOKE@?$AA?3?$AAA?$AAM?$AA?3?$AAa?$AAm?$AA?3?$AAP?$AAM?$AA?3?$AAp?$AAm@ ; `string'
PUBLIC	??_R4exception@std@@6B@				; std::exception::`RTTI Complete Object Locator'
PUBLIC	??_R3exception@std@@8				; std::exception::`RTTI Class Hierarchy Descriptor'
PUBLIC	??_R2exception@std@@8				; std::exception::`RTTI Base Class Array'
PUBLIC	??_R1A@?0A@EA@exception@std@@8			; std::exception::`RTTI Base Class Descriptor at (0,-1,0,64)'
PUBLIC	??_R4bad_alloc@std@@6B@				; std::bad_alloc::`RTTI Complete Object Locator'
PUBLIC	??_R3bad_alloc@std@@8				; std::bad_alloc::`RTTI Class Hierarchy Descriptor'
PUBLIC	??_R2bad_alloc@std@@8				; std::bad_alloc::`RTTI Base Class Array'
PUBLIC	??_R1A@?0A@EA@bad_alloc@std@@8			; std::bad_alloc::`RTTI Base Class Descriptor at (0,-1,0,64)'
PUBLIC	??_R4bad_array_new_length@std@@6B@		; std::bad_array_new_length::`RTTI Complete Object Locator'
PUBLIC	??_R3bad_array_new_length@std@@8		; std::bad_array_new_length::`RTTI Class Hierarchy Descriptor'
PUBLIC	??_R2bad_array_new_length@std@@8		; std::bad_array_new_length::`RTTI Base Class Array'
PUBLIC	??_R1A@?0A@EA@bad_array_new_length@std@@8	; std::bad_array_new_length::`RTTI Base Class Descriptor at (0,-1,0,64)'
EXTRN	??2@YAPAXI@Z:PROC				; operator new
EXTRN	??3@YAXPAXI@Z:PROC				; operator delete
EXTRN	__imp___invalid_parameter:PROC
EXTRN	__imp___calloc_dbg:PROC
EXTRN	__imp___CrtDbgReport:PROC
EXTRN	__imp_??0_Lockit@std@@QAE@H@Z:PROC
EXTRN	__imp_??1_Lockit@std@@QAE@XZ:PROC
EXTRN	_memcpy:PROC
EXTRN	_memmove:PROC
EXTRN	__imp__wcslen:PROC
EXTRN	_strcmp:PROC
EXTRN	_strlen:PROC
EXTRN	?_Xbad_alloc@std@@YAXXZ:PROC			; std::_Xbad_alloc
EXTRN	?_Xlength_error@std@@YAXPBD@Z:PROC		; std::_Xlength_error
EXTRN	?_Xruntime_error@std@@YAXPBD@Z:PROC		; std::_Xruntime_error
EXTRN	?uncaught_exception@std@@YA_NXZ:PROC		; std::uncaught_exception
EXTRN	___std_exception_copy:PROC
EXTRN	___std_exception_destroy:PROC
EXTRN	??_Eexception@std@@UAEPAXI@Z:PROC		; std::exception::`vector deleting destructor'
EXTRN	??_Ebad_alloc@std@@UAEPAXI@Z:PROC		; std::bad_alloc::`vector deleting destructor'
EXTRN	??_Ebad_array_new_length@std@@UAEPAXI@Z:PROC	; std::bad_array_new_length::`vector deleting destructor'
EXTRN	__Mbrtowc:PROC
EXTRN	__imp_??0_Locinfo@std@@QAE@HPBD@Z:PROC
EXTRN	__imp_??1_Locinfo@std@@QAE@XZ:PROC
EXTRN	__imp_?_Getname@_Locinfo@std@@QBEPBDXZ:PROC
EXTRN	__imp_?_Getcvt@_Locinfo@std@@QBE?AU_Cvtvec@@XZ:PROC
EXTRN	__imp_?_Getdays@_Locinfo@std@@QBEPBDXZ:PROC
EXTRN	__imp_?_Getmonths@_Locinfo@std@@QBEPBDXZ:PROC
EXTRN	__imp_?_W_Getdays@_Locinfo@std@@QBEPBGXZ:PROC
EXTRN	__imp_?_W_Getmonths@_Locinfo@std@@QBEPBGXZ:PROC
EXTRN	__imp_??4?$_Yarn@D@std@@QAEAAV01@PBD@Z:PROC
EXTRN	__imp_?_New_Locimp@_Locimp@locale@std@@CAPAV123@_N@Z:PROC
EXTRN	__imp_?_Makeloc@_Locimp@locale@std@@CAPAV123@ABV_Locinfo@3@HPAV123@PBV23@@Z:PROC
EXTRN	?_Init@locale@std@@CAPAV_Locimp@12@_N@Z:PROC	; std::locale::_Init
EXTRN	__imp_?good@ios_base@std@@QBE_NXZ:PROC
EXTRN	__imp_?flags@ios_base@std@@QBEHXZ:PROC
EXTRN	__imp_?width@ios_base@std@@QBE_JXZ:PROC
EXTRN	__imp_?width@ios_base@std@@QAE_J_J@Z:PROC
EXTRN	__imp_?sputc@?$basic_streambuf@DU?$char_traits@D@std@@@std@@QAEHD@Z:PROC
EXTRN	__imp_?sputn@?$basic_streambuf@DU?$char_traits@D@std@@@std@@QAE_JPBD_J@Z:PROC
EXTRN	__imp_?sputc@?$basic_streambuf@_WU?$char_traits@_W@std@@@std@@QAEG_W@Z:PROC
EXTRN	__imp_?sputn@?$basic_streambuf@_WU?$char_traits@_W@std@@@std@@QAE_JPB_W_J@Z:PROC
EXTRN	__imp_?setstate@?$basic_ios@DU?$char_traits@D@std@@@std@@QAEXH_N@Z:PROC
EXTRN	__imp_?tie@?$basic_ios@DU?$char_traits@D@std@@@std@@QBEPAV?$basic_ostream@DU?$char_traits@D@std@@@2@XZ:PROC
EXTRN	__imp_?rdbuf@?$basic_ios@DU?$char_traits@D@std@@@std@@QBEPAV?$basic_streambuf@DU?$char_traits@D@std@@@2@XZ:PROC
EXTRN	__imp_?fill@?$basic_ios@DU?$char_traits@D@std@@@std@@QBEDXZ:PROC
EXTRN	__imp_?widen@?$basic_ios@DU?$char_traits@D@std@@@std@@QBEDD@Z:PROC
EXTRN	__imp_?setstate@?$basic_ios@_WU?$char_traits@_W@std@@@std@@QAEXH_N@Z:PROC
EXTRN	__imp_?tie@?$basic_ios@_WU?$char_traits@_W@std@@@std@@QBEPAV?$basic_ostream@_WU?$char_traits@_W@std@@@2@XZ:PROC
EXTRN	__imp_?rdbuf@?$basic_ios@_WU?$char_traits@_W@std@@@std@@QBEPAV?$basic_streambuf@_WU?$char_traits@_W@std@@@2@XZ:PROC
EXTRN	__imp_?imbue@?$basic_ios@_WU?$char_traits@_W@std@@@std@@QAE?AVlocale@2@ABV32@@Z:PROC
EXTRN	__imp_?fill@?$basic_ios@_WU?$char_traits@_W@std@@@std@@QBE_WXZ:PROC
EXTRN	__imp_?widen@?$basic_ios@_WU?$char_traits@_W@std@@@std@@QBE_WD@Z:PROC
EXTRN	__imp_?_Osfx@?$basic_ostream@DU?$char_traits@D@std@@@std@@QAEXXZ:PROC
EXTRN	__imp_??6?$basic_ostream@DU?$char_traits@D@std@@@std@@QAEAAV01@P6AAAV01@AAV01@@Z@Z:PROC
EXTRN	__imp_?put@?$basic_ostream@DU?$char_traits@D@std@@@std@@QAEAAV12@D@Z:PROC
EXTRN	__imp_?flush@?$basic_ostream@DU?$char_traits@D@std@@@std@@QAEAAV12@XZ:PROC
EXTRN	__imp_?_Osfx@?$basic_ostream@_WU?$char_traits@_W@std@@@std@@QAEXXZ:PROC
EXTRN	__imp_??6?$basic_ostream@_WU?$char_traits@_W@std@@@std@@QAEAAV01@P6AAAV01@AAV01@@Z@Z:PROC
EXTRN	__imp_?put@?$basic_ostream@_WU?$char_traits@_W@std@@@std@@QAEAAV12@_W@Z:PROC
EXTRN	__imp_?flush@?$basic_ostream@_WU?$char_traits@_W@std@@@std@@QAEAAV12@XZ:PROC
EXTRN	__imp_?get@?$basic_istream@DU?$char_traits@D@std@@@std@@QAEHXZ:PROC
EXTRN	@_RTC_CheckStackVars@8:PROC
EXTRN	@__CheckForDebuggerJustMyCode@4:PROC
EXTRN	@__security_check_cookie@4:PROC
EXTRN	__CxxThrowException@8:PROC
EXTRN	__RTC_CheckEsp:PROC
EXTRN	__RTC_InitBase:PROC
EXTRN	__RTC_Shutdown:PROC
EXTRN	___CxxFrameHandler3:PROC
EXTRN	??_7type_info@@6B@:QWORD			; type_info::`vftable'
EXTRN	__imp_?cin@std@@3V?$basic_istream@DU?$char_traits@D@std@@@1@A:BYTE
EXTRN	__imp_?cout@std@@3V?$basic_ostream@DU?$char_traits@D@std@@@1@A:BYTE
EXTRN	__imp_?wcout@std@@3V?$basic_ostream@_WU?$char_traits@_W@std@@@1@A:BYTE
EXTRN	___security_cookie:DWORD
;	COMDAT rtc$TMZ
rtc$TMZ	SEGMENT
__RTC_Shutdown.rtc$TMZ DD FLAT:__RTC_Shutdown
rtc$TMZ	ENDS
;	COMDAT rtc$IMZ
rtc$IMZ	SEGMENT
__RTC_InitBase.rtc$IMZ DD FLAT:__RTC_InitBase
rtc$IMZ	ENDS
;	COMDAT ??_R1A@?0A@EA@bad_array_new_length@std@@8
rdata$r	SEGMENT
??_R1A@?0A@EA@bad_array_new_length@std@@8 DD FLAT:??_R0?AVbad_array_new_length@std@@@8 ; std::bad_array_new_length::`RTTI Base Class Descriptor at (0,-1,0,64)'
	DD	02H
	DD	00H
	DD	0ffffffffH
	DD	00H
	DD	040H
	DD	FLAT:??_R3bad_array_new_length@std@@8
rdata$r	ENDS
;	COMDAT ??_R2bad_array_new_length@std@@8
rdata$r	SEGMENT
??_R2bad_array_new_length@std@@8 DD FLAT:??_R1A@?0A@EA@bad_array_new_length@std@@8 ; std::bad_array_new_length::`RTTI Base Class Array'
	DD	FLAT:??_R1A@?0A@EA@bad_alloc@std@@8
	DD	FLAT:??_R1A@?0A@EA@exception@std@@8
rdata$r	ENDS
;	COMDAT ??_R3bad_array_new_length@std@@8
rdata$r	SEGMENT
??_R3bad_array_new_length@std@@8 DD 00H			; std::bad_array_new_length::`RTTI Class Hierarchy Descriptor'
	DD	00H
	DD	03H
	DD	FLAT:??_R2bad_array_new_length@std@@8
rdata$r	ENDS
;	COMDAT ??_R4bad_array_new_length@std@@6B@
rdata$r	SEGMENT
??_R4bad_array_new_length@std@@6B@ DD 00H		; std::bad_array_new_length::`RTTI Complete Object Locator'
	DD	00H
	DD	00H
	DD	FLAT:??_R0?AVbad_array_new_length@std@@@8
	DD	FLAT:??_R3bad_array_new_length@std@@8
rdata$r	ENDS
;	COMDAT ??_R1A@?0A@EA@bad_alloc@std@@8
rdata$r	SEGMENT
??_R1A@?0A@EA@bad_alloc@std@@8 DD FLAT:??_R0?AVbad_alloc@std@@@8 ; std::bad_alloc::`RTTI Base Class Descriptor at (0,-1,0,64)'
	DD	01H
	DD	00H
	DD	0ffffffffH
	DD	00H
	DD	040H
	DD	FLAT:??_R3bad_alloc@std@@8
rdata$r	ENDS
;	COMDAT ??_R2bad_alloc@std@@8
rdata$r	SEGMENT
??_R2bad_alloc@std@@8 DD FLAT:??_R1A@?0A@EA@bad_alloc@std@@8 ; std::bad_alloc::`RTTI Base Class Array'
	DD	FLAT:??_R1A@?0A@EA@exception@std@@8
rdata$r	ENDS
;	COMDAT ??_R3bad_alloc@std@@8
rdata$r	SEGMENT
??_R3bad_alloc@std@@8 DD 00H				; std::bad_alloc::`RTTI Class Hierarchy Descriptor'
	DD	00H
	DD	02H
	DD	FLAT:??_R2bad_alloc@std@@8
rdata$r	ENDS
;	COMDAT ??_R4bad_alloc@std@@6B@
rdata$r	SEGMENT
??_R4bad_alloc@std@@6B@ DD 00H				; std::bad_alloc::`RTTI Complete Object Locator'
	DD	00H
	DD	00H
	DD	FLAT:??_R0?AVbad_alloc@std@@@8
	DD	FLAT:??_R3bad_alloc@std@@8
rdata$r	ENDS
;	COMDAT ??_R1A@?0A@EA@exception@std@@8
rdata$r	SEGMENT
??_R1A@?0A@EA@exception@std@@8 DD FLAT:??_R0?AVexception@std@@@8 ; std::exception::`RTTI Base Class Descriptor at (0,-1,0,64)'
	DD	00H
	DD	00H
	DD	0ffffffffH
	DD	00H
	DD	040H
	DD	FLAT:??_R3exception@std@@8
rdata$r	ENDS
;	COMDAT ??_R2exception@std@@8
rdata$r	SEGMENT
??_R2exception@std@@8 DD FLAT:??_R1A@?0A@EA@exception@std@@8 ; std::exception::`RTTI Base Class Array'
rdata$r	ENDS
;	COMDAT ??_R3exception@std@@8
rdata$r	SEGMENT
??_R3exception@std@@8 DD 00H				; std::exception::`RTTI Class Hierarchy Descriptor'
	DD	00H
	DD	01H
	DD	FLAT:??_R2exception@std@@8
rdata$r	ENDS
;	COMDAT ??_R4exception@std@@6B@
rdata$r	SEGMENT
??_R4exception@std@@6B@ DD 00H				; std::exception::`RTTI Complete Object Locator'
	DD	00H
	DD	00H
	DD	FLAT:??_R0?AVexception@std@@@8
	DD	FLAT:??_R3exception@std@@8
rdata$r	ENDS
;	COMDAT ??_C@_1BK@MHIKGOKE@?$AA?3?$AAA?$AAM?$AA?3?$AAa?$AAm?$AA?3?$AAP?$AAM?$AA?3?$AAp?$AAm@
CONST	SEGMENT
??_C@_1BK@MHIKGOKE@?$AA?3?$AAA?$AAM?$AA?3?$AAa?$AAm?$AA?3?$AAP?$AAM?$AA?3?$AAp?$AAm@ DB ':'
	DB	00H, 'A', 00H, 'M', 00H, ':', 00H, 'a', 00H, 'm', 00H, ':', 00H
	DB	'P', 00H, 'M', 00H, ':', 00H, 'p', 00H, 'm', 00H, 00H, 00H ; `string'
CONST	ENDS
;	COMDAT ??_C@_0N@LPFKKEBD@?3AM?3am?3PM?3pm@
CONST	SEGMENT
??_C@_0N@LPFKKEBD@?3AM?3am?3PM?3pm@ DB ':AM:am:PM:pm', 00H ; `string'
CONST	ENDS
;	COMDAT ??_C@_05HKGIJGOH@name?3@
CONST	SEGMENT
??_C@_05HKGIJGOH@name?3@ DB 'name:', 00H		; `string'
CONST	ENDS
;	COMDAT ??_C@_2BI@GPPIDABK@?$AA?$AA?$AAE?$AA?$AA?$AAt?$AA?$AA?$AAa?$AA?$AA?$AAh?$AA?$AA?$AAn@
CONST	SEGMENT
??_C@_2BI@GPPIDABK@?$AA?$AA?$AAE?$AA?$AA?$AAt?$AA?$AA?$AAa?$AA?$AA?$AAh?$AA?$AA?$AAn@ DB 'E'
	DB	00H, 00H, 00H, 't', 00H, 00H, 00H, 'a', 00H, 00H, 00H, 'h', 00H
	DB	00H, 00H, 'n', 00H, 00H, 00H, 00H, 00H, 00H, 00H ; `string'
CONST	ENDS
;	COMDAT ??_C@_1M@PAFHHBLA@?$AAE?$AAt?$AAa?$AAh?$AAn@
CONST	SEGMENT
??_C@_1M@PAFHHBLA@?$AAE?$AAt?$AAa?$AAh?$AAn@ DB 'E', 00H, 't', 00H, 'a', 00H
	DB	'h', 00H, 'n', 00H, 00H, 00H			; `string'
CONST	ENDS
;	COMDAT ??_C@_01LOCGONAA@?$AA@
CONST	SEGMENT
??_C@_01LOCGONAA@?$AA@ DB 00H, 00H			; `string'
CONST	ENDS
;	COMDAT ??_C@_03LFPOMIKD@chs@
CONST	SEGMENT
??_C@_03LFPOMIKD@chs@ DB 'chs', 00H			; `string'
CONST	ENDS
;	COMDAT ??_C@_0BD@HHMEIFCK@line1?6line2?6line3?6@
CONST	SEGMENT
??_C@_0BD@HHMEIFCK@line1?6line2?6line3?6@ DB 'line1', 0aH, 'line2', 0aH, 'l'
	DB	'ine3', 0aH, 00H				; `string'
CONST	ENDS
;	COMDAT ??_C@_0BC@GBLLDDOB@Line1?6Line2?6Line3@
CONST	SEGMENT
??_C@_0BC@GBLLDDOB@Line1?6Line2?6Line3@ DB 'Line1', 0aH, 'Line2', 0aH, 'L'
	DB	'ine3', 00H					; `string'
CONST	ENDS
;	COMDAT ??_C@_2BI@CPCKAEFF@?$AA?$AA?$AAE?$AA?$AA?$AAt?$AA?$AA?$AAh?$AA?$AA?$AAa?$AA?$AA?$AAn@
CONST	SEGMENT
??_C@_2BI@CPCKAEFF@?$AA?$AA?$AAE?$AA?$AA?$AAt?$AA?$AA?$AAh?$AA?$AA?$AAa?$AA?$AA?$AAn@ DB 'E'
	DB	00H, 00H, 00H, 't', 00H, 00H, 00H, 'h', 00H, 00H, 00H, 'a', 00H
	DB	00H, 00H, 'n', 00H, 00H, 00H, 00H, 00H, 00H, 00H ; `string'
CONST	ENDS
;	COMDAT ??_C@_2M@JLEBFLAK@?$AA?$AA?$AA0?$AA?$AA?$AA3@
CONST	SEGMENT
??_C@_2M@JLEBFLAK@?$AA?$AA?$AA0?$AA?$AA?$AA3@ DB '0', 00H, 00H, 00H, '3', 00H
	DB	00H, 00H, 00H, 00H, 00H, 00H			; `string'
CONST	ENDS
;	COMDAT ??_C@_15BAGFGJNL@?$AA0?$AA2@
CONST	SEGMENT
??_C@_15BAGFGJNL@?$AA0?$AA2@ DB '0', 00H, '2', 00H, 00H, 00H ; `string'
CONST	ENDS
;	COMDAT ??_C@_1M@MIBHDLFD@?$AAE?$AAt?$AAh?$AAa?$AAn@
CONST	SEGMENT
??_C@_1M@MIBHDLFD@?$AAE?$AAt?$AAh?$AAa?$AAn@ DB 'E', 00H, 't', 00H, 'h', 00H
	DB	'a', 00H, 'n', 00H, 00H, 00H			; `string'
CONST	ENDS
;	COMDAT ??_C@_15CNAMGDF@?$AA0?$AA1@
CONST	SEGMENT
??_C@_15CNAMGDF@?$AA0?$AA1@ DB '0', 00H, '1', 00H, 00H, 00H ; `string'
CONST	ENDS
;	COMDAT ??_C@_05FBADLLFO@Ethan@
CONST	SEGMENT
??_C@_05FBADLLFO@Ethan@ DB 'Ethan', 00H			; `string'
CONST	ENDS
;	COMDAT ??_C@_02PLJDPFIO@00@
CONST	SEGMENT
??_C@_02PLJDPFIO@00@ DB '00', 00H			; `string'
CONST	ENDS
;	COMDAT ??_C@_0GI@OGMNKBMN@C?3?2Program?5Files?5?$CIx86?$CJ?2Microsof@
CONST	SEGMENT
??_C@_0GI@OGMNKBMN@C?3?2Program?5Files?5?$CIx86?$CJ?2Microsof@ DB 'C:\Pro'
	DB	'gram Files (x86)\Microsoft Visual Studio\2019\Community\VC\To'
	DB	'ols\MSVC\14.29.30133\include\xlocnum', 00H	; `string'
CONST	ENDS
;	COMDAT ?__LINE__Var@?0??_Maklocwcs@std@@YAPA_WPB_W@Z@4JA
_DATA	SEGMENT
?__LINE__Var@?0??_Maklocwcs@std@@YAPA_WPB_W@Z@4JA DD 055H ; `std::_Maklocwcs'::`1'::__LINE__Var
_DATA	ENDS
;	COMDAT ??_C@_01NBENCBCI@?$CK@
CONST	SEGMENT
??_C@_01NBENCBCI@?$CK@ DB '*', 00H			; `string'
CONST	ENDS
;	COMDAT ??_C@_0GI@GFIAKDGM@C?3?2Program?5Files?5?$CIx86?$CJ?2Microsof@
CONST	SEGMENT
??_C@_0GI@GFIAKDGM@C?3?2Program?5Files?5?$CIx86?$CJ?2Microsof@ DB 'C:\Pro'
	DB	'gram Files (x86)\Microsoft Visual Studio\2019\Community\VC\To'
	DB	'ols\MSVC\14.29.30133\include\xlocale', 00H	; `string'
CONST	ENDS
;	COMDAT ??_C@_0BA@ELKIONDK@bad?5locale?5name@
CONST	SEGMENT
??_C@_0BA@ELKIONDK@bad?5locale?5name@ DB 'bad locale name', 00H ; `string'
CONST	ENDS
;	COMDAT ??_C@_0BA@JFNIOLAK@string?5too?5long@
CONST	SEGMENT
??_C@_0BA@JFNIOLAK@string?5too?5long@ DB 'string too long', 00H ; `string'
CONST	ENDS
;	COMDAT ??_C@_1CG@JNLFBNGN@?$AA?$CC?$AAi?$AAn?$AAv?$AAa?$AAl?$AAi?$AAd?$AA?5?$AAa?$AAr?$AAg?$AAu?$AAm?$AAe@
CONST	SEGMENT
??_C@_1CG@JNLFBNGN@?$AA?$CC?$AAi?$AAn?$AAv?$AAa?$AAl?$AAi?$AAd?$AA?5?$AAa?$AAr?$AAg?$AAu?$AAm?$AAe@ DB '"'
	DB	00H, 'i', 00H, 'n', 00H, 'v', 00H, 'a', 00H, 'l', 00H, 'i', 00H
	DB	'd', 00H, ' ', 00H, 'a', 00H, 'r', 00H, 'g', 00H, 'u', 00H, 'm'
	DB	00H, 'e', 00H, 'n', 00H, 't', 00H, '"', 00H, 00H, 00H ; `string'
CONST	ENDS
;	COMDAT ??_C@_11LOCGONAA@@
CONST	SEGMENT
??_C@_11LOCGONAA@@ DB 00H, 00H				; `string'
CONST	ENDS
;	COMDAT ??_C@_1NA@MJBOBEJL@?$AAC?$AA?3?$AA?2?$AAP?$AAr?$AAo?$AAg?$AAr?$AAa?$AAm?$AA?5?$AAF?$AAi?$AAl?$AAe@
CONST	SEGMENT
??_C@_1NA@MJBOBEJL@?$AAC?$AA?3?$AA?2?$AAP?$AAr?$AAo?$AAg?$AAr?$AAa?$AAm?$AA?5?$AAF?$AAi?$AAl?$AAe@ DB 'C'
	DB	00H, ':', 00H, '\', 00H, 'P', 00H, 'r', 00H, 'o', 00H, 'g', 00H
	DB	'r', 00H, 'a', 00H, 'm', 00H, ' ', 00H, 'F', 00H, 'i', 00H, 'l'
	DB	00H, 'e', 00H, 's', 00H, ' ', 00H, '(', 00H, 'x', 00H, '8', 00H
	DB	'6', 00H, ')', 00H, '\', 00H, 'M', 00H, 'i', 00H, 'c', 00H, 'r'
	DB	00H, 'o', 00H, 's', 00H, 'o', 00H, 'f', 00H, 't', 00H, ' ', 00H
	DB	'V', 00H, 'i', 00H, 's', 00H, 'u', 00H, 'a', 00H, 'l', 00H, ' '
	DB	00H, 'S', 00H, 't', 00H, 'u', 00H, 'd', 00H, 'i', 00H, 'o', 00H
	DB	'\', 00H, '2', 00H, '0', 00H, '1', 00H, '9', 00H, '\', 00H, 'C'
	DB	00H, 'o', 00H, 'm', 00H, 'm', 00H, 'u', 00H, 'n', 00H, 'i', 00H
	DB	't', 00H, 'y', 00H, '\', 00H, 'V', 00H, 'C', 00H, '\', 00H, 'T'
	DB	00H, 'o', 00H, 'o', 00H, 'l', 00H, 's', 00H, '\', 00H, 'M', 00H
	DB	'S', 00H, 'V', 00H, 'C', 00H, '\', 00H, '1', 00H, '4', 00H, '.'
	DB	00H, '2', 00H, '9', 00H, '.', 00H, '3', 00H, '0', 00H, '1', 00H
	DB	'3', 00H, '3', 00H, '\', 00H, 'i', 00H, 'n', 00H, 'c', 00H, 'l'
	DB	00H, 'u', 00H, 'd', 00H, 'e', 00H, '\', 00H, 'x', 00H, 'm', 00H
	DB	'e', 00H, 'm', 00H, 'o', 00H, 'r', 00H, 'y', 00H, 00H, 00H ; `string'
CONST	ENDS
;	COMDAT ??_C@_0GI@MNEMJBML@C?3?2Program?5Files?5?$CIx86?$CJ?2Microsof@
CONST	SEGMENT
??_C@_0GI@MNEMJBML@C?3?2Program?5Files?5?$CIx86?$CJ?2Microsof@ DB 'C:\Pro'
	DB	'gram Files (x86)\Microsoft Visual Studio\2019\Community\VC\To'
	DB	'ols\MSVC\14.29.30133\include\xmemory', 00H	; `string'
CONST	ENDS
;	COMDAT ??_C@_02DKCKIIND@?$CFs@
CONST	SEGMENT
??_C@_02DKCKIIND@?$CFs@ DB '%s', 00H			; `string'
CONST	ENDS
;	COMDAT ??_C@_0BB@FCMFBGOM@invalid?5argument@
CONST	SEGMENT
??_C@_0BB@FCMFBGOM@invalid?5argument@ DB 'invalid argument', 00H ; `string'
CONST	ENDS
;	COMDAT ?__LINE__Var@?0??_Adjust_manually_vector_aligned@std@@YAXAAPAXAAI@Z@4JA
_DATA	SEGMENT
?__LINE__Var@?0??_Adjust_manually_vector_aligned@std@@YAXAAPAXAAI@Z@4JA DD 091H ; `std::_Adjust_manually_vector_aligned'::`1'::__LINE__Var
_DATA	ENDS
;	COMDAT __CT??_R0?AVexception@std@@@8??0exception@std@@QAE@ABV01@@Z12
xdata$x	SEGMENT
__CT??_R0?AVexception@std@@@8??0exception@std@@QAE@ABV01@@Z12 DD 00H
	DD	FLAT:??_R0?AVexception@std@@@8
	DD	00H
	DD	0ffffffffH
	ORG $+4
	DD	0cH
	DD	FLAT:??0exception@std@@QAE@ABV01@@Z
xdata$x	ENDS
;	COMDAT ??_R0?AVexception@std@@@8
data$r	SEGMENT
??_R0?AVexception@std@@@8 DD FLAT:??_7type_info@@6B@	; std::exception `RTTI Type Descriptor'
	DD	00H
	DB	'.?AVexception@std@@', 00H
data$r	ENDS
;	COMDAT __CT??_R0?AVbad_alloc@std@@@8??0bad_alloc@std@@QAE@ABV01@@Z12
xdata$x	SEGMENT
__CT??_R0?AVbad_alloc@std@@@8??0bad_alloc@std@@QAE@ABV01@@Z12 DD 010H
	DD	FLAT:??_R0?AVbad_alloc@std@@@8
	DD	00H
	DD	0ffffffffH
	ORG $+4
	DD	0cH
	DD	FLAT:??0bad_alloc@std@@QAE@ABV01@@Z
xdata$x	ENDS
;	COMDAT ??_R0?AVbad_alloc@std@@@8
data$r	SEGMENT
??_R0?AVbad_alloc@std@@@8 DD FLAT:??_7type_info@@6B@	; std::bad_alloc `RTTI Type Descriptor'
	DD	00H
	DB	'.?AVbad_alloc@std@@', 00H
data$r	ENDS
;	COMDAT __CT??_R0?AVbad_array_new_length@std@@@8??0bad_array_new_length@std@@QAE@ABV01@@Z12
xdata$x	SEGMENT
__CT??_R0?AVbad_array_new_length@std@@@8??0bad_array_new_length@std@@QAE@ABV01@@Z12 DD 00H
	DD	FLAT:??_R0?AVbad_array_new_length@std@@@8
	DD	00H
	DD	0ffffffffH
	ORG $+4
	DD	0cH
	DD	FLAT:??0bad_array_new_length@std@@QAE@ABV01@@Z
xdata$x	ENDS
;	COMDAT ??_R0?AVbad_array_new_length@std@@@8
data$r	SEGMENT
??_R0?AVbad_array_new_length@std@@@8 DD FLAT:??_7type_info@@6B@ ; std::bad_array_new_length `RTTI Type Descriptor'
	DD	00H
	DB	'.?AVbad_array_new_length@std@@', 00H
data$r	ENDS
;	COMDAT __CTA3?AVbad_array_new_length@std@@
xdata$x	SEGMENT
__CTA3?AVbad_array_new_length@std@@ DD 03H
	DD	FLAT:__CT??_R0?AVbad_array_new_length@std@@@8??0bad_array_new_length@std@@QAE@ABV01@@Z12
	DD	FLAT:__CT??_R0?AVbad_alloc@std@@@8??0bad_alloc@std@@QAE@ABV01@@Z12
	DD	FLAT:__CT??_R0?AVexception@std@@@8??0exception@std@@QAE@ABV01@@Z12
xdata$x	ENDS
;	COMDAT __TI3?AVbad_array_new_length@std@@
xdata$x	SEGMENT
__TI3?AVbad_array_new_length@std@@ DD 00H
	DD	FLAT:??1bad_array_new_length@std@@UAE@XZ
	DD	00H
	DD	FLAT:__CTA3?AVbad_array_new_length@std@@
xdata$x	ENDS
;	COMDAT ??_C@_0BF@KINCDENJ@bad?5array?5new?5length@
CONST	SEGMENT
??_C@_0BF@KINCDENJ@bad?5array?5new?5length@ DB 'bad array new length', 00H ; `string'
CONST	ENDS
;	COMDAT ??_7bad_array_new_length@std@@6B@
CONST	SEGMENT
??_7bad_array_new_length@std@@6B@ DD FLAT:??_R4bad_array_new_length@std@@6B@ ; std::bad_array_new_length::`vftable'
	DD	FLAT:??_Ebad_array_new_length@std@@UAEPAXI@Z
	DD	FLAT:?what@exception@std@@UBEPBDXZ
CONST	ENDS
;	COMDAT ??_7bad_alloc@std@@6B@
CONST	SEGMENT
??_7bad_alloc@std@@6B@ DD FLAT:??_R4bad_alloc@std@@6B@	; std::bad_alloc::`vftable'
	DD	FLAT:??_Ebad_alloc@std@@UAEPAXI@Z
	DD	FLAT:?what@exception@std@@UBEPBDXZ
CONST	ENDS
;	COMDAT ??_C@_0BC@EOODALEL@Unknown?5exception@
CONST	SEGMENT
??_C@_0BC@EOODALEL@Unknown?5exception@ DB 'Unknown exception', 00H ; `string'
CONST	ENDS
;	COMDAT ??_7exception@std@@6B@
CONST	SEGMENT
??_7exception@std@@6B@ DD FLAT:??_R4exception@std@@6B@	; std::exception::`vftable'
	DD	FLAT:??_Eexception@std@@UAEPAXI@Z
	DD	FLAT:?what@exception@std@@UBEPBDXZ
CONST	ENDS
;	COMDAT voltbl
voltbl	SEGMENT
_volmd	DW	024H
	DW	0163H
voltbl	ENDS
;	COMDAT voltbl
voltbl	SEGMENT
_volmd	DW	024H
	DW	0163H
voltbl	ENDS
;	COMDAT voltbl
voltbl	SEGMENT
_volmd	DB	09H
voltbl	ENDS
;	COMDAT xdata$x
xdata$x	SEGMENT
__ehfuncinfo$??1sentry@?$basic_ostream@_WU?$char_traits@_W@std@@@std@@QAE@XZ DD 019930522H
	DD	00H
	DD	00H
	DD	2 DUP(00H)
	DD	2 DUP(00H)
	DD	00H
	DD	05H
xdata$x	ENDS
;	COMDAT voltbl
voltbl	SEGMENT
_volmd	DB	016H
voltbl	ENDS
;	COMDAT xdata$x
xdata$x	SEGMENT
__unwindtable$??0sentry@?$basic_ostream@_WU?$char_traits@_W@std@@@std@@QAE@AAV12@@Z DD 0ffffffffH
	DD	FLAT:__unwindfunclet$??0sentry@?$basic_ostream@_WU?$char_traits@_W@std@@@std@@QAE@AAV12@@Z$0
__ehfuncinfo$??0sentry@?$basic_ostream@_WU?$char_traits@_W@std@@@std@@QAE@AAV12@@Z DD 019930522H
	DD	01H
	DD	FLAT:__unwindtable$??0sentry@?$basic_ostream@_WU?$char_traits@_W@std@@@std@@QAE@AAV12@@Z
	DD	2 DUP(00H)
	DD	2 DUP(00H)
	DD	00H
	DD	01H
xdata$x	ENDS
;	COMDAT voltbl
voltbl	SEGMENT
_volmd	DB	09H
voltbl	ENDS
;	COMDAT xdata$x
xdata$x	SEGMENT
__ehfuncinfo$??1_Sentry_base@?$basic_ostream@_WU?$char_traits@_W@std@@@std@@QAE@XZ DD 019930522H
	DD	00H
	DD	00H
	DD	2 DUP(00H)
	DD	2 DUP(00H)
	DD	00H
	DD	05H
xdata$x	ENDS
;	COMDAT voltbl
voltbl	SEGMENT
_volmd	DB	09H
voltbl	ENDS
;	COMDAT xdata$x
xdata$x	SEGMENT
__ehfuncinfo$??$_Deallocate_plain@V?$allocator@U_Container_proxy@std@@@std@@@std@@YAXAAV?$allocator@U_Container_proxy@std@@@0@QAU_Container_proxy@0@@Z DD 019930522H
	DD	00H
	DD	00H
	DD	2 DUP(00H)
	DD	2 DUP(00H)
	DD	00H
	DD	05H
xdata$x	ENDS
;	COMDAT voltbl
voltbl	SEGMENT
_volmd	DB	016H
	DB	023H
voltbl	ENDS
;	COMDAT voltbl
voltbl	SEGMENT
_volmd	DW	034H
	DW	0419H
voltbl	ENDS
;	COMDAT xdata$x
xdata$x	SEGMENT
__catchsym$??$_Insert_string@_WU?$char_traits@_W@std@@I@std@@YAAAV?$basic_ostream@_WU?$char_traits@_W@std@@@0@AAV10@QB_WI@Z$3 DD 040H
	DD	00H
	DD	00H
	DD	FLAT:__catch$??$_Insert_string@_WU?$char_traits@_W@std@@I@std@@YAAAV?$basic_ostream@_WU?$char_traits@_W@std@@@0@AAV10@QB_WI@Z$0
__tryblocktable$??$_Insert_string@_WU?$char_traits@_W@std@@I@std@@YAAAV?$basic_ostream@_WU?$char_traits@_W@std@@@0@AAV10@QB_WI@Z DD 01H
	DD	01H
	DD	02H
	DD	01H
	DD	FLAT:__catchsym$??$_Insert_string@_WU?$char_traits@_W@std@@I@std@@YAAAV?$basic_ostream@_WU?$char_traits@_W@std@@@0@AAV10@QB_WI@Z$3
__unwindtable$??$_Insert_string@_WU?$char_traits@_W@std@@I@std@@YAAAV?$basic_ostream@_WU?$char_traits@_W@std@@@0@AAV10@QB_WI@Z DD 0ffffffffH
	DD	FLAT:__unwindfunclet$??$_Insert_string@_WU?$char_traits@_W@std@@I@std@@YAAAV?$basic_ostream@_WU?$char_traits@_W@std@@@0@AAV10@QB_WI@Z$2
	DD	00H
	DD	00H
	DD	00H
	DD	00H
__ehfuncinfo$??$_Insert_string@_WU?$char_traits@_W@std@@I@std@@YAAAV?$basic_ostream@_WU?$char_traits@_W@std@@@0@AAV10@QB_WI@Z DD 019930522H
	DD	03H
	DD	FLAT:__unwindtable$??$_Insert_string@_WU?$char_traits@_W@std@@I@std@@YAAAV?$basic_ostream@_WU?$char_traits@_W@std@@@0@AAV10@QB_WI@Z
	DD	01H
	DD	FLAT:__tryblocktable$??$_Insert_string@_WU?$char_traits@_W@std@@I@std@@YAAAV?$basic_ostream@_WU?$char_traits@_W@std@@@0@AAV10@QB_WI@Z
	DD	2 DUP(00H)
	DD	00H
	DD	01H
xdata$x	ENDS
;	COMDAT voltbl
voltbl	SEGMENT
_volmd	DB	016H
	DB	023H
voltbl	ENDS
;	COMDAT voltbl
voltbl	SEGMENT
_volmd	DW	034H
	DW	040fH
voltbl	ENDS
;	COMDAT xdata$x
xdata$x	SEGMENT
__catchsym$??$_Insert_string@DU?$char_traits@D@std@@I@std@@YAAAV?$basic_ostream@DU?$char_traits@D@std@@@0@AAV10@QBDI@Z$3 DD 040H
	DD	00H
	DD	00H
	DD	FLAT:__catch$??$_Insert_string@DU?$char_traits@D@std@@I@std@@YAAAV?$basic_ostream@DU?$char_traits@D@std@@@0@AAV10@QBDI@Z$0
__tryblocktable$??$_Insert_string@DU?$char_traits@D@std@@I@std@@YAAAV?$basic_ostream@DU?$char_traits@D@std@@@0@AAV10@QBDI@Z DD 01H
	DD	01H
	DD	02H
	DD	01H
	DD	FLAT:__catchsym$??$_Insert_string@DU?$char_traits@D@std@@I@std@@YAAAV?$basic_ostream@DU?$char_traits@D@std@@@0@AAV10@QBDI@Z$3
__unwindtable$??$_Insert_string@DU?$char_traits@D@std@@I@std@@YAAAV?$basic_ostream@DU?$char_traits@D@std@@@0@AAV10@QBDI@Z DD 0ffffffffH
	DD	FLAT:__unwindfunclet$??$_Insert_string@DU?$char_traits@D@std@@I@std@@YAAAV?$basic_ostream@DU?$char_traits@D@std@@@0@AAV10@QBDI@Z$2
	DD	00H
	DD	00H
	DD	00H
	DD	00H
__ehfuncinfo$??$_Insert_string@DU?$char_traits@D@std@@I@std@@YAAAV?$basic_ostream@DU?$char_traits@D@std@@@0@AAV10@QBDI@Z DD 019930522H
	DD	03H
	DD	FLAT:__unwindtable$??$_Insert_string@DU?$char_traits@D@std@@I@std@@YAAAV?$basic_ostream@DU?$char_traits@D@std@@@0@AAV10@QBDI@Z
	DD	01H
	DD	FLAT:__tryblocktable$??$_Insert_string@DU?$char_traits@D@std@@I@std@@YAAAV?$basic_ostream@DU?$char_traits@D@std@@@0@AAV10@QBDI@Z
	DD	2 DUP(00H)
	DD	00H
	DD	01H
xdata$x	ENDS
;	COMDAT voltbl
voltbl	SEGMENT
_volmd	DW	024H
	DW	0163H
voltbl	ENDS
;	COMDAT voltbl
voltbl	SEGMENT
_volmd	DB	09H
voltbl	ENDS
;	COMDAT xdata$x
xdata$x	SEGMENT
__ehfuncinfo$??1sentry@?$basic_ostream@DU?$char_traits@D@std@@@std@@QAE@XZ DD 019930522H
	DD	00H
	DD	00H
	DD	2 DUP(00H)
	DD	2 DUP(00H)
	DD	00H
	DD	05H
xdata$x	ENDS
;	COMDAT voltbl
voltbl	SEGMENT
_volmd	DB	016H
voltbl	ENDS
;	COMDAT xdata$x
xdata$x	SEGMENT
__unwindtable$??0sentry@?$basic_ostream@DU?$char_traits@D@std@@@std@@QAE@AAV12@@Z DD 0ffffffffH
	DD	FLAT:__unwindfunclet$??0sentry@?$basic_ostream@DU?$char_traits@D@std@@@std@@QAE@AAV12@@Z$0
__ehfuncinfo$??0sentry@?$basic_ostream@DU?$char_traits@D@std@@@std@@QAE@AAV12@@Z DD 019930522H
	DD	01H
	DD	FLAT:__unwindtable$??0sentry@?$basic_ostream@DU?$char_traits@D@std@@@std@@QAE@AAV12@@Z
	DD	2 DUP(00H)
	DD	2 DUP(00H)
	DD	00H
	DD	01H
xdata$x	ENDS
;	COMDAT voltbl
voltbl	SEGMENT
_volmd	DB	09H
voltbl	ENDS
;	COMDAT xdata$x
xdata$x	SEGMENT
__ehfuncinfo$??1_Sentry_base@?$basic_ostream@DU?$char_traits@D@std@@@std@@QAE@XZ DD 019930522H
	DD	00H
	DD	00H
	DD	2 DUP(00H)
	DD	2 DUP(00H)
	DD	00H
	DD	05H
xdata$x	ENDS
;	COMDAT voltbl
voltbl	SEGMENT
_volmd	DB	09H
voltbl	ENDS
;	COMDAT xdata$x
xdata$x	SEGMENT
__ehfuncinfo$??$_Deallocate@$07$0A@@std@@YAXPAXI@Z DD 019930522H
	DD	00H
	DD	00H
	DD	2 DUP(00H)
	DD	2 DUP(00H)
	DD	00H
	DD	05H
xdata$x	ENDS
;	COMDAT voltbl
voltbl	SEGMENT
_volmd	DW	024H
	DW	0163H
voltbl	ENDS
;	COMDAT voltbl
voltbl	SEGMENT
_volmd	DW	024H
	DW	010cH
voltbl	ENDS
;	COMDAT voltbl
voltbl	SEGMENT
_volmd	DW	024H
	DW	010cH
voltbl	ENDS
;	COMDAT voltbl
voltbl	SEGMENT
_volmd	DW	024H
	DW	0103H
voltbl	ENDS
;	COMDAT voltbl
voltbl	SEGMENT
_volmd	DW	024H
	DW	0103H
voltbl	ENDS
;	COMDAT voltbl
voltbl	SEGMENT
_volmd	DB	016H
	DB	023H
voltbl	ENDS
;	COMDAT voltbl
voltbl	SEGMENT
_volmd	DW	034H
	DW	0477H
voltbl	ENDS
;	COMDAT xdata$x
xdata$x	SEGMENT
__catchsym$??$?6U?$char_traits@D@std@@@std@@YAAAV?$basic_ostream@DU?$char_traits@D@std@@@0@AAV10@PBD@Z$3 DD 040H
	DD	00H
	DD	00H
	DD	FLAT:__catch$??$?6U?$char_traits@D@std@@@std@@YAAAV?$basic_ostream@DU?$char_traits@D@std@@@0@AAV10@PBD@Z$0
__tryblocktable$??$?6U?$char_traits@D@std@@@std@@YAAAV?$basic_ostream@DU?$char_traits@D@std@@@0@AAV10@PBD@Z DD 01H
	DD	01H
	DD	02H
	DD	01H
	DD	FLAT:__catchsym$??$?6U?$char_traits@D@std@@@std@@YAAAV?$basic_ostream@DU?$char_traits@D@std@@@0@AAV10@PBD@Z$3
__unwindtable$??$?6U?$char_traits@D@std@@@std@@YAAAV?$basic_ostream@DU?$char_traits@D@std@@@0@AAV10@PBD@Z DD 0ffffffffH
	DD	FLAT:__unwindfunclet$??$?6U?$char_traits@D@std@@@std@@YAAAV?$basic_ostream@DU?$char_traits@D@std@@@0@AAV10@PBD@Z$2
	DD	00H
	DD	00H
	DD	00H
	DD	00H
__ehfuncinfo$??$?6U?$char_traits@D@std@@@std@@YAAAV?$basic_ostream@DU?$char_traits@D@std@@@0@AAV10@PBD@Z DD 019930522H
	DD	03H
	DD	FLAT:__unwindtable$??$?6U?$char_traits@D@std@@@std@@YAAAV?$basic_ostream@DU?$char_traits@D@std@@@0@AAV10@PBD@Z
	DD	01H
	DD	FLAT:__tryblocktable$??$?6U?$char_traits@D@std@@@std@@YAAAV?$basic_ostream@DU?$char_traits@D@std@@@0@AAV10@PBD@Z
	DD	2 DUP(00H)
	DD	00H
	DD	01H
xdata$x	ENDS
;	COMDAT voltbl
voltbl	SEGMENT
_volmd	DB	016H
	DB	023H
voltbl	ENDS
;	COMDAT voltbl
voltbl	SEGMENT
_volmd	DW	034H
	DW	0432H
voltbl	ENDS
;	COMDAT xdata$x
xdata$x	SEGMENT
__catchsym$??$?6U?$char_traits@D@std@@@std@@YAAAV?$basic_ostream@DU?$char_traits@D@std@@@0@AAV10@D@Z$3 DD 040H
	DD	00H
	DD	00H
	DD	FLAT:__catch$??$?6U?$char_traits@D@std@@@std@@YAAAV?$basic_ostream@DU?$char_traits@D@std@@@0@AAV10@D@Z$0
__tryblocktable$??$?6U?$char_traits@D@std@@@std@@YAAAV?$basic_ostream@DU?$char_traits@D@std@@@0@AAV10@D@Z DD 01H
	DD	01H
	DD	02H
	DD	01H
	DD	FLAT:__catchsym$??$?6U?$char_traits@D@std@@@std@@YAAAV?$basic_ostream@DU?$char_traits@D@std@@@0@AAV10@D@Z$3
__unwindtable$??$?6U?$char_traits@D@std@@@std@@YAAAV?$basic_ostream@DU?$char_traits@D@std@@@0@AAV10@D@Z DD 0ffffffffH
	DD	FLAT:__unwindfunclet$??$?6U?$char_traits@D@std@@@std@@YAAAV?$basic_ostream@DU?$char_traits@D@std@@@0@AAV10@D@Z$2
	DD	00H
	DD	00H
	DD	00H
	DD	00H
__ehfuncinfo$??$?6U?$char_traits@D@std@@@std@@YAAAV?$basic_ostream@DU?$char_traits@D@std@@@0@AAV10@D@Z DD 019930522H
	DD	03H
	DD	FLAT:__unwindtable$??$?6U?$char_traits@D@std@@@std@@YAAAV?$basic_ostream@DU?$char_traits@D@std@@@0@AAV10@D@Z
	DD	01H
	DD	FLAT:__tryblocktable$??$?6U?$char_traits@D@std@@@std@@YAAAV?$basic_ostream@DU?$char_traits@D@std@@@0@AAV10@D@Z
	DD	2 DUP(00H)
	DD	00H
	DD	01H
xdata$x	ENDS
;	COMDAT voltbl
voltbl	SEGMENT
_volmd	DB	068H
	DB	075H
voltbl	ENDS
;	COMDAT voltbl
voltbl	SEGMENT
_volmd	DW	033H
	DW	04ebH
voltbl	ENDS
;	COMDAT xdata$x
xdata$x	SEGMENT
__ehfuncinfo$_main DD 019930522H
	DD	0dH
	DD	FLAT:__unwindtable$_main
	DD	2 DUP(00H)
	DD	2 DUP(00H)
	DD	00H
	DD	01H
__unwindtable$_main DD 0ffffffffH
	DD	FLAT:__unwindfunclet$_main$0
	DD	00H
	DD	FLAT:__unwindfunclet$_main$1
	DD	0ffffffffH
	DD	FLAT:__unwindfunclet$_main$1
	DD	02H
	DD	FLAT:__unwindfunclet$_main$2
	DD	03H
	DD	FLAT:__unwindfunclet$_main$3
	DD	02H
	DD	FLAT:__unwindfunclet$_main$3
	DD	05H
	DD	FLAT:__unwindfunclet$_main$4
	DD	06H
	DD	FLAT:__unwindfunclet$_main$5
	DD	05H
	DD	FLAT:__unwindfunclet$_main$5
	DD	08H
	DD	FLAT:__unwindfunclet$_main$6
	DD	09H
	DD	FLAT:__unwindfunclet$_main$7
	DD	08H
	DD	FLAT:__unwindfunclet$_main$7
	DD	0bH
	DD	FLAT:__unwindfunclet$_main$8
xdata$x	ENDS
;	COMDAT voltbl
voltbl	SEGMENT
_volmd	DW	025H
	DW	0168H
voltbl	ENDS
;	COMDAT voltbl
voltbl	SEGMENT
_volmd	DB	019H
voltbl	ENDS
;	COMDAT xdata$x
xdata$x	SEGMENT
__unwindtable$??0locale@std@@QAE@PBDH@Z DD 0ffffffffH
	DD	FLAT:__unwindfunclet$??0locale@std@@QAE@PBDH@Z$0
__ehfuncinfo$??0locale@std@@QAE@PBDH@Z DD 019930522H
	DD	01H
	DD	FLAT:__unwindtable$??0locale@std@@QAE@PBDH@Z
	DD	2 DUP(00H)
	DD	2 DUP(00H)
	DD	00H
	DD	01H
xdata$x	ENDS
;	COMDAT voltbl
voltbl	SEGMENT
_volmd	DB	028H
	DB	035H
voltbl	ENDS
;	COMDAT voltbl
voltbl	SEGMENT
_volmd	DW	032H
	DW	01b7H
voltbl	ENDS
;	COMDAT xdata$x
xdata$x	SEGMENT
__unwindtable$?_Construct@locale@std@@AAEXABV?$basic_string@DU?$char_traits@D@std@@V?$allocator@D@2@@2@H@Z DD 0ffffffffH
	DD	FLAT:__unwindfunclet$?_Construct@locale@std@@AAEXABV?$basic_string@DU?$char_traits@D@std@@V?$allocator@D@2@@2@H@Z$0
	DD	00H
	DD	FLAT:__unwindfunclet$?_Construct@locale@std@@AAEXABV?$basic_string@DU?$char_traits@D@std@@V?$allocator@D@2@@2@H@Z$1
__ehfuncinfo$?_Construct@locale@std@@AAEXABV?$basic_string@DU?$char_traits@D@std@@V?$allocator@D@2@@2@H@Z DD 019930522H
	DD	02H
	DD	FLAT:__unwindtable$?_Construct@locale@std@@AAEXABV?$basic_string@DU?$char_traits@D@std@@V?$allocator@D@2@@2@H@Z
	DD	2 DUP(00H)
	DD	2 DUP(00H)
	DD	00H
	DD	01H
xdata$x	ENDS
;	COMDAT voltbl
voltbl	SEGMENT
_volmd	DB	09H
voltbl	ENDS
;	COMDAT xdata$x
xdata$x	SEGMENT
__ehfuncinfo$?_Tidy_deallocate@?$basic_string@_UU?$char_traits@_U@std@@V?$allocator@_U@2@@std@@AAEXXZ DD 019930522H
	DD	00H
	DD	00H
	DD	2 DUP(00H)
	DD	2 DUP(00H)
	DD	00H
	DD	05H
xdata$x	ENDS
;	COMDAT voltbl
voltbl	SEGMENT
_volmd	DB	022H
	DB	090H
voltbl	ENDS
;	COMDAT voltbl
voltbl	SEGMENT
_volmd	DB	024H
	DB	0adH
voltbl	ENDS
;	COMDAT voltbl
voltbl	SEGMENT
_volmd	DB	024H
	DB	090H
voltbl	ENDS
;	COMDAT voltbl
voltbl	SEGMENT
_volmd	DB	09H
voltbl	ENDS
;	COMDAT xdata$x
xdata$x	SEGMENT
__ehfuncinfo$?_Take_contents@?$basic_string@_UU?$char_traits@_U@std@@V?$allocator@_U@2@@std@@AAEXAAV12@@Z DD 019930522H
	DD	00H
	DD	00H
	DD	2 DUP(00H)
	DD	2 DUP(00H)
	DD	00H
	DD	05H
xdata$x	ENDS
;	COMDAT voltbl
voltbl	SEGMENT
_volmd	DB	09H
voltbl	ENDS
;	COMDAT xdata$x
xdata$x	SEGMENT
__ehfuncinfo$??0?$basic_string@_UU?$char_traits@_U@std@@V?$allocator@_U@2@@std@@QAE@$$QAV01@@Z DD 019930522H
	DD	00H
	DD	00H
	DD	2 DUP(00H)
	DD	2 DUP(00H)
	DD	00H
	DD	05H
xdata$x	ENDS
;	COMDAT voltbl
voltbl	SEGMENT
_volmd	DB	01eH
	DB	02bH
voltbl	ENDS
;	COMDAT voltbl
voltbl	SEGMENT
_volmd	DB	032H
	DB	0e3H
voltbl	ENDS
;	COMDAT xdata$x
xdata$x	SEGMENT
__unwindtable$??0?$basic_string@_UU?$char_traits@_U@std@@V?$allocator@_U@2@@std@@QAE@QB_UI@Z DD 0ffffffffH
	DD	FLAT:__unwindfunclet$??0?$basic_string@_UU?$char_traits@_U@std@@V?$allocator@_U@2@@std@@QAE@QB_UI@Z$0
	DD	00H
	DD	FLAT:__unwindfunclet$??0?$basic_string@_UU?$char_traits@_U@std@@V?$allocator@_U@2@@std@@QAE@QB_UI@Z$1
__ehfuncinfo$??0?$basic_string@_UU?$char_traits@_U@std@@V?$allocator@_U@2@@std@@QAE@QB_UI@Z DD 019930522H
	DD	02H
	DD	FLAT:__unwindtable$??0?$basic_string@_UU?$char_traits@_U@std@@V?$allocator@_U@2@@std@@QAE@QB_UI@Z
	DD	2 DUP(00H)
	DD	2 DUP(00H)
	DD	00H
	DD	01H
xdata$x	ENDS
;	COMDAT voltbl
voltbl	SEGMENT
_volmd	DB	09H
voltbl	ENDS
;	COMDAT xdata$x
xdata$x	SEGMENT
__ehfuncinfo$?_Tidy_deallocate@?$basic_string@_SU?$char_traits@_S@std@@V?$allocator@_S@2@@std@@AAEXXZ DD 019930522H
	DD	00H
	DD	00H
	DD	2 DUP(00H)
	DD	2 DUP(00H)
	DD	00H
	DD	05H
xdata$x	ENDS
;	COMDAT voltbl
voltbl	SEGMENT
_volmd	DB	022H
	DB	090H
voltbl	ENDS
;	COMDAT voltbl
voltbl	SEGMENT
_volmd	DB	024H
	DB	0adH
voltbl	ENDS
;	COMDAT voltbl
voltbl	SEGMENT
_volmd	DB	024H
	DB	090H
voltbl	ENDS
;	COMDAT voltbl
voltbl	SEGMENT
_volmd	DB	09H
voltbl	ENDS
;	COMDAT xdata$x
xdata$x	SEGMENT
__ehfuncinfo$?_Take_contents@?$basic_string@_SU?$char_traits@_S@std@@V?$allocator@_S@2@@std@@AAEXAAV12@@Z DD 019930522H
	DD	00H
	DD	00H
	DD	2 DUP(00H)
	DD	2 DUP(00H)
	DD	00H
	DD	05H
xdata$x	ENDS
;	COMDAT voltbl
voltbl	SEGMENT
_volmd	DB	09H
voltbl	ENDS
;	COMDAT xdata$x
xdata$x	SEGMENT
__ehfuncinfo$??0?$basic_string@_SU?$char_traits@_S@std@@V?$allocator@_S@2@@std@@QAE@$$QAV01@@Z DD 019930522H
	DD	00H
	DD	00H
	DD	2 DUP(00H)
	DD	2 DUP(00H)
	DD	00H
	DD	05H
xdata$x	ENDS
;	COMDAT voltbl
voltbl	SEGMENT
_volmd	DB	01eH
	DB	02bH
voltbl	ENDS
;	COMDAT voltbl
voltbl	SEGMENT
_volmd	DB	032H
	DB	0e3H
voltbl	ENDS
;	COMDAT xdata$x
xdata$x	SEGMENT
__unwindtable$??0?$basic_string@_SU?$char_traits@_S@std@@V?$allocator@_S@2@@std@@QAE@QB_SI@Z DD 0ffffffffH
	DD	FLAT:__unwindfunclet$??0?$basic_string@_SU?$char_traits@_S@std@@V?$allocator@_S@2@@std@@QAE@QB_SI@Z$0
	DD	00H
	DD	FLAT:__unwindfunclet$??0?$basic_string@_SU?$char_traits@_S@std@@V?$allocator@_S@2@@std@@QAE@QB_SI@Z$1
__ehfuncinfo$??0?$basic_string@_SU?$char_traits@_S@std@@V?$allocator@_S@2@@std@@QAE@QB_SI@Z DD 019930522H
	DD	02H
	DD	FLAT:__unwindtable$??0?$basic_string@_SU?$char_traits@_S@std@@V?$allocator@_S@2@@std@@QAE@QB_SI@Z
	DD	2 DUP(00H)
	DD	2 DUP(00H)
	DD	00H
	DD	01H
xdata$x	ENDS
;	COMDAT voltbl
voltbl	SEGMENT
_volmd	DB	09H
voltbl	ENDS
;	COMDAT xdata$x
xdata$x	SEGMENT
__ehfuncinfo$?_Tidy_deallocate@?$basic_string@_WU?$char_traits@_W@std@@V?$allocator@_W@2@@std@@AAEXXZ DD 019930522H
	DD	00H
	DD	00H
	DD	2 DUP(00H)
	DD	2 DUP(00H)
	DD	00H
	DD	05H
xdata$x	ENDS
;	COMDAT voltbl
voltbl	SEGMENT
_volmd	DB	022H
	DB	090H
voltbl	ENDS
;	COMDAT voltbl
voltbl	SEGMENT
_volmd	DB	024H
	DB	0adH
voltbl	ENDS
;	COMDAT voltbl
voltbl	SEGMENT
_volmd	DB	024H
	DB	090H
voltbl	ENDS
;	COMDAT voltbl
voltbl	SEGMENT
_volmd	DB	09H
voltbl	ENDS
;	COMDAT xdata$x
xdata$x	SEGMENT
__ehfuncinfo$?_Take_contents@?$basic_string@_WU?$char_traits@_W@std@@V?$allocator@_W@2@@std@@AAEXAAV12@@Z DD 019930522H
	DD	00H
	DD	00H
	DD	2 DUP(00H)
	DD	2 DUP(00H)
	DD	00H
	DD	05H
xdata$x	ENDS
;	COMDAT voltbl
voltbl	SEGMENT
_volmd	DB	09H
voltbl	ENDS
;	COMDAT xdata$x
xdata$x	SEGMENT
__ehfuncinfo$??0?$basic_string@_WU?$char_traits@_W@std@@V?$allocator@_W@2@@std@@QAE@$$QAV01@@Z DD 019930522H
	DD	00H
	DD	00H
	DD	2 DUP(00H)
	DD	2 DUP(00H)
	DD	00H
	DD	05H
xdata$x	ENDS
;	COMDAT voltbl
voltbl	SEGMENT
_volmd	DB	01eH
	DB	02bH
voltbl	ENDS
;	COMDAT voltbl
voltbl	SEGMENT
_volmd	DB	032H
	DB	0e3H
voltbl	ENDS
;	COMDAT xdata$x
xdata$x	SEGMENT
__unwindtable$??0?$basic_string@_WU?$char_traits@_W@std@@V?$allocator@_W@2@@std@@QAE@QB_WI@Z DD 0ffffffffH
	DD	FLAT:__unwindfunclet$??0?$basic_string@_WU?$char_traits@_W@std@@V?$allocator@_W@2@@std@@QAE@QB_WI@Z$0
	DD	00H
	DD	FLAT:__unwindfunclet$??0?$basic_string@_WU?$char_traits@_W@std@@V?$allocator@_W@2@@std@@QAE@QB_WI@Z$1
__ehfuncinfo$??0?$basic_string@_WU?$char_traits@_W@std@@V?$allocator@_W@2@@std@@QAE@QB_WI@Z DD 019930522H
	DD	02H
	DD	FLAT:__unwindtable$??0?$basic_string@_WU?$char_traits@_W@std@@V?$allocator@_W@2@@std@@QAE@QB_WI@Z
	DD	2 DUP(00H)
	DD	2 DUP(00H)
	DD	00H
	DD	01H
xdata$x	ENDS
;	COMDAT voltbl
voltbl	SEGMENT
_volmd	DB	09H
voltbl	ENDS
;	COMDAT xdata$x
xdata$x	SEGMENT
__ehfuncinfo$?_Tidy_deallocate@?$basic_string@DU?$char_traits@D@std@@V?$allocator@D@2@@std@@AAEXXZ DD 019930522H
	DD	00H
	DD	00H
	DD	2 DUP(00H)
	DD	2 DUP(00H)
	DD	00H
	DD	05H
xdata$x	ENDS
;	COMDAT voltbl
voltbl	SEGMENT
_volmd	DB	022H
	DB	090H
voltbl	ENDS
;	COMDAT voltbl
voltbl	SEGMENT
_volmd	DB	024H
	DB	0adH
voltbl	ENDS
;	COMDAT voltbl
voltbl	SEGMENT
_volmd	DB	024H
	DB	090H
voltbl	ENDS
;	COMDAT voltbl
voltbl	SEGMENT
_volmd	DB	09H
voltbl	ENDS
;	COMDAT xdata$x
xdata$x	SEGMENT
__ehfuncinfo$?_Take_contents@?$basic_string@DU?$char_traits@D@std@@V?$allocator@D@2@@std@@AAEXAAV12@@Z DD 019930522H
	DD	00H
	DD	00H
	DD	2 DUP(00H)
	DD	2 DUP(00H)
	DD	00H
	DD	05H
xdata$x	ENDS
;	COMDAT voltbl
voltbl	SEGMENT
_volmd	DB	09H
voltbl	ENDS
;	COMDAT xdata$x
xdata$x	SEGMENT
__ehfuncinfo$??0?$basic_string@DU?$char_traits@D@std@@V?$allocator@D@2@@std@@QAE@$$QAV01@@Z DD 019930522H
	DD	00H
	DD	00H
	DD	2 DUP(00H)
	DD	2 DUP(00H)
	DD	00H
	DD	05H
xdata$x	ENDS
;	COMDAT voltbl
voltbl	SEGMENT
_volmd	DB	01eH
	DB	02bH
voltbl	ENDS
;	COMDAT voltbl
voltbl	SEGMENT
_volmd	DB	032H
	DB	0dfH
voltbl	ENDS
;	COMDAT xdata$x
xdata$x	SEGMENT
__unwindtable$??0?$basic_string@DU?$char_traits@D@std@@V?$allocator@D@2@@std@@QAE@QBD@Z DD 0ffffffffH
	DD	FLAT:__unwindfunclet$??0?$basic_string@DU?$char_traits@D@std@@V?$allocator@D@2@@std@@QAE@QBD@Z$0
	DD	00H
	DD	FLAT:__unwindfunclet$??0?$basic_string@DU?$char_traits@D@std@@V?$allocator@D@2@@std@@QAE@QBD@Z$1
__ehfuncinfo$??0?$basic_string@DU?$char_traits@D@std@@V?$allocator@D@2@@std@@QAE@QBD@Z DD 019930522H
	DD	02H
	DD	FLAT:__unwindtable$??0?$basic_string@DU?$char_traits@D@std@@V?$allocator@D@2@@std@@QAE@QBD@Z
	DD	2 DUP(00H)
	DD	2 DUP(00H)
	DD	00H
	DD	01H
xdata$x	ENDS
;	COMDAT voltbl
voltbl	SEGMENT
_volmd	DB	01eH
	DB	02bH
voltbl	ENDS
;	COMDAT voltbl
voltbl	SEGMENT
_volmd	DB	032H
	DB	0e3H
voltbl	ENDS
;	COMDAT xdata$x
xdata$x	SEGMENT
__unwindtable$??0?$basic_string@DU?$char_traits@D@std@@V?$allocator@D@2@@std@@QAE@QBDI@Z DD 0ffffffffH
	DD	FLAT:__unwindfunclet$??0?$basic_string@DU?$char_traits@D@std@@V?$allocator@D@2@@std@@QAE@QBDI@Z$0
	DD	00H
	DD	FLAT:__unwindfunclet$??0?$basic_string@DU?$char_traits@D@std@@V?$allocator@D@2@@std@@QAE@QBDI@Z$1
__ehfuncinfo$??0?$basic_string@DU?$char_traits@D@std@@V?$allocator@D@2@@std@@QAE@QBDI@Z DD 019930522H
	DD	02H
	DD	FLAT:__unwindtable$??0?$basic_string@DU?$char_traits@D@std@@V?$allocator@D@2@@std@@QAE@QBDI@Z
	DD	2 DUP(00H)
	DD	2 DUP(00H)
	DD	00H
	DD	01H
xdata$x	ENDS
;	COMDAT voltbl
voltbl	SEGMENT
_volmd	DB	024H
	DB	07aH
voltbl	ENDS
;	COMDAT voltbl
voltbl	SEGMENT
_volmd	DB	024H
	DB	076H
voltbl	ENDS
; Function compile flags: /Odt
;	COMDAT __JustMyCode_Default
_TEXT	SEGMENT
__JustMyCode_Default PROC				; COMDAT
	push	ebp
	mov	ebp, esp
	pop	ebp
	ret	0
__JustMyCode_Default ENDP
_TEXT	ENDS
; Function compile flags: /Odtp /RTCsu /ZI
; File C:\Program Files (x86)\Microsoft Visual Studio\2019\Community\VC\Tools\MSVC\14.29.30133\include\type_traits
;	COMDAT ??$forward@AAPA_S@std@@YAAAPA_SAAPA_S@Z
_TEXT	SEGMENT
__Arg$ = 8						; size = 4
??$forward@AAPA_S@std@@YAAAPA_SAAPA_S@Z PROC		; std::forward<char16_t * &>, COMDAT

; 1385 :     remove_reference_t<_Ty>& _Arg) noexcept { // forward an lvalue as either an lvalue or an rvalue

	push	ebp
	mov	ebp, esp
	sub	esp, 192				; 000000c0H
	push	ebx
	push	esi
	push	edi
	mov	edi, ebp
	xor	ecx, ecx
	mov	eax, -858993460				; ccccccccH
	rep stosd
	mov	ecx, OFFSET __589FA321_type_traits
	call	@__CheckForDebuggerJustMyCode@4

; 1386 :     return static_cast<_Ty&&>(_Arg);

	mov	eax, DWORD PTR __Arg$[ebp]

; 1387 : }

	pop	edi
	pop	esi
	pop	ebx
	add	esp, 192				; 000000c0H
	cmp	ebp, esp
	call	__RTC_CheckEsp
	mov	esp, ebp
	pop	ebp
	ret	0
??$forward@AAPA_S@std@@YAAAPA_SAAPA_S@Z ENDP		; std::forward<char16_t * &>
_TEXT	ENDS
; Function compile flags: /Odtp /RTCsu /ZI
; File C:\Program Files (x86)\Microsoft Visual Studio\2019\Community\VC\Tools\MSVC\14.29.30133\include\type_traits
;	COMDAT ??$forward@AAPA_U@std@@YAAAPA_UAAPA_U@Z
_TEXT	SEGMENT
__Arg$ = 8						; size = 4
??$forward@AAPA_U@std@@YAAAPA_UAAPA_U@Z PROC		; std::forward<char32_t * &>, COMDAT

; 1385 :     remove_reference_t<_Ty>& _Arg) noexcept { // forward an lvalue as either an lvalue or an rvalue

	push	ebp
	mov	ebp, esp
	sub	esp, 192				; 000000c0H
	push	ebx
	push	esi
	push	edi
	mov	edi, ebp
	xor	ecx, ecx
	mov	eax, -858993460				; ccccccccH
	rep stosd
	mov	ecx, OFFSET __589FA321_type_traits
	call	@__CheckForDebuggerJustMyCode@4

; 1386 :     return static_cast<_Ty&&>(_Arg);

	mov	eax, DWORD PTR __Arg$[ebp]

; 1387 : }

	pop	edi
	pop	esi
	pop	ebx
	add	esp, 192				; 000000c0H
	cmp	ebp, esp
	call	__RTC_CheckEsp
	mov	esp, ebp
	pop	ebp
	ret	0
??$forward@AAPA_U@std@@YAAAPA_UAAPA_U@Z ENDP		; std::forward<char32_t * &>
_TEXT	ENDS
; Function compile flags: /Odtp /RTCsu /ZI
; File C:\Program Files (x86)\Microsoft Visual Studio\2019\Community\VC\Tools\MSVC\14.29.30133\include\type_traits
;	COMDAT ??$forward@V?$allocator@_S@std@@@std@@YA$$QAV?$allocator@_S@0@AAV10@@Z
_TEXT	SEGMENT
__Arg$ = 8						; size = 4
??$forward@V?$allocator@_S@std@@@std@@YA$$QAV?$allocator@_S@0@AAV10@@Z PROC ; std::forward<std::allocator<char16_t> >, COMDAT

; 1385 :     remove_reference_t<_Ty>& _Arg) noexcept { // forward an lvalue as either an lvalue or an rvalue

	push	ebp
	mov	ebp, esp
	sub	esp, 192				; 000000c0H
	push	ebx
	push	esi
	push	edi
	mov	edi, ebp
	xor	ecx, ecx
	mov	eax, -858993460				; ccccccccH
	rep stosd
	mov	ecx, OFFSET __589FA321_type_traits
	call	@__CheckForDebuggerJustMyCode@4

; 1386 :     return static_cast<_Ty&&>(_Arg);

	mov	eax, DWORD PTR __Arg$[ebp]

; 1387 : }

	pop	edi
	pop	esi
	pop	ebx
	add	esp, 192				; 000000c0H
	cmp	ebp, esp
	call	__RTC_CheckEsp
	mov	esp, ebp
	pop	ebp
	ret	0
??$forward@V?$allocator@_S@std@@@std@@YA$$QAV?$allocator@_S@0@AAV10@@Z ENDP ; std::forward<std::allocator<char16_t> >
_TEXT	ENDS
; Function compile flags: /Odtp /RTCsu /ZI
; File C:\Program Files (x86)\Microsoft Visual Studio\2019\Community\VC\Tools\MSVC\14.29.30133\include\type_traits
;	COMDAT ??$forward@V?$allocator@_U@std@@@std@@YA$$QAV?$allocator@_U@0@AAV10@@Z
_TEXT	SEGMENT
__Arg$ = 8						; size = 4
??$forward@V?$allocator@_U@std@@@std@@YA$$QAV?$allocator@_U@0@AAV10@@Z PROC ; std::forward<std::allocator<char32_t> >, COMDAT

; 1385 :     remove_reference_t<_Ty>& _Arg) noexcept { // forward an lvalue as either an lvalue or an rvalue

	push	ebp
	mov	ebp, esp
	sub	esp, 192				; 000000c0H
	push	ebx
	push	esi
	push	edi
	mov	edi, ebp
	xor	ecx, ecx
	mov	eax, -858993460				; ccccccccH
	rep stosd
	mov	ecx, OFFSET __589FA321_type_traits
	call	@__CheckForDebuggerJustMyCode@4

; 1386 :     return static_cast<_Ty&&>(_Arg);

	mov	eax, DWORD PTR __Arg$[ebp]

; 1387 : }

	pop	edi
	pop	esi
	pop	ebx
	add	esp, 192				; 000000c0H
	cmp	ebp, esp
	call	__RTC_CheckEsp
	mov	esp, ebp
	pop	ebp
	ret	0
??$forward@V?$allocator@_U@std@@@std@@YA$$QAV?$allocator@_U@0@AAV10@@Z ENDP ; std::forward<std::allocator<char32_t> >
_TEXT	ENDS
; Function compile flags: /Odtp /RTCsu /ZI
; File C:\Program Files (x86)\Microsoft Visual Studio\2019\Community\VC\Tools\MSVC\14.29.30133\include\type_traits
;	COMDAT ??$forward@ABQA_S@std@@YAABQA_SABQA_S@Z
_TEXT	SEGMENT
__Arg$ = 8						; size = 4
??$forward@ABQA_S@std@@YAABQA_SABQA_S@Z PROC		; std::forward<char16_t * const &>, COMDAT

; 1385 :     remove_reference_t<_Ty>& _Arg) noexcept { // forward an lvalue as either an lvalue or an rvalue

	push	ebp
	mov	ebp, esp
	sub	esp, 192				; 000000c0H
	push	ebx
	push	esi
	push	edi
	mov	edi, ebp
	xor	ecx, ecx
	mov	eax, -858993460				; ccccccccH
	rep stosd
	mov	ecx, OFFSET __589FA321_type_traits
	call	@__CheckForDebuggerJustMyCode@4

; 1386 :     return static_cast<_Ty&&>(_Arg);

	mov	eax, DWORD PTR __Arg$[ebp]

; 1387 : }

	pop	edi
	pop	esi
	pop	ebx
	add	esp, 192				; 000000c0H
	cmp	ebp, esp
	call	__RTC_CheckEsp
	mov	esp, ebp
	pop	ebp
	ret	0
??$forward@ABQA_S@std@@YAABQA_SABQA_S@Z ENDP		; std::forward<char16_t * const &>
_TEXT	ENDS
; Function compile flags: /Odtp /RTCsu /ZI
; File C:\Program Files (x86)\Microsoft Visual Studio\2019\Community\VC\Tools\MSVC\14.29.30133\include\xutility
;	COMDAT ??$_Voidify_iter@PAPA_S@std@@YAPAXPAPA_S@Z
_TEXT	SEGMENT
__It$ = 8						; size = 4
??$_Voidify_iter@PAPA_S@std@@YAPAXPAPA_S@Z PROC		; std::_Voidify_iter<char16_t * *>, COMDAT

; 123  : _NODISCARD constexpr void* _Voidify_iter(_Iter _It) noexcept {

	push	ebp
	mov	ebp, esp
	sub	esp, 192				; 000000c0H
	push	ebx
	push	esi
	push	edi
	mov	edi, ebp
	xor	ecx, ecx
	mov	eax, -858993460				; ccccccccH
	rep stosd
	mov	ecx, OFFSET __12269DE6_xutility
	call	@__CheckForDebuggerJustMyCode@4

; 124  :     if constexpr (is_pointer_v<_Iter>) {
; 125  :         return const_cast<void*>(static_cast<const volatile void*>(_It));

	mov	eax, DWORD PTR __It$[ebp]

; 126  :     } else {
; 127  :         return const_cast<void*>(static_cast<const volatile void*>(_STD addressof(*_It)));
; 128  :     }
; 129  : }

	pop	edi
	pop	esi
	pop	ebx
	add	esp, 192				; 000000c0H
	cmp	ebp, esp
	call	__RTC_CheckEsp
	mov	esp, ebp
	pop	ebp
	ret	0
??$_Voidify_iter@PAPA_S@std@@YAPAXPAPA_S@Z ENDP		; std::_Voidify_iter<char16_t * *>
_TEXT	ENDS
; Function compile flags: /Odtp /RTCsu /ZI
; File C:\Program Files (x86)\Microsoft Visual Studio\2019\Community\VC\Tools\MSVC\14.29.30133\include\xstddef
;	COMDAT ??$addressof@PA_S@std@@YAPAPA_SAAPA_S@Z
_TEXT	SEGMENT
__Val$ = 8						; size = 4
??$addressof@PA_S@std@@YAPAPA_SAAPA_S@Z PROC		; std::addressof<char16_t *>, COMDAT

; 252  : _NODISCARD constexpr _Ty* addressof(_Ty& _Val) noexcept {

	push	ebp
	mov	ebp, esp
	sub	esp, 192				; 000000c0H
	push	ebx
	push	esi
	push	edi
	mov	edi, ebp
	xor	ecx, ecx
	mov	eax, -858993460				; ccccccccH
	rep stosd
	mov	ecx, OFFSET __E458E21C_xstddef
	call	@__CheckForDebuggerJustMyCode@4

; 253  :     return __builtin_addressof(_Val);

	mov	eax, DWORD PTR __Val$[ebp]

; 254  : }

	pop	edi
	pop	esi
	pop	ebx
	add	esp, 192				; 000000c0H
	cmp	ebp, esp
	call	__RTC_CheckEsp
	mov	esp, ebp
	pop	ebp
	ret	0
??$addressof@PA_S@std@@YAPAPA_SAAPA_S@Z ENDP		; std::addressof<char16_t *>
_TEXT	ENDS
; Function compile flags: /Odtp /RTCsu /ZI
; File C:\Program Files (x86)\Microsoft Visual Studio\2019\Community\VC\Tools\MSVC\14.29.30133\include\type_traits
;	COMDAT ??$forward@ABQA_U@std@@YAABQA_UABQA_U@Z
_TEXT	SEGMENT
__Arg$ = 8						; size = 4
??$forward@ABQA_U@std@@YAABQA_UABQA_U@Z PROC		; std::forward<char32_t * const &>, COMDAT

; 1385 :     remove_reference_t<_Ty>& _Arg) noexcept { // forward an lvalue as either an lvalue or an rvalue

	push	ebp
	mov	ebp, esp
	sub	esp, 192				; 000000c0H
	push	ebx
	push	esi
	push	edi
	mov	edi, ebp
	xor	ecx, ecx
	mov	eax, -858993460				; ccccccccH
	rep stosd
	mov	ecx, OFFSET __589FA321_type_traits
	call	@__CheckForDebuggerJustMyCode@4

; 1386 :     return static_cast<_Ty&&>(_Arg);

	mov	eax, DWORD PTR __Arg$[ebp]

; 1387 : }

	pop	edi
	pop	esi
	pop	ebx
	add	esp, 192				; 000000c0H
	cmp	ebp, esp
	call	__RTC_CheckEsp
	mov	esp, ebp
	pop	ebp
	ret	0
??$forward@ABQA_U@std@@YAABQA_UABQA_U@Z ENDP		; std::forward<char32_t * const &>
_TEXT	ENDS
; Function compile flags: /Odtp /RTCsu /ZI
; File C:\Program Files (x86)\Microsoft Visual Studio\2019\Community\VC\Tools\MSVC\14.29.30133\include\xutility
;	COMDAT ??$_Voidify_iter@PAPA_U@std@@YAPAXPAPA_U@Z
_TEXT	SEGMENT
__It$ = 8						; size = 4
??$_Voidify_iter@PAPA_U@std@@YAPAXPAPA_U@Z PROC		; std::_Voidify_iter<char32_t * *>, COMDAT

; 123  : _NODISCARD constexpr void* _Voidify_iter(_Iter _It) noexcept {

	push	ebp
	mov	ebp, esp
	sub	esp, 192				; 000000c0H
	push	ebx
	push	esi
	push	edi
	mov	edi, ebp
	xor	ecx, ecx
	mov	eax, -858993460				; ccccccccH
	rep stosd
	mov	ecx, OFFSET __12269DE6_xutility
	call	@__CheckForDebuggerJustMyCode@4

; 124  :     if constexpr (is_pointer_v<_Iter>) {
; 125  :         return const_cast<void*>(static_cast<const volatile void*>(_It));

	mov	eax, DWORD PTR __It$[ebp]

; 126  :     } else {
; 127  :         return const_cast<void*>(static_cast<const volatile void*>(_STD addressof(*_It)));
; 128  :     }
; 129  : }

	pop	edi
	pop	esi
	pop	ebx
	add	esp, 192				; 000000c0H
	cmp	ebp, esp
	call	__RTC_CheckEsp
	mov	esp, ebp
	pop	ebp
	ret	0
??$_Voidify_iter@PAPA_U@std@@YAPAXPAPA_U@Z ENDP		; std::_Voidify_iter<char32_t * *>
_TEXT	ENDS
; Function compile flags: /Odtp /RTCsu /ZI
; File C:\Program Files (x86)\Microsoft Visual Studio\2019\Community\VC\Tools\MSVC\14.29.30133\include\xstddef
;	COMDAT ??$addressof@PA_U@std@@YAPAPA_UAAPA_U@Z
_TEXT	SEGMENT
__Val$ = 8						; size = 4
??$addressof@PA_U@std@@YAPAPA_UAAPA_U@Z PROC		; std::addressof<char32_t *>, COMDAT

; 252  : _NODISCARD constexpr _Ty* addressof(_Ty& _Val) noexcept {

	push	ebp
	mov	ebp, esp
	sub	esp, 192				; 000000c0H
	push	ebx
	push	esi
	push	edi
	mov	edi, ebp
	xor	ecx, ecx
	mov	eax, -858993460				; ccccccccH
	rep stosd
	mov	ecx, OFFSET __E458E21C_xstddef
	call	@__CheckForDebuggerJustMyCode@4

; 253  :     return __builtin_addressof(_Val);

	mov	eax, DWORD PTR __Val$[ebp]

; 254  : }

	pop	edi
	pop	esi
	pop	ebx
	add	esp, 192				; 000000c0H
	cmp	ebp, esp
	call	__RTC_CheckEsp
	mov	esp, ebp
	pop	ebp
	ret	0
??$addressof@PA_U@std@@YAPAPA_UAAPA_U@Z ENDP		; std::addressof<char32_t *>
_TEXT	ENDS
; Function compile flags: /Odtp /RTCsu /ZI
; File C:\Program Files (x86)\Microsoft Visual Studio\2019\Community\VC\Tools\MSVC\14.29.30133\include\xmemory
;	COMDAT ?deallocate@?$_Default_allocator_traits@V?$allocator@U_Container_proxy@std@@@std@@@std@@SAXAAV?$allocator@U_Container_proxy@std@@@2@QAU_Container_proxy@2@I@Z
_TEXT	SEGMENT
__Al$ = 8						; size = 4
__Ptr$ = 12						; size = 4
__Count$ = 16						; size = 4
?deallocate@?$_Default_allocator_traits@V?$allocator@U_Container_proxy@std@@@std@@@std@@SAXAAV?$allocator@U_Container_proxy@std@@@2@QAU_Container_proxy@2@I@Z PROC ; std::_Default_allocator_traits<std::allocator<std::_Container_proxy> >::deallocate, COMDAT

; 660  :     static _CONSTEXPR20_DYNALLOC void deallocate(_Alloc& _Al, const pointer _Ptr, const size_type _Count) {

	push	ebp
	mov	ebp, esp
	sub	esp, 192				; 000000c0H
	push	ebx
	push	esi
	push	edi
	mov	edi, ebp
	xor	ecx, ecx
	mov	eax, -858993460				; ccccccccH
	rep stosd
	mov	ecx, OFFSET __79D216CD_xmemory
	call	@__CheckForDebuggerJustMyCode@4

; 661  :         // no overflow check on the following multiply; we assume _Allocate did that check
; 662  : #ifdef __cpp_lib_constexpr_dynamic_alloc // TRANSITION, GH-1532
; 663  :         if (_STD is_constant_evaluated()) {
; 664  :             _Al.deallocate(_Ptr, _Count);
; 665  :         } else
; 666  : #endif // __cpp_lib_constexpr_dynamic_alloc
; 667  :         {
; 668  :             (void) _Al;
; 669  :             _Deallocate<_New_alignof<value_type>>(_Ptr, sizeof(value_type) * _Count);

	mov	eax, DWORD PTR __Count$[ebp]
	shl	eax, 3
	push	eax
	mov	ecx, DWORD PTR __Ptr$[ebp]
	push	ecx
	call	??$_Deallocate@$07$0A@@std@@YAXPAXI@Z	; std::_Deallocate<8,0>
	add	esp, 8

; 670  :         }
; 671  :     }

	pop	edi
	pop	esi
	pop	ebx
	add	esp, 192				; 000000c0H
	cmp	ebp, esp
	call	__RTC_CheckEsp
	mov	esp, ebp
	pop	ebp
	ret	0
?deallocate@?$_Default_allocator_traits@V?$allocator@U_Container_proxy@std@@@std@@@std@@SAXAAV?$allocator@U_Container_proxy@std@@@2@QAU_Container_proxy@2@I@Z ENDP ; std::_Default_allocator_traits<std::allocator<std::_Container_proxy> >::deallocate
_TEXT	ENDS
; Function compile flags: /Odtp /RTCsu /ZI
; File C:\Program Files (x86)\Microsoft Visual Studio\2019\Community\VC\Tools\MSVC\14.29.30133\include\xstddef
;	COMDAT ??$addressof@$$CBV?$_String_val@U?$_Simple_types@_S@std@@@std@@@std@@YAPBV?$_String_val@U?$_Simple_types@_S@std@@@0@ABV10@@Z
_TEXT	SEGMENT
__Val$ = 8						; size = 4
??$addressof@$$CBV?$_String_val@U?$_Simple_types@_S@std@@@std@@@std@@YAPBV?$_String_val@U?$_Simple_types@_S@std@@@0@ABV10@@Z PROC ; std::addressof<std::_String_val<std::_Simple_types<char16_t> > const >, COMDAT

; 252  : _NODISCARD constexpr _Ty* addressof(_Ty& _Val) noexcept {

	push	ebp
	mov	ebp, esp
	sub	esp, 192				; 000000c0H
	push	ebx
	push	esi
	push	edi
	mov	edi, ebp
	xor	ecx, ecx
	mov	eax, -858993460				; ccccccccH
	rep stosd
	mov	ecx, OFFSET __E458E21C_xstddef
	call	@__CheckForDebuggerJustMyCode@4

; 253  :     return __builtin_addressof(_Val);

	mov	eax, DWORD PTR __Val$[ebp]

; 254  : }

	pop	edi
	pop	esi
	pop	ebx
	add	esp, 192				; 000000c0H
	cmp	ebp, esp
	call	__RTC_CheckEsp
	mov	esp, ebp
	pop	ebp
	ret	0
??$addressof@$$CBV?$_String_val@U?$_Simple_types@_S@std@@@std@@@std@@YAPBV?$_String_val@U?$_Simple_types@_S@std@@@0@ABV10@@Z ENDP ; std::addressof<std::_String_val<std::_Simple_types<char16_t> > const >
_TEXT	ENDS
; Function compile flags: /Odtp /RTCsu /ZI
; File C:\Program Files (x86)\Microsoft Visual Studio\2019\Community\VC\Tools\MSVC\14.29.30133\include\xstddef
;	COMDAT ??$addressof@V?$_String_val@U?$_Simple_types@_S@std@@@std@@@std@@YAPAV?$_String_val@U?$_Simple_types@_S@std@@@0@AAV10@@Z
_TEXT	SEGMENT
__Val$ = 8						; size = 4
??$addressof@V?$_String_val@U?$_Simple_types@_S@std@@@std@@@std@@YAPAV?$_String_val@U?$_Simple_types@_S@std@@@0@AAV10@@Z PROC ; std::addressof<std::_String_val<std::_Simple_types<char16_t> > >, COMDAT

; 252  : _NODISCARD constexpr _Ty* addressof(_Ty& _Val) noexcept {

	push	ebp
	mov	ebp, esp
	sub	esp, 192				; 000000c0H
	push	ebx
	push	esi
	push	edi
	mov	edi, ebp
	xor	ecx, ecx
	mov	eax, -858993460				; ccccccccH
	rep stosd
	mov	ecx, OFFSET __E458E21C_xstddef
	call	@__CheckForDebuggerJustMyCode@4

; 253  :     return __builtin_addressof(_Val);

	mov	eax, DWORD PTR __Val$[ebp]

; 254  : }

	pop	edi
	pop	esi
	pop	ebx
	add	esp, 192				; 000000c0H
	cmp	ebp, esp
	call	__RTC_CheckEsp
	mov	esp, ebp
	pop	ebp
	ret	0
??$addressof@V?$_String_val@U?$_Simple_types@_S@std@@@std@@@std@@YAPAV?$_String_val@U?$_Simple_types@_S@std@@@0@AAV10@@Z ENDP ; std::addressof<std::_String_val<std::_Simple_types<char16_t> > >
_TEXT	ENDS
; Function compile flags: /Odtp /RTCsu /ZI
; File C:\Program Files (x86)\Microsoft Visual Studio\2019\Community\VC\Tools\MSVC\14.29.30133\include\xstddef
;	COMDAT ??$addressof@$$CBV?$_String_val@U?$_Simple_types@_U@std@@@std@@@std@@YAPBV?$_String_val@U?$_Simple_types@_U@std@@@0@ABV10@@Z
_TEXT	SEGMENT
__Val$ = 8						; size = 4
??$addressof@$$CBV?$_String_val@U?$_Simple_types@_U@std@@@std@@@std@@YAPBV?$_String_val@U?$_Simple_types@_U@std@@@0@ABV10@@Z PROC ; std::addressof<std::_String_val<std::_Simple_types<char32_t> > const >, COMDAT

; 252  : _NODISCARD constexpr _Ty* addressof(_Ty& _Val) noexcept {

	push	ebp
	mov	ebp, esp
	sub	esp, 192				; 000000c0H
	push	ebx
	push	esi
	push	edi
	mov	edi, ebp
	xor	ecx, ecx
	mov	eax, -858993460				; ccccccccH
	rep stosd
	mov	ecx, OFFSET __E458E21C_xstddef
	call	@__CheckForDebuggerJustMyCode@4

; 253  :     return __builtin_addressof(_Val);

	mov	eax, DWORD PTR __Val$[ebp]

; 254  : }

	pop	edi
	pop	esi
	pop	ebx
	add	esp, 192				; 000000c0H
	cmp	ebp, esp
	call	__RTC_CheckEsp
	mov	esp, ebp
	pop	ebp
	ret	0
??$addressof@$$CBV?$_String_val@U?$_Simple_types@_U@std@@@std@@@std@@YAPBV?$_String_val@U?$_Simple_types@_U@std@@@0@ABV10@@Z ENDP ; std::addressof<std::_String_val<std::_Simple_types<char32_t> > const >
_TEXT	ENDS
; Function compile flags: /Odtp /RTCsu /ZI
; File C:\Program Files (x86)\Microsoft Visual Studio\2019\Community\VC\Tools\MSVC\14.29.30133\include\xstddef
;	COMDAT ??$addressof@V?$_String_val@U?$_Simple_types@_U@std@@@std@@@std@@YAPAV?$_String_val@U?$_Simple_types@_U@std@@@0@AAV10@@Z
_TEXT	SEGMENT
__Val$ = 8						; size = 4
??$addressof@V?$_String_val@U?$_Simple_types@_U@std@@@std@@@std@@YAPAV?$_String_val@U?$_Simple_types@_U@std@@@0@AAV10@@Z PROC ; std::addressof<std::_String_val<std::_Simple_types<char32_t> > >, COMDAT

; 252  : _NODISCARD constexpr _Ty* addressof(_Ty& _Val) noexcept {

	push	ebp
	mov	ebp, esp
	sub	esp, 192				; 000000c0H
	push	ebx
	push	esi
	push	edi
	mov	edi, ebp
	xor	ecx, ecx
	mov	eax, -858993460				; ccccccccH
	rep stosd
	mov	ecx, OFFSET __E458E21C_xstddef
	call	@__CheckForDebuggerJustMyCode@4

; 253  :     return __builtin_addressof(_Val);

	mov	eax, DWORD PTR __Val$[ebp]

; 254  : }

	pop	edi
	pop	esi
	pop	ebx
	add	esp, 192				; 000000c0H
	cmp	ebp, esp
	call	__RTC_CheckEsp
	mov	esp, ebp
	pop	ebp
	ret	0
??$addressof@V?$_String_val@U?$_Simple_types@_U@std@@@std@@@std@@YAPAV?$_String_val@U?$_Simple_types@_U@std@@@0@AAV10@@Z ENDP ; std::addressof<std::_String_val<std::_Simple_types<char32_t> > >
_TEXT	ENDS
; Function compile flags: /Odtp /RTCsu /ZI
; File C:\Program Files (x86)\Microsoft Visual Studio\2019\Community\VC\Tools\MSVC\14.29.30133\include\xutility
;	COMDAT ??$_Construct_in_place@PA_SAAPA_S@std@@YAXAAPA_S0@Z
_TEXT	SEGMENT
$T1 = -200						; size = 4
__Obj$ = 8						; size = 4
_<_Args_0>$ = 12					; size = 4
??$_Construct_in_place@PA_SAAPA_S@std@@YAXAAPA_S0@Z PROC ; std::_Construct_in_place<char16_t *,char16_t * &>, COMDAT

; 142  :     is_nothrow_constructible_v<_Ty, _Types...>) {

	push	ebp
	mov	ebp, esp
	sub	esp, 204				; 000000ccH
	push	ebx
	push	esi
	push	edi
	lea	edi, DWORD PTR [ebp-12]
	mov	ecx, 3
	mov	eax, -858993460				; ccccccccH
	rep stosd
	mov	ecx, OFFSET __12269DE6_xutility
	call	@__CheckForDebuggerJustMyCode@4
	mov	eax, DWORD PTR __Obj$[ebp]
	push	eax
	call	??$addressof@PA_S@std@@YAPAPA_SAAPA_S@Z	; std::addressof<char16_t *>
	add	esp, 4
	push	eax
	call	??$_Voidify_iter@PAPA_S@std@@YAPAXPAPA_S@Z ; std::_Voidify_iter<char16_t * *>
	add	esp, 4
	push	eax
	push	4
	call	??2@YAPAXIPAX@Z				; operator new
	add	esp, 8
	mov	DWORD PTR $T1[ebp], eax
	mov	ecx, DWORD PTR _<_Args_0>$[ebp]
	push	ecx
	call	??$forward@AAPA_S@std@@YAAAPA_SAAPA_S@Z	; std::forward<char16_t * &>
	add	esp, 4
	mov	edx, DWORD PTR $T1[ebp]
	mov	eax, DWORD PTR [eax]
	mov	DWORD PTR [edx], eax

; 143  : #ifdef __cpp_lib_constexpr_dynamic_alloc
; 144  :     if (_STD is_constant_evaluated()) {
; 145  :         _STD construct_at(_STD addressof(_Obj), _STD forward<_Types>(_Args)...);
; 146  :     } else
; 147  : #endif // __cpp_lib_constexpr_dynamic_alloc
; 148  :     {
; 149  :         ::new (_Voidify_iter(_STD addressof(_Obj))) _Ty(_STD forward<_Types>(_Args)...);
; 150  :     }
; 151  : }

	pop	edi
	pop	esi
	pop	ebx
	add	esp, 204				; 000000ccH
	cmp	ebp, esp
	call	__RTC_CheckEsp
	mov	esp, ebp
	pop	ebp
	ret	0
??$_Construct_in_place@PA_SAAPA_S@std@@YAXAAPA_S0@Z ENDP ; std::_Construct_in_place<char16_t *,char16_t * &>
_TEXT	ENDS
; Function compile flags: /Odtp /RTCsu /ZI
; File C:\Program Files (x86)\Microsoft Visual Studio\2019\Community\VC\Tools\MSVC\14.29.30133\include\xstring
;	COMDAT ??$_Reallocate_grow_by@V<lambda_98ae700cc7810ca9f391bc310db97391>@@PB_SI@?$basic_string@_SU?$char_traits@_S@std@@V?$allocator@_S@2@@std@@AAEAAV01@IV<lambda_98ae700cc7810ca9f391bc310db97391>@@PB_SI@Z
_TEXT	SEGMENT
__Old_ptr$1 = -120					; size = 4
__Raw_new$ = -108					; size = 4
__New_ptr$ = -96					; size = 4
__Al$ = -84						; size = 4
__New_capacity$ = -72					; size = 4
__Old_capacity$ = -60					; size = 4
__New_size$ = -48					; size = 4
__Old_size$ = -36					; size = 4
__My_data$ = -24					; size = 4
_this$ = -12						; size = 4
__$ArrayPad$ = -4					; size = 4
__Size_increase$ = 8					; size = 4
__Fn$ = 12						; size = 1
_<_Args_0>$ = 16					; size = 4
_<_Args_1>$ = 20					; size = 4
??$_Reallocate_grow_by@V<lambda_98ae700cc7810ca9f391bc310db97391>@@PB_SI@?$basic_string@_SU?$char_traits@_S@std@@V?$allocator@_S@2@@std@@AAEAAV01@IV<lambda_98ae700cc7810ca9f391bc310db97391>@@PB_SI@Z PROC ; std::basic_string<char16_t,std::char_traits<char16_t>,std::allocator<char16_t> >::_Reallocate_grow_by<<lambda_98ae700cc7810ca9f391bc310db97391>,char16_t const *,unsigned int>, COMDAT
; _this$ = ecx

; 4504 :         const size_type _Size_increase, _Fty _Fn, _ArgTys... _Args) {

	push	ebp
	mov	ebp, esp
	sub	esp, 316				; 0000013cH
	push	ebx
	push	esi
	push	edi
	push	ecx
	lea	edi, DWORD PTR [ebp-124]
	mov	ecx, 31					; 0000001fH
	mov	eax, -858993460				; ccccccccH
	rep stosd
	pop	ecx
	mov	eax, DWORD PTR ___security_cookie
	xor	eax, ebp
	mov	DWORD PTR __$ArrayPad$[ebp], eax
	mov	DWORD PTR _this$[ebp], ecx
	mov	ecx, OFFSET __0D019051_xstring
	call	@__CheckForDebuggerJustMyCode@4

; 4505 :         // reallocate to increase size by _Size_increase elements, new buffer prepared by
; 4506 :         // _Fn(_New_ptr, _Old_ptr, _Old_size, _Args...)
; 4507 :         auto& _My_data            = _Mypair._Myval2;

	mov	eax, DWORD PTR _this$[ebp]
	mov	DWORD PTR __My_data$[ebp], eax

; 4508 :         const size_type _Old_size = _My_data._Mysize;

	mov	eax, DWORD PTR __My_data$[ebp]
	mov	ecx, DWORD PTR [eax+20]
	mov	DWORD PTR __Old_size$[ebp], ecx

; 4509 :         if (max_size() - _Old_size < _Size_increase) {

	mov	ecx, DWORD PTR _this$[ebp]
	call	?max_size@?$basic_string@_SU?$char_traits@_S@std@@V?$allocator@_S@2@@std@@QBEIXZ ; std::basic_string<char16_t,std::char_traits<char16_t>,std::allocator<char16_t> >::max_size
	sub	eax, DWORD PTR __Old_size$[ebp]
	cmp	eax, DWORD PTR __Size_increase$[ebp]
	jae	SHORT $LN2@Reallocate

; 4510 :             _Xlen_string(); // result too long

	call	?_Xlen_string@std@@YAXXZ		; std::_Xlen_string
$LN2@Reallocate:

; 4511 :         }
; 4512 : 
; 4513 :         const size_type _New_size     = _Old_size + _Size_increase;

	mov	eax, DWORD PTR __Old_size$[ebp]
	add	eax, DWORD PTR __Size_increase$[ebp]
	mov	DWORD PTR __New_size$[ebp], eax

; 4514 :         const size_type _Old_capacity = _My_data._Myres;

	mov	eax, DWORD PTR __My_data$[ebp]
	mov	ecx, DWORD PTR [eax+24]
	mov	DWORD PTR __Old_capacity$[ebp], ecx

; 4515 :         const size_type _New_capacity = _Calculate_growth(_New_size);

	mov	eax, DWORD PTR __New_size$[ebp]
	push	eax
	mov	ecx, DWORD PTR _this$[ebp]
	call	?_Calculate_growth@?$basic_string@_SU?$char_traits@_S@std@@V?$allocator@_S@2@@std@@ABEII@Z ; std::basic_string<char16_t,std::char_traits<char16_t>,std::allocator<char16_t> >::_Calculate_growth
	mov	DWORD PTR __New_capacity$[ebp], eax

; 4516 :         auto& _Al                     = _Getal();

	mov	ecx, DWORD PTR _this$[ebp]
	call	?_Getal@?$basic_string@_SU?$char_traits@_S@std@@V?$allocator@_S@2@@std@@AAEAAV?$allocator@_S@2@XZ ; std::basic_string<char16_t,std::char_traits<char16_t>,std::allocator<char16_t> >::_Getal
	mov	DWORD PTR __Al$[ebp], eax

; 4517 :         const pointer _New_ptr        = _Al.allocate(_New_capacity + 1); // throws

	xor	eax, eax
	mov	ecx, DWORD PTR __New_capacity$[ebp]
	add	ecx, 1
	setb	al
	neg	eax
	or	eax, ecx
	push	eax
	mov	ecx, DWORD PTR __Al$[ebp]
	call	?allocate@?$allocator@_S@std@@QAEPA_SI@Z ; std::allocator<char16_t>::allocate
	mov	DWORD PTR __New_ptr$[ebp], eax

; 4518 : 
; 4519 : #ifdef __cpp_lib_constexpr_string
; 4520 :         if (_STD is_constant_evaluated()) { // Begin the lifetimes of the objects before copying to avoid UB
; 4521 :             _Traits::assign(_Unfancy(_New_ptr), _New_capacity + 1, _Elem());
; 4522 :         }
; 4523 : #endif // __cpp_lib_constexpr_string
; 4524 :         _My_data._Orphan_all();

	mov	ecx, DWORD PTR __My_data$[ebp]
	call	?_Orphan_all@_Container_base12@std@@QAEXXZ ; std::_Container_base12::_Orphan_all

; 4525 :         _My_data._Mysize      = _New_size;

	mov	eax, DWORD PTR __My_data$[ebp]
	mov	ecx, DWORD PTR __New_size$[ebp]
	mov	DWORD PTR [eax+20], ecx

; 4526 :         _My_data._Myres       = _New_capacity;

	mov	eax, DWORD PTR __My_data$[ebp]
	mov	ecx, DWORD PTR __New_capacity$[ebp]
	mov	DWORD PTR [eax+24], ecx

; 4527 :         _Elem* const _Raw_new = _Unfancy(_New_ptr);

	mov	eax, DWORD PTR __New_ptr$[ebp]
	push	eax
	call	??$_Unfancy@_S@std@@YAPA_SPA_S@Z	; std::_Unfancy<char16_t>
	add	esp, 4
	mov	DWORD PTR __Raw_new$[ebp], eax

; 4528 :         if (_BUF_SIZE <= _Old_capacity) {

	cmp	DWORD PTR __Old_capacity$[ebp], 8
	jb	SHORT $LN3@Reallocate

; 4529 :             const pointer _Old_ptr = _My_data._Bx._Ptr;

	mov	eax, DWORD PTR __My_data$[ebp]
	mov	ecx, DWORD PTR [eax+4]
	mov	DWORD PTR __Old_ptr$1[ebp], ecx

; 4530 :             _Fn(_Raw_new, _Unfancy(_Old_ptr), _Old_size, _Args...);

	mov	eax, DWORD PTR _<_Args_1>$[ebp]
	push	eax
	mov	ecx, DWORD PTR _<_Args_0>$[ebp]
	push	ecx
	mov	edx, DWORD PTR __Old_size$[ebp]
	push	edx
	mov	eax, DWORD PTR __Old_ptr$1[ebp]
	push	eax
	call	??$_Unfancy@_S@std@@YAPA_SPA_S@Z	; std::_Unfancy<char16_t>
	add	esp, 4
	push	eax
	mov	ecx, DWORD PTR __Raw_new$[ebp]
	push	ecx
	lea	ecx, DWORD PTR __Fn$[ebp]
	call	??R<lambda_98ae700cc7810ca9f391bc310db97391>@@QBE@QA_SQB_SI1I@Z ; <lambda_98ae700cc7810ca9f391bc310db97391>::operator()

; 4531 :             _Al.deallocate(_Old_ptr, _Old_capacity + 1);

	mov	eax, DWORD PTR __Old_capacity$[ebp]
	add	eax, 1
	push	eax
	mov	ecx, DWORD PTR __Old_ptr$1[ebp]
	push	ecx
	mov	ecx, DWORD PTR __Al$[ebp]
	call	?deallocate@?$allocator@_S@std@@QAEXQA_SI@Z ; std::allocator<char16_t>::deallocate

; 4532 :             _My_data._Bx._Ptr = _New_ptr;

	mov	eax, DWORD PTR __My_data$[ebp]
	mov	ecx, DWORD PTR __New_ptr$[ebp]
	mov	DWORD PTR [eax+4], ecx

; 4533 :         } else {

	jmp	SHORT $LN4@Reallocate
$LN3@Reallocate:

; 4534 :             _Fn(_Raw_new, _My_data._Bx._Buf, _Old_size, _Args...);

	mov	eax, DWORD PTR _<_Args_1>$[ebp]
	push	eax
	mov	ecx, DWORD PTR _<_Args_0>$[ebp]
	push	ecx
	mov	edx, DWORD PTR __Old_size$[ebp]
	push	edx
	mov	eax, DWORD PTR __My_data$[ebp]
	add	eax, 4
	push	eax
	mov	ecx, DWORD PTR __Raw_new$[ebp]
	push	ecx
	lea	ecx, DWORD PTR __Fn$[ebp]
	call	??R<lambda_98ae700cc7810ca9f391bc310db97391>@@QBE@QA_SQB_SI1I@Z ; <lambda_98ae700cc7810ca9f391bc310db97391>::operator()

; 4535 :             _Construct_in_place(_My_data._Bx._Ptr, _New_ptr);

	lea	eax, DWORD PTR __New_ptr$[ebp]
	push	eax
	mov	ecx, DWORD PTR __My_data$[ebp]
	add	ecx, 4
	push	ecx
	call	??$_Construct_in_place@PA_SABQA_S@std@@YAXAAPA_SABQA_S@Z ; std::_Construct_in_place<char16_t *,char16_t * const &>
	add	esp, 8
$LN4@Reallocate:

; 4536 :         }
; 4537 : 
; 4538 :         return *this;

	mov	eax, DWORD PTR _this$[ebp]
$LN5@Reallocate:

; 4539 :     }

	push	edx
	mov	ecx, ebp
	push	eax
	lea	edx, DWORD PTR $LN8@Reallocate
	call	@_RTC_CheckStackVars@8
	pop	eax
	pop	edx
	pop	edi
	pop	esi
	pop	ebx
	mov	ecx, DWORD PTR __$ArrayPad$[ebp]
	xor	ecx, ebp
	call	@__security_check_cookie@4
	add	esp, 316				; 0000013cH
	cmp	ebp, esp
	call	__RTC_CheckEsp
	mov	esp, ebp
	pop	ebp
	ret	16					; 00000010H
$LN8@Reallocate:
	DD	1
	DD	$LN7@Reallocate
$LN7@Reallocate:
	DD	-96					; ffffffa0H
	DD	4
	DD	$LN6@Reallocate
$LN6@Reallocate:
	DB	95					; 0000005fH
	DB	78					; 0000004eH
	DB	101					; 00000065H
	DB	119					; 00000077H
	DB	95					; 0000005fH
	DB	112					; 00000070H
	DB	116					; 00000074H
	DB	114					; 00000072H
	DB	0
??$_Reallocate_grow_by@V<lambda_98ae700cc7810ca9f391bc310db97391>@@PB_SI@?$basic_string@_SU?$char_traits@_S@std@@V?$allocator@_S@2@@std@@AAEAAV01@IV<lambda_98ae700cc7810ca9f391bc310db97391>@@PB_SI@Z ENDP ; std::basic_string<char16_t,std::char_traits<char16_t>,std::allocator<char16_t> >::_Reallocate_grow_by<<lambda_98ae700cc7810ca9f391bc310db97391>,char16_t const *,unsigned int>
_TEXT	ENDS
; Function compile flags: /Odtp /RTCsu /ZI
; File C:\Program Files (x86)\Microsoft Visual Studio\2019\Community\VC\Tools\MSVC\14.29.30133\include\xstring
;	COMDAT ??R<lambda_98ae700cc7810ca9f391bc310db97391>@@QBE@QA_SQB_SI1I@Z
_TEXT	SEGMENT
$T1 = -210						; size = 2
_this$ = -8						; size = 4
__New_ptr$ = 8						; size = 4
__Old_ptr$ = 12						; size = 4
__Old_size$ = 16					; size = 4
__Ptr$ = 20						; size = 4
__Count$ = 24						; size = 4
??R<lambda_98ae700cc7810ca9f391bc310db97391>@@QBE@QA_SQB_SI1I@Z PROC ; <lambda_98ae700cc7810ca9f391bc310db97391>::operator(), COMDAT
; _this$ = ecx

; 3132 :                 const size_type _Count) {

	push	ebp
	mov	ebp, esp
	sub	esp, 216				; 000000d8H
	push	ebx
	push	esi
	push	edi
	push	ecx
	lea	edi, DWORD PTR [ebp-24]
	mov	ecx, 6
	mov	eax, -858993460				; ccccccccH
	rep stosd
	pop	ecx
	mov	DWORD PTR _this$[ebp], ecx
	mov	ecx, OFFSET __0D019051_xstring
	call	@__CheckForDebuggerJustMyCode@4

; 3133 :                 _Traits::copy(_New_ptr, _Old_ptr, _Old_size);

	mov	eax, DWORD PTR __Old_size$[ebp]
	push	eax
	mov	ecx, DWORD PTR __Old_ptr$[ebp]
	push	ecx
	mov	edx, DWORD PTR __New_ptr$[ebp]
	push	edx
	call	?copy@?$_Char_traits@_SG@std@@SAPA_SQA_SQB_SI@Z ; std::_Char_traits<char16_t,unsigned short>::copy
	add	esp, 12					; 0000000cH

; 3134 :                 _Traits::copy(_New_ptr + _Old_size, _Ptr, _Count);

	mov	eax, DWORD PTR __Count$[ebp]
	push	eax
	mov	ecx, DWORD PTR __Ptr$[ebp]
	push	ecx
	mov	edx, DWORD PTR __Old_size$[ebp]
	mov	eax, DWORD PTR __New_ptr$[ebp]
	lea	ecx, DWORD PTR [eax+edx*2]
	push	ecx
	call	?copy@?$_Char_traits@_SG@std@@SAPA_SQA_SQB_SI@Z ; std::_Char_traits<char16_t,unsigned short>::copy
	add	esp, 12					; 0000000cH

; 3135 :                 _Traits::assign(_New_ptr[_Old_size + _Count], _Elem());

	xor	eax, eax
	mov	WORD PTR $T1[ebp], ax
	lea	ecx, DWORD PTR $T1[ebp]
	push	ecx
	mov	edx, DWORD PTR __Old_size$[ebp]
	add	edx, DWORD PTR __Count$[ebp]
	mov	eax, DWORD PTR __New_ptr$[ebp]
	lea	ecx, DWORD PTR [eax+edx*2]
	push	ecx
	call	?assign@?$_WChar_traits@_S@std@@SAXAA_SAB_S@Z ; std::_WChar_traits<char16_t>::assign
	add	esp, 8

; 3136 :             },

	pop	edi
	pop	esi
	pop	ebx
	add	esp, 216				; 000000d8H
	cmp	ebp, esp
	call	__RTC_CheckEsp
	mov	esp, ebp
	pop	ebp
	ret	20					; 00000014H
??R<lambda_98ae700cc7810ca9f391bc310db97391>@@QBE@QA_SQB_SI1I@Z ENDP ; <lambda_98ae700cc7810ca9f391bc310db97391>::operator()
_TEXT	ENDS
; Function compile flags: /Odtp /RTCsu /ZI
; File C:\Program Files (x86)\Microsoft Visual Studio\2019\Community\VC\Tools\MSVC\14.29.30133\include\xutility
;	COMDAT ??$_Construct_in_place@PA_UAAPA_U@std@@YAXAAPA_U0@Z
_TEXT	SEGMENT
$T1 = -200						; size = 4
__Obj$ = 8						; size = 4
_<_Args_0>$ = 12					; size = 4
??$_Construct_in_place@PA_UAAPA_U@std@@YAXAAPA_U0@Z PROC ; std::_Construct_in_place<char32_t *,char32_t * &>, COMDAT

; 142  :     is_nothrow_constructible_v<_Ty, _Types...>) {

	push	ebp
	mov	ebp, esp
	sub	esp, 204				; 000000ccH
	push	ebx
	push	esi
	push	edi
	lea	edi, DWORD PTR [ebp-12]
	mov	ecx, 3
	mov	eax, -858993460				; ccccccccH
	rep stosd
	mov	ecx, OFFSET __12269DE6_xutility
	call	@__CheckForDebuggerJustMyCode@4
	mov	eax, DWORD PTR __Obj$[ebp]
	push	eax
	call	??$addressof@PA_U@std@@YAPAPA_UAAPA_U@Z	; std::addressof<char32_t *>
	add	esp, 4
	push	eax
	call	??$_Voidify_iter@PAPA_U@std@@YAPAXPAPA_U@Z ; std::_Voidify_iter<char32_t * *>
	add	esp, 4
	push	eax
	push	4
	call	??2@YAPAXIPAX@Z				; operator new
	add	esp, 8
	mov	DWORD PTR $T1[ebp], eax
	mov	ecx, DWORD PTR _<_Args_0>$[ebp]
	push	ecx
	call	??$forward@AAPA_U@std@@YAAAPA_UAAPA_U@Z	; std::forward<char32_t * &>
	add	esp, 4
	mov	edx, DWORD PTR $T1[ebp]
	mov	eax, DWORD PTR [eax]
	mov	DWORD PTR [edx], eax

; 143  : #ifdef __cpp_lib_constexpr_dynamic_alloc
; 144  :     if (_STD is_constant_evaluated()) {
; 145  :         _STD construct_at(_STD addressof(_Obj), _STD forward<_Types>(_Args)...);
; 146  :     } else
; 147  : #endif // __cpp_lib_constexpr_dynamic_alloc
; 148  :     {
; 149  :         ::new (_Voidify_iter(_STD addressof(_Obj))) _Ty(_STD forward<_Types>(_Args)...);
; 150  :     }
; 151  : }

	pop	edi
	pop	esi
	pop	ebx
	add	esp, 204				; 000000ccH
	cmp	ebp, esp
	call	__RTC_CheckEsp
	mov	esp, ebp
	pop	ebp
	ret	0
??$_Construct_in_place@PA_UAAPA_U@std@@YAXAAPA_U0@Z ENDP ; std::_Construct_in_place<char32_t *,char32_t * &>
_TEXT	ENDS
; Function compile flags: /Odtp /RTCsu /ZI
; File C:\Program Files (x86)\Microsoft Visual Studio\2019\Community\VC\Tools\MSVC\14.29.30133\include\xstring
;	COMDAT ??$_Reallocate_grow_by@V<lambda_aabcc5df0dcdbd223414bc3ba38ad6d9>@@PB_UI@?$basic_string@_UU?$char_traits@_U@std@@V?$allocator@_U@2@@std@@AAEAAV01@IV<lambda_aabcc5df0dcdbd223414bc3ba38ad6d9>@@PB_UI@Z
_TEXT	SEGMENT
__Old_ptr$1 = -120					; size = 4
__Raw_new$ = -108					; size = 4
__New_ptr$ = -96					; size = 4
__Al$ = -84						; size = 4
__New_capacity$ = -72					; size = 4
__Old_capacity$ = -60					; size = 4
__New_size$ = -48					; size = 4
__Old_size$ = -36					; size = 4
__My_data$ = -24					; size = 4
_this$ = -12						; size = 4
__$ArrayPad$ = -4					; size = 4
__Size_increase$ = 8					; size = 4
__Fn$ = 12						; size = 1
_<_Args_0>$ = 16					; size = 4
_<_Args_1>$ = 20					; size = 4
??$_Reallocate_grow_by@V<lambda_aabcc5df0dcdbd223414bc3ba38ad6d9>@@PB_UI@?$basic_string@_UU?$char_traits@_U@std@@V?$allocator@_U@2@@std@@AAEAAV01@IV<lambda_aabcc5df0dcdbd223414bc3ba38ad6d9>@@PB_UI@Z PROC ; std::basic_string<char32_t,std::char_traits<char32_t>,std::allocator<char32_t> >::_Reallocate_grow_by<<lambda_aabcc5df0dcdbd223414bc3ba38ad6d9>,char32_t const *,unsigned int>, COMDAT
; _this$ = ecx

; 4504 :         const size_type _Size_increase, _Fty _Fn, _ArgTys... _Args) {

	push	ebp
	mov	ebp, esp
	sub	esp, 316				; 0000013cH
	push	ebx
	push	esi
	push	edi
	push	ecx
	lea	edi, DWORD PTR [ebp-124]
	mov	ecx, 31					; 0000001fH
	mov	eax, -858993460				; ccccccccH
	rep stosd
	pop	ecx
	mov	eax, DWORD PTR ___security_cookie
	xor	eax, ebp
	mov	DWORD PTR __$ArrayPad$[ebp], eax
	mov	DWORD PTR _this$[ebp], ecx
	mov	ecx, OFFSET __0D019051_xstring
	call	@__CheckForDebuggerJustMyCode@4

; 4505 :         // reallocate to increase size by _Size_increase elements, new buffer prepared by
; 4506 :         // _Fn(_New_ptr, _Old_ptr, _Old_size, _Args...)
; 4507 :         auto& _My_data            = _Mypair._Myval2;

	mov	eax, DWORD PTR _this$[ebp]
	mov	DWORD PTR __My_data$[ebp], eax

; 4508 :         const size_type _Old_size = _My_data._Mysize;

	mov	eax, DWORD PTR __My_data$[ebp]
	mov	ecx, DWORD PTR [eax+20]
	mov	DWORD PTR __Old_size$[ebp], ecx

; 4509 :         if (max_size() - _Old_size < _Size_increase) {

	mov	ecx, DWORD PTR _this$[ebp]
	call	?max_size@?$basic_string@_UU?$char_traits@_U@std@@V?$allocator@_U@2@@std@@QBEIXZ ; std::basic_string<char32_t,std::char_traits<char32_t>,std::allocator<char32_t> >::max_size
	sub	eax, DWORD PTR __Old_size$[ebp]
	cmp	eax, DWORD PTR __Size_increase$[ebp]
	jae	SHORT $LN2@Reallocate

; 4510 :             _Xlen_string(); // result too long

	call	?_Xlen_string@std@@YAXXZ		; std::_Xlen_string
$LN2@Reallocate:

; 4511 :         }
; 4512 : 
; 4513 :         const size_type _New_size     = _Old_size + _Size_increase;

	mov	eax, DWORD PTR __Old_size$[ebp]
	add	eax, DWORD PTR __Size_increase$[ebp]
	mov	DWORD PTR __New_size$[ebp], eax

; 4514 :         const size_type _Old_capacity = _My_data._Myres;

	mov	eax, DWORD PTR __My_data$[ebp]
	mov	ecx, DWORD PTR [eax+24]
	mov	DWORD PTR __Old_capacity$[ebp], ecx

; 4515 :         const size_type _New_capacity = _Calculate_growth(_New_size);

	mov	eax, DWORD PTR __New_size$[ebp]
	push	eax
	mov	ecx, DWORD PTR _this$[ebp]
	call	?_Calculate_growth@?$basic_string@_UU?$char_traits@_U@std@@V?$allocator@_U@2@@std@@ABEII@Z ; std::basic_string<char32_t,std::char_traits<char32_t>,std::allocator<char32_t> >::_Calculate_growth
	mov	DWORD PTR __New_capacity$[ebp], eax

; 4516 :         auto& _Al                     = _Getal();

	mov	ecx, DWORD PTR _this$[ebp]
	call	?_Getal@?$basic_string@_UU?$char_traits@_U@std@@V?$allocator@_U@2@@std@@AAEAAV?$allocator@_U@2@XZ ; std::basic_string<char32_t,std::char_traits<char32_t>,std::allocator<char32_t> >::_Getal
	mov	DWORD PTR __Al$[ebp], eax

; 4517 :         const pointer _New_ptr        = _Al.allocate(_New_capacity + 1); // throws

	xor	eax, eax
	mov	ecx, DWORD PTR __New_capacity$[ebp]
	add	ecx, 1
	setb	al
	neg	eax
	or	eax, ecx
	push	eax
	mov	ecx, DWORD PTR __Al$[ebp]
	call	?allocate@?$allocator@_U@std@@QAEPA_UI@Z ; std::allocator<char32_t>::allocate
	mov	DWORD PTR __New_ptr$[ebp], eax

; 4518 : 
; 4519 : #ifdef __cpp_lib_constexpr_string
; 4520 :         if (_STD is_constant_evaluated()) { // Begin the lifetimes of the objects before copying to avoid UB
; 4521 :             _Traits::assign(_Unfancy(_New_ptr), _New_capacity + 1, _Elem());
; 4522 :         }
; 4523 : #endif // __cpp_lib_constexpr_string
; 4524 :         _My_data._Orphan_all();

	mov	ecx, DWORD PTR __My_data$[ebp]
	call	?_Orphan_all@_Container_base12@std@@QAEXXZ ; std::_Container_base12::_Orphan_all

; 4525 :         _My_data._Mysize      = _New_size;

	mov	eax, DWORD PTR __My_data$[ebp]
	mov	ecx, DWORD PTR __New_size$[ebp]
	mov	DWORD PTR [eax+20], ecx

; 4526 :         _My_data._Myres       = _New_capacity;

	mov	eax, DWORD PTR __My_data$[ebp]
	mov	ecx, DWORD PTR __New_capacity$[ebp]
	mov	DWORD PTR [eax+24], ecx

; 4527 :         _Elem* const _Raw_new = _Unfancy(_New_ptr);

	mov	eax, DWORD PTR __New_ptr$[ebp]
	push	eax
	call	??$_Unfancy@_U@std@@YAPA_UPA_U@Z	; std::_Unfancy<char32_t>
	add	esp, 4
	mov	DWORD PTR __Raw_new$[ebp], eax

; 4528 :         if (_BUF_SIZE <= _Old_capacity) {

	cmp	DWORD PTR __Old_capacity$[ebp], 4
	jb	SHORT $LN3@Reallocate

; 4529 :             const pointer _Old_ptr = _My_data._Bx._Ptr;

	mov	eax, DWORD PTR __My_data$[ebp]
	mov	ecx, DWORD PTR [eax+4]
	mov	DWORD PTR __Old_ptr$1[ebp], ecx

; 4530 :             _Fn(_Raw_new, _Unfancy(_Old_ptr), _Old_size, _Args...);

	mov	eax, DWORD PTR _<_Args_1>$[ebp]
	push	eax
	mov	ecx, DWORD PTR _<_Args_0>$[ebp]
	push	ecx
	mov	edx, DWORD PTR __Old_size$[ebp]
	push	edx
	mov	eax, DWORD PTR __Old_ptr$1[ebp]
	push	eax
	call	??$_Unfancy@_U@std@@YAPA_UPA_U@Z	; std::_Unfancy<char32_t>
	add	esp, 4
	push	eax
	mov	ecx, DWORD PTR __Raw_new$[ebp]
	push	ecx
	lea	ecx, DWORD PTR __Fn$[ebp]
	call	??R<lambda_aabcc5df0dcdbd223414bc3ba38ad6d9>@@QBE@QA_UQB_UI1I@Z ; <lambda_aabcc5df0dcdbd223414bc3ba38ad6d9>::operator()

; 4531 :             _Al.deallocate(_Old_ptr, _Old_capacity + 1);

	mov	eax, DWORD PTR __Old_capacity$[ebp]
	add	eax, 1
	push	eax
	mov	ecx, DWORD PTR __Old_ptr$1[ebp]
	push	ecx
	mov	ecx, DWORD PTR __Al$[ebp]
	call	?deallocate@?$allocator@_U@std@@QAEXQA_UI@Z ; std::allocator<char32_t>::deallocate

; 4532 :             _My_data._Bx._Ptr = _New_ptr;

	mov	eax, DWORD PTR __My_data$[ebp]
	mov	ecx, DWORD PTR __New_ptr$[ebp]
	mov	DWORD PTR [eax+4], ecx

; 4533 :         } else {

	jmp	SHORT $LN4@Reallocate
$LN3@Reallocate:

; 4534 :             _Fn(_Raw_new, _My_data._Bx._Buf, _Old_size, _Args...);

	mov	eax, DWORD PTR _<_Args_1>$[ebp]
	push	eax
	mov	ecx, DWORD PTR _<_Args_0>$[ebp]
	push	ecx
	mov	edx, DWORD PTR __Old_size$[ebp]
	push	edx
	mov	eax, DWORD PTR __My_data$[ebp]
	add	eax, 4
	push	eax
	mov	ecx, DWORD PTR __Raw_new$[ebp]
	push	ecx
	lea	ecx, DWORD PTR __Fn$[ebp]
	call	??R<lambda_aabcc5df0dcdbd223414bc3ba38ad6d9>@@QBE@QA_UQB_UI1I@Z ; <lambda_aabcc5df0dcdbd223414bc3ba38ad6d9>::operator()

; 4535 :             _Construct_in_place(_My_data._Bx._Ptr, _New_ptr);

	lea	eax, DWORD PTR __New_ptr$[ebp]
	push	eax
	mov	ecx, DWORD PTR __My_data$[ebp]
	add	ecx, 4
	push	ecx
	call	??$_Construct_in_place@PA_UABQA_U@std@@YAXAAPA_UABQA_U@Z ; std::_Construct_in_place<char32_t *,char32_t * const &>
	add	esp, 8
$LN4@Reallocate:

; 4536 :         }
; 4537 : 
; 4538 :         return *this;

	mov	eax, DWORD PTR _this$[ebp]
$LN5@Reallocate:

; 4539 :     }

	push	edx
	mov	ecx, ebp
	push	eax
	lea	edx, DWORD PTR $LN8@Reallocate
	call	@_RTC_CheckStackVars@8
	pop	eax
	pop	edx
	pop	edi
	pop	esi
	pop	ebx
	mov	ecx, DWORD PTR __$ArrayPad$[ebp]
	xor	ecx, ebp
	call	@__security_check_cookie@4
	add	esp, 316				; 0000013cH
	cmp	ebp, esp
	call	__RTC_CheckEsp
	mov	esp, ebp
	pop	ebp
	ret	16					; 00000010H
$LN8@Reallocate:
	DD	1
	DD	$LN7@Reallocate
$LN7@Reallocate:
	DD	-96					; ffffffa0H
	DD	4
	DD	$LN6@Reallocate
$LN6@Reallocate:
	DB	95					; 0000005fH
	DB	78					; 0000004eH
	DB	101					; 00000065H
	DB	119					; 00000077H
	DB	95					; 0000005fH
	DB	112					; 00000070H
	DB	116					; 00000074H
	DB	114					; 00000072H
	DB	0
??$_Reallocate_grow_by@V<lambda_aabcc5df0dcdbd223414bc3ba38ad6d9>@@PB_UI@?$basic_string@_UU?$char_traits@_U@std@@V?$allocator@_U@2@@std@@AAEAAV01@IV<lambda_aabcc5df0dcdbd223414bc3ba38ad6d9>@@PB_UI@Z ENDP ; std::basic_string<char32_t,std::char_traits<char32_t>,std::allocator<char32_t> >::_Reallocate_grow_by<<lambda_aabcc5df0dcdbd223414bc3ba38ad6d9>,char32_t const *,unsigned int>
_TEXT	ENDS
; Function compile flags: /Odtp /RTCsu /ZI
; File C:\Program Files (x86)\Microsoft Visual Studio\2019\Community\VC\Tools\MSVC\14.29.30133\include\xstring
;	COMDAT ??R<lambda_aabcc5df0dcdbd223414bc3ba38ad6d9>@@QBE@QA_UQB_UI1I@Z
_TEXT	SEGMENT
$T1 = -212						; size = 4
_this$ = -8						; size = 4
__New_ptr$ = 8						; size = 4
__Old_ptr$ = 12						; size = 4
__Old_size$ = 16					; size = 4
__Ptr$ = 20						; size = 4
__Count$ = 24						; size = 4
??R<lambda_aabcc5df0dcdbd223414bc3ba38ad6d9>@@QBE@QA_UQB_UI1I@Z PROC ; <lambda_aabcc5df0dcdbd223414bc3ba38ad6d9>::operator(), COMDAT
; _this$ = ecx

; 3132 :                 const size_type _Count) {

	push	ebp
	mov	ebp, esp
	sub	esp, 216				; 000000d8H
	push	ebx
	push	esi
	push	edi
	push	ecx
	lea	edi, DWORD PTR [ebp-24]
	mov	ecx, 6
	mov	eax, -858993460				; ccccccccH
	rep stosd
	pop	ecx
	mov	DWORD PTR _this$[ebp], ecx
	mov	ecx, OFFSET __0D019051_xstring
	call	@__CheckForDebuggerJustMyCode@4

; 3133 :                 _Traits::copy(_New_ptr, _Old_ptr, _Old_size);

	mov	eax, DWORD PTR __Old_size$[ebp]
	push	eax
	mov	ecx, DWORD PTR __Old_ptr$[ebp]
	push	ecx
	mov	edx, DWORD PTR __New_ptr$[ebp]
	push	edx
	call	?copy@?$_Char_traits@_UI@std@@SAPA_UQA_UQB_UI@Z ; std::_Char_traits<char32_t,unsigned int>::copy
	add	esp, 12					; 0000000cH

; 3134 :                 _Traits::copy(_New_ptr + _Old_size, _Ptr, _Count);

	mov	eax, DWORD PTR __Count$[ebp]
	push	eax
	mov	ecx, DWORD PTR __Ptr$[ebp]
	push	ecx
	mov	edx, DWORD PTR __Old_size$[ebp]
	mov	eax, DWORD PTR __New_ptr$[ebp]
	lea	ecx, DWORD PTR [eax+edx*4]
	push	ecx
	call	?copy@?$_Char_traits@_UI@std@@SAPA_UQA_UQB_UI@Z ; std::_Char_traits<char32_t,unsigned int>::copy
	add	esp, 12					; 0000000cH

; 3135 :                 _Traits::assign(_New_ptr[_Old_size + _Count], _Elem());

	mov	DWORD PTR $T1[ebp], 0
	lea	eax, DWORD PTR $T1[ebp]
	push	eax
	mov	ecx, DWORD PTR __Old_size$[ebp]
	add	ecx, DWORD PTR __Count$[ebp]
	mov	edx, DWORD PTR __New_ptr$[ebp]
	lea	eax, DWORD PTR [edx+ecx*4]
	push	eax
	call	?assign@?$_Char_traits@_UI@std@@SAXAA_UAB_U@Z ; std::_Char_traits<char32_t,unsigned int>::assign
	add	esp, 8

; 3136 :             },

	pop	edi
	pop	esi
	pop	ebx
	add	esp, 216				; 000000d8H
	cmp	ebp, esp
	call	__RTC_CheckEsp
	mov	esp, ebp
	pop	ebp
	ret	20					; 00000014H
??R<lambda_aabcc5df0dcdbd223414bc3ba38ad6d9>@@QBE@QA_UQB_UI1I@Z ENDP ; <lambda_aabcc5df0dcdbd223414bc3ba38ad6d9>::operator()
_TEXT	ENDS
; Function compile flags: /Odtp /RTCsu /ZI
; File C:\Program Files (x86)\Microsoft Visual Studio\2019\Community\VC\Tools\MSVC\14.29.30133\include\xmemory
;	COMDAT ??$?0V?$allocator@_S@std@@$$V@?$_Compressed_pair@V?$allocator@_S@std@@V?$_String_val@U?$_Simple_types@_S@std@@@2@$00@std@@QAE@U_One_then_variadic_args_t@1@$$QAV?$allocator@_S@1@@Z
_TEXT	SEGMENT
_this$ = -8						; size = 4
___formal$ = 8						; size = 1
__Val1$ = 12						; size = 4
??$?0V?$allocator@_S@std@@$$V@?$_Compressed_pair@V?$allocator@_S@std@@V?$_String_val@U?$_Simple_types@_S@std@@@2@$00@std@@QAE@U_One_then_variadic_args_t@1@$$QAV?$allocator@_S@1@@Z PROC ; std::_Compressed_pair<std::allocator<char16_t>,std::_String_val<std::_Simple_types<char16_t> >,1>::_Compressed_pair<std::allocator<char16_t>,std::_String_val<std::_Simple_types<char16_t> >,1><std::allocator<char16_t> >, COMDAT
; _this$ = ecx

; 1336 :         : _Ty1(_STD forward<_Other1>(_Val1)), _Myval2(_STD forward<_Other2>(_Val2)...) {}

	push	ebp
	mov	ebp, esp
	sub	esp, 204				; 000000ccH
	push	ebx
	push	esi
	push	edi
	push	ecx
	lea	edi, DWORD PTR [ebp-12]
	mov	ecx, 3
	mov	eax, -858993460				; ccccccccH
	rep stosd
	pop	ecx
	mov	DWORD PTR _this$[ebp], ecx
	mov	ecx, OFFSET __79D216CD_xmemory
	call	@__CheckForDebuggerJustMyCode@4
	mov	eax, DWORD PTR __Val1$[ebp]
	push	eax
	call	??$forward@V?$allocator@_S@std@@@std@@YA$$QAV?$allocator@_S@0@AAV10@@Z ; std::forward<std::allocator<char16_t> >
	add	esp, 4
	mov	ecx, DWORD PTR _this$[ebp]
	call	??0?$_String_val@U?$_Simple_types@_S@std@@@std@@QAE@XZ ; std::_String_val<std::_Simple_types<char16_t> >::_String_val<std::_Simple_types<char16_t> >
	mov	eax, DWORD PTR _this$[ebp]
	pop	edi
	pop	esi
	pop	ebx
	add	esp, 204				; 000000ccH
	cmp	ebp, esp
	call	__RTC_CheckEsp
	mov	esp, ebp
	pop	ebp
	ret	8
??$?0V?$allocator@_S@std@@$$V@?$_Compressed_pair@V?$allocator@_S@std@@V?$_String_val@U?$_Simple_types@_S@std@@@2@$00@std@@QAE@U_One_then_variadic_args_t@1@$$QAV?$allocator@_S@1@@Z ENDP ; std::_Compressed_pair<std::allocator<char16_t>,std::_String_val<std::_Simple_types<char16_t> >,1>::_Compressed_pair<std::allocator<char16_t>,std::_String_val<std::_Simple_types<char16_t> >,1><std::allocator<char16_t> >
_TEXT	ENDS
; Function compile flags: /Odtp /RTCsu /ZI
; File C:\Program Files (x86)\Microsoft Visual Studio\2019\Community\VC\Tools\MSVC\14.29.30133\include\type_traits
;	COMDAT ??$move@AAV?$allocator@_S@std@@@std@@YA$$QAV?$allocator@_S@0@AAV10@@Z
_TEXT	SEGMENT
__Arg$ = 8						; size = 4
??$move@AAV?$allocator@_S@std@@@std@@YA$$QAV?$allocator@_S@0@AAV10@@Z PROC ; std::move<std::allocator<char16_t> &>, COMDAT

; 1396 : _NODISCARD constexpr remove_reference_t<_Ty>&& move(_Ty&& _Arg) noexcept { // forward _Arg as movable

	push	ebp
	mov	ebp, esp
	sub	esp, 192				; 000000c0H
	push	ebx
	push	esi
	push	edi
	mov	edi, ebp
	xor	ecx, ecx
	mov	eax, -858993460				; ccccccccH
	rep stosd
	mov	ecx, OFFSET __589FA321_type_traits
	call	@__CheckForDebuggerJustMyCode@4

; 1397 :     return static_cast<remove_reference_t<_Ty>&&>(_Arg);

	mov	eax, DWORD PTR __Arg$[ebp]

; 1398 : }

	pop	edi
	pop	esi
	pop	ebx
	add	esp, 192				; 000000c0H
	cmp	ebp, esp
	call	__RTC_CheckEsp
	mov	esp, ebp
	pop	ebp
	ret	0
??$move@AAV?$allocator@_S@std@@@std@@YA$$QAV?$allocator@_S@0@AAV10@@Z ENDP ; std::move<std::allocator<char16_t> &>
_TEXT	ENDS
; Function compile flags: /Odtp /RTCsu /ZI
; File C:\Program Files (x86)\Microsoft Visual Studio\2019\Community\VC\Tools\MSVC\14.29.30133\include\xmemory
;	COMDAT ??$_Get_size_of_n@$03@std@@YAII@Z
_TEXT	SEGMENT
__Max_possible$1 = -20					; size = 4
__Overflow_is_possible$ = -5				; size = 1
__Count$ = 8						; size = 4
??$_Get_size_of_n@$03@std@@YAII@Z PROC			; std::_Get_size_of_n<4>, COMDAT

; 55   : _NODISCARD constexpr size_t _Get_size_of_n(const size_t _Count) {

	push	ebp
	mov	ebp, esp
	sub	esp, 216				; 000000d8H
	push	ebx
	push	esi
	push	edi
	lea	edi, DWORD PTR [ebp-24]
	mov	ecx, 6
	mov	eax, -858993460				; ccccccccH
	rep stosd
	mov	ecx, OFFSET __79D216CD_xmemory
	call	@__CheckForDebuggerJustMyCode@4

; 56   :     constexpr bool _Overflow_is_possible = _Ty_size > 1;

	mov	BYTE PTR __Overflow_is_possible$[ebp], 1

; 57   : 
; 58   :     if constexpr (_Overflow_is_possible) {
; 59   :         constexpr size_t _Max_possible = static_cast<size_t>(-1) / _Ty_size;

	mov	DWORD PTR __Max_possible$1[ebp], 1073741823 ; 3fffffffH

; 60   :         if (_Count > _Max_possible) {

	cmp	DWORD PTR __Count$[ebp], 1073741823	; 3fffffffH
	jbe	SHORT $LN2@Get_size_o

; 61   :             _Throw_bad_array_new_length(); // multiply overflow

	call	?_Throw_bad_array_new_length@std@@YAXXZ	; std::_Throw_bad_array_new_length
$LN2@Get_size_o:

; 62   :         }
; 63   :     }
; 64   : 
; 65   :     return _Count * _Ty_size;

	mov	eax, DWORD PTR __Count$[ebp]
	shl	eax, 2
$LN3@Get_size_o:

; 66   : }

	pop	edi
	pop	esi
	pop	ebx
	add	esp, 216				; 000000d8H
	cmp	ebp, esp
	call	__RTC_CheckEsp
	mov	esp, ebp
	pop	ebp
	ret	0
??$_Get_size_of_n@$03@std@@YAII@Z ENDP			; std::_Get_size_of_n<4>
_TEXT	ENDS
; Function compile flags: /Odtp /RTCsu /ZI
; File C:\Program Files (x86)\Microsoft Visual Studio\2019\Community\VC\Tools\MSVC\14.29.30133\include\xmemory
;	COMDAT ??$?0V?$allocator@_U@std@@$$V@?$_Compressed_pair@V?$allocator@_U@std@@V?$_String_val@U?$_Simple_types@_U@std@@@2@$00@std@@QAE@U_One_then_variadic_args_t@1@$$QAV?$allocator@_U@1@@Z
_TEXT	SEGMENT
_this$ = -8						; size = 4
___formal$ = 8						; size = 1
__Val1$ = 12						; size = 4
??$?0V?$allocator@_U@std@@$$V@?$_Compressed_pair@V?$allocator@_U@std@@V?$_String_val@U?$_Simple_types@_U@std@@@2@$00@std@@QAE@U_One_then_variadic_args_t@1@$$QAV?$allocator@_U@1@@Z PROC ; std::_Compressed_pair<std::allocator<char32_t>,std::_String_val<std::_Simple_types<char32_t> >,1>::_Compressed_pair<std::allocator<char32_t>,std::_String_val<std::_Simple_types<char32_t> >,1><std::allocator<char32_t> >, COMDAT
; _this$ = ecx

; 1336 :         : _Ty1(_STD forward<_Other1>(_Val1)), _Myval2(_STD forward<_Other2>(_Val2)...) {}

	push	ebp
	mov	ebp, esp
	sub	esp, 204				; 000000ccH
	push	ebx
	push	esi
	push	edi
	push	ecx
	lea	edi, DWORD PTR [ebp-12]
	mov	ecx, 3
	mov	eax, -858993460				; ccccccccH
	rep stosd
	pop	ecx
	mov	DWORD PTR _this$[ebp], ecx
	mov	ecx, OFFSET __79D216CD_xmemory
	call	@__CheckForDebuggerJustMyCode@4
	mov	eax, DWORD PTR __Val1$[ebp]
	push	eax
	call	??$forward@V?$allocator@_U@std@@@std@@YA$$QAV?$allocator@_U@0@AAV10@@Z ; std::forward<std::allocator<char32_t> >
	add	esp, 4
	mov	ecx, DWORD PTR _this$[ebp]
	call	??0?$_String_val@U?$_Simple_types@_U@std@@@std@@QAE@XZ ; std::_String_val<std::_Simple_types<char32_t> >::_String_val<std::_Simple_types<char32_t> >
	mov	eax, DWORD PTR _this$[ebp]
	pop	edi
	pop	esi
	pop	ebx
	add	esp, 204				; 000000ccH
	cmp	ebp, esp
	call	__RTC_CheckEsp
	mov	esp, ebp
	pop	ebp
	ret	8
??$?0V?$allocator@_U@std@@$$V@?$_Compressed_pair@V?$allocator@_U@std@@V?$_String_val@U?$_Simple_types@_U@std@@@2@$00@std@@QAE@U_One_then_variadic_args_t@1@$$QAV?$allocator@_U@1@@Z ENDP ; std::_Compressed_pair<std::allocator<char32_t>,std::_String_val<std::_Simple_types<char32_t> >,1>::_Compressed_pair<std::allocator<char32_t>,std::_String_val<std::_Simple_types<char32_t> >,1><std::allocator<char32_t> >
_TEXT	ENDS
; Function compile flags: /Odtp /RTCsu /ZI
; File C:\Program Files (x86)\Microsoft Visual Studio\2019\Community\VC\Tools\MSVC\14.29.30133\include\type_traits
;	COMDAT ??$move@AAV?$allocator@_U@std@@@std@@YA$$QAV?$allocator@_U@0@AAV10@@Z
_TEXT	SEGMENT
__Arg$ = 8						; size = 4
??$move@AAV?$allocator@_U@std@@@std@@YA$$QAV?$allocator@_U@0@AAV10@@Z PROC ; std::move<std::allocator<char32_t> &>, COMDAT

; 1396 : _NODISCARD constexpr remove_reference_t<_Ty>&& move(_Ty&& _Arg) noexcept { // forward _Arg as movable

	push	ebp
	mov	ebp, esp
	sub	esp, 192				; 000000c0H
	push	ebx
	push	esi
	push	edi
	mov	edi, ebp
	xor	ecx, ecx
	mov	eax, -858993460				; ccccccccH
	rep stosd
	mov	ecx, OFFSET __589FA321_type_traits
	call	@__CheckForDebuggerJustMyCode@4

; 1397 :     return static_cast<remove_reference_t<_Ty>&&>(_Arg);

	mov	eax, DWORD PTR __Arg$[ebp]

; 1398 : }

	pop	edi
	pop	esi
	pop	ebx
	add	esp, 192				; 000000c0H
	cmp	ebp, esp
	call	__RTC_CheckEsp
	mov	esp, ebp
	pop	ebp
	ret	0
??$move@AAV?$allocator@_U@std@@@std@@YA$$QAV?$allocator@_U@0@AAV10@@Z ENDP ; std::move<std::allocator<char32_t> &>
_TEXT	ENDS
; Function compile flags: /Odtp /RTCsu /ZI
; File C:\Program Files (x86)\Microsoft Visual Studio\2019\Community\VC\Tools\MSVC\14.29.30133\include\ostream
;	COMDAT ??Bsentry@?$basic_ostream@_WU?$char_traits@_W@std@@@std@@QBE_NXZ
_TEXT	SEGMENT
_this$ = -8						; size = 4
??Bsentry@?$basic_ostream@_WU?$char_traits@_W@std@@@std@@QBE_NXZ PROC ; std::basic_ostream<wchar_t,std::char_traits<wchar_t> >::sentry::operator bool, COMDAT
; _this$ = ecx

; 123  :         explicit __CLR_OR_THIS_CALL operator bool() const {

	push	ebp
	mov	ebp, esp
	sub	esp, 204				; 000000ccH
	push	ebx
	push	esi
	push	edi
	push	ecx
	lea	edi, DWORD PTR [ebp-12]
	mov	ecx, 3
	mov	eax, -858993460				; ccccccccH
	rep stosd
	pop	ecx
	mov	DWORD PTR _this$[ebp], ecx
	mov	ecx, OFFSET __C12F3EA4_ostream
	call	@__CheckForDebuggerJustMyCode@4

; 124  :             return _Ok;

	mov	eax, DWORD PTR _this$[ebp]
	mov	al, BYTE PTR [eax+4]

; 125  :         }

	pop	edi
	pop	esi
	pop	ebx
	add	esp, 204				; 000000ccH
	cmp	ebp, esp
	call	__RTC_CheckEsp
	mov	esp, ebp
	pop	ebp
	ret	0
??Bsentry@?$basic_ostream@_WU?$char_traits@_W@std@@@std@@QBE_NXZ ENDP ; std::basic_ostream<wchar_t,std::char_traits<wchar_t> >::sentry::operator bool
_TEXT	ENDS
; Function compile flags: /Odtp /RTCsu /ZI
; File C:\Program Files (x86)\Microsoft Visual Studio\2019\Community\VC\Tools\MSVC\14.29.30133\include\ostream
;	COMDAT ??1sentry@?$basic_ostream@_WU?$char_traits@_W@std@@@std@@QAE@XZ
_TEXT	SEGMENT
tv72 = -229						; size = 1
__Zero_uncaught_exceptions$ = -29			; size = 1
_this$ = -20						; size = 4
__$EHRec$ = -12						; size = 12
??1sentry@?$basic_ostream@_WU?$char_traits@_W@std@@@std@@QAE@XZ PROC ; std::basic_ostream<wchar_t,std::char_traits<wchar_t> >::sentry::~sentry, COMDAT
; _this$ = ecx

; 108  :         __CLR_OR_THIS_CALL ~sentry() noexcept {

	push	ebp
	mov	ebp, esp
	push	-1
	push	__ehhandler$??1sentry@?$basic_ostream@_WU?$char_traits@_W@std@@@std@@QAE@XZ
	mov	eax, DWORD PTR fs:0
	push	eax
	sub	esp, 220				; 000000dcH
	push	ebx
	push	esi
	push	edi
	push	ecx
	lea	edi, DWORD PTR [ebp-40]
	mov	ecx, 7
	mov	eax, -858993460				; ccccccccH
	rep stosd
	pop	ecx
	mov	eax, DWORD PTR ___security_cookie
	xor	eax, ebp
	push	eax
	lea	eax, DWORD PTR __$EHRec$[ebp]
	mov	DWORD PTR fs:0, eax
	mov	DWORD PTR _this$[ebp], ecx
	mov	ecx, OFFSET __C12F3EA4_ostream
	call	@__CheckForDebuggerJustMyCode@4

; 109  : #if !_HAS_EXCEPTIONS
; 110  :             const bool _Zero_uncaught_exceptions = true;
; 111  : #elif _HAS_DEPRECATED_UNCAUGHT_EXCEPTION
; 112  :             const bool _Zero_uncaught_exceptions = !_STD uncaught_exception(); // TRANSITION, ArchivedOS-12000909

	call	?uncaught_exception@std@@YA_NXZ		; std::uncaught_exception
	movzx	eax, al
	test	eax, eax
	jne	SHORT $LN4@sentry
	mov	BYTE PTR tv72[ebp], 1
	jmp	SHORT $LN5@sentry
$LN4@sentry:
	mov	BYTE PTR tv72[ebp], 0
$LN5@sentry:
	mov	cl, BYTE PTR tv72[ebp]
	mov	BYTE PTR __Zero_uncaught_exceptions$[ebp], cl

; 113  : #else // ^^^ _HAS_DEPRECATED_UNCAUGHT_EXCEPTION / !_HAS_DEPRECATED_UNCAUGHT_EXCEPTION vvv
; 114  :             const bool _Zero_uncaught_exceptions = _STD uncaught_exceptions() == 0;
; 115  : #endif // !_HAS_DEPRECATED_UNCAUGHT_EXCEPTION
; 116  : 
; 117  :             if (_Zero_uncaught_exceptions) {

	movzx	eax, BYTE PTR __Zero_uncaught_exceptions$[ebp]
	test	eax, eax
	je	SHORT $LN1@sentry

; 118  :                 this->_Myostr._Osfx();

	mov	esi, esp
	mov	eax, DWORD PTR _this$[ebp]
	mov	ecx, DWORD PTR [eax]
	call	DWORD PTR __imp_?_Osfx@?$basic_ostream@_WU?$char_traits@_W@std@@@std@@QAEXXZ
	cmp	esi, esp
	call	__RTC_CheckEsp
$LN1@sentry:

; 119  :             }
; 120  :         }

	mov	ecx, DWORD PTR _this$[ebp]
	call	??1_Sentry_base@?$basic_ostream@_WU?$char_traits@_W@std@@@std@@QAE@XZ ; std::basic_ostream<wchar_t,std::char_traits<wchar_t> >::_Sentry_base::~_Sentry_base
	mov	ecx, DWORD PTR __$EHRec$[ebp]
	mov	DWORD PTR fs:0, ecx
	pop	ecx
	pop	edi
	pop	esi
	pop	ebx
	add	esp, 232				; 000000e8H
	cmp	ebp, esp
	call	__RTC_CheckEsp
	mov	esp, ebp
	pop	ebp
	ret	0
	int	3
	int	3
	int	3
	int	3
	int	3
_TEXT	ENDS
;	COMDAT text$x
text$x	SEGMENT
__ehhandler$??1sentry@?$basic_ostream@_WU?$char_traits@_W@std@@@std@@QAE@XZ:
	npad	1
	npad	1
	mov	edx, DWORD PTR [esp+8]
	lea	eax, DWORD PTR [edx+12]
	mov	ecx, DWORD PTR [edx-236]
	xor	ecx, eax
	call	@__security_check_cookie@4
	mov	eax, OFFSET __ehfuncinfo$??1sentry@?$basic_ostream@_WU?$char_traits@_W@std@@@std@@QAE@XZ
	jmp	___CxxFrameHandler3
text$x	ENDS
??1sentry@?$basic_ostream@_WU?$char_traits@_W@std@@@std@@QAE@XZ ENDP ; std::basic_ostream<wchar_t,std::char_traits<wchar_t> >::sentry::~sentry
; Function compile flags: /Odtp /RTCsu /ZI
; File C:\Program Files (x86)\Microsoft Visual Studio\2019\Community\VC\Tools\MSVC\14.29.30133\include\ostream
;	COMDAT ??0sentry@?$basic_ostream@_WU?$char_traits@_W@std@@@std@@QAE@AAV12@@Z
_TEXT	SEGMENT
__Tied$ = -32						; size = 4
_this$ = -20						; size = 4
__$EHRec$ = -12						; size = 12
__Ostr$ = 8						; size = 4
??0sentry@?$basic_ostream@_WU?$char_traits@_W@std@@@std@@QAE@AAV12@@Z PROC ; std::basic_ostream<wchar_t,std::char_traits<wchar_t> >::sentry::sentry, COMDAT
; _this$ = ecx

; 91   :         explicit __CLR_OR_THIS_CALL sentry(basic_ostream& _Ostr) : _Sentry_base(_Ostr) {

	push	ebp
	mov	ebp, esp
	push	-1
	push	__ehhandler$??0sentry@?$basic_ostream@_WU?$char_traits@_W@std@@@std@@QAE@AAV12@@Z
	mov	eax, DWORD PTR fs:0
	push	eax
	sub	esp, 216				; 000000d8H
	push	ebx
	push	esi
	push	edi
	push	ecx
	lea	edi, DWORD PTR [ebp-36]
	mov	ecx, 6
	mov	eax, -858993460				; ccccccccH
	rep stosd
	pop	ecx
	mov	eax, DWORD PTR ___security_cookie
	xor	eax, ebp
	push	eax
	lea	eax, DWORD PTR __$EHRec$[ebp]
	mov	DWORD PTR fs:0, eax
	mov	DWORD PTR _this$[ebp], ecx
	mov	ecx, OFFSET __C12F3EA4_ostream
	call	@__CheckForDebuggerJustMyCode@4
	mov	eax, DWORD PTR __Ostr$[ebp]
	push	eax
	mov	ecx, DWORD PTR _this$[ebp]
	call	??0_Sentry_base@?$basic_ostream@_WU?$char_traits@_W@std@@@std@@QAE@AAV12@@Z ; std::basic_ostream<wchar_t,std::char_traits<wchar_t> >::_Sentry_base::_Sentry_base
	mov	DWORD PTR __$EHRec$[ebp+8], 0

; 92   :             if (!_Ostr.good()) {

	mov	eax, DWORD PTR __Ostr$[ebp]
	mov	ecx, DWORD PTR [eax]
	mov	edx, DWORD PTR __Ostr$[ebp]
	add	edx, DWORD PTR [ecx+4]
	mov	esi, esp
	mov	ecx, edx
	call	DWORD PTR __imp_?good@ios_base@std@@QBE_NXZ
	cmp	esi, esp
	call	__RTC_CheckEsp
	movzx	eax, al
	test	eax, eax
	jne	SHORT $LN2@sentry

; 93   :                 _Ok = false;

	mov	eax, DWORD PTR _this$[ebp]
	mov	BYTE PTR [eax+4], 0

; 94   :                 return;

	jmp	SHORT $LN1@sentry
$LN2@sentry:

; 95   :             }
; 96   : 
; 97   :             const auto _Tied = _Ostr.tie();

	mov	eax, DWORD PTR __Ostr$[ebp]
	mov	ecx, DWORD PTR [eax]
	mov	edx, DWORD PTR __Ostr$[ebp]
	add	edx, DWORD PTR [ecx+4]
	mov	esi, esp
	mov	ecx, edx
	call	DWORD PTR __imp_?tie@?$basic_ios@_WU?$char_traits@_W@std@@@std@@QBEPAV?$basic_ostream@_WU?$char_traits@_W@std@@@2@XZ
	cmp	esi, esp
	call	__RTC_CheckEsp
	mov	DWORD PTR __Tied$[ebp], eax

; 98   :             if (!_Tied || _Tied == &_Ostr) {

	cmp	DWORD PTR __Tied$[ebp], 0
	je	SHORT $LN4@sentry
	mov	eax, DWORD PTR __Tied$[ebp]
	cmp	eax, DWORD PTR __Ostr$[ebp]
	jne	SHORT $LN3@sentry
$LN4@sentry:

; 99   :                 _Ok = true;

	mov	eax, DWORD PTR _this$[ebp]
	mov	BYTE PTR [eax+4], 1

; 100  :                 return;

	jmp	SHORT $LN1@sentry
$LN3@sentry:

; 101  :             }
; 102  : 
; 103  :             _Tied->flush();

	mov	esi, esp
	mov	ecx, DWORD PTR __Tied$[ebp]
	call	DWORD PTR __imp_?flush@?$basic_ostream@_WU?$char_traits@_W@std@@@std@@QAEAAV12@XZ
	cmp	esi, esp
	call	__RTC_CheckEsp

; 104  :             _Ok = _Ostr.good(); // store test only after flushing tie

	mov	eax, DWORD PTR __Ostr$[ebp]
	mov	ecx, DWORD PTR [eax]
	mov	edx, DWORD PTR __Ostr$[ebp]
	add	edx, DWORD PTR [ecx+4]
	mov	esi, esp
	mov	ecx, edx
	call	DWORD PTR __imp_?good@ios_base@std@@QBE_NXZ
	cmp	esi, esp
	call	__RTC_CheckEsp
	mov	ecx, DWORD PTR _this$[ebp]
	mov	BYTE PTR [ecx+4], al
$LN1@sentry:

; 105  :         }

	mov	DWORD PTR __$EHRec$[ebp+8], -1
	mov	eax, DWORD PTR _this$[ebp]
	mov	ecx, DWORD PTR __$EHRec$[ebp]
	mov	DWORD PTR fs:0, ecx
	pop	ecx
	pop	edi
	pop	esi
	pop	ebx
	add	esp, 228				; 000000e4H
	cmp	ebp, esp
	call	__RTC_CheckEsp
	mov	esp, ebp
	pop	ebp
	ret	4
_TEXT	ENDS
;	COMDAT text$x
text$x	SEGMENT
__unwindfunclet$??0sentry@?$basic_ostream@_WU?$char_traits@_W@std@@@std@@QAE@AAV12@@Z$0:
	mov	ecx, DWORD PTR _this$[ebp]
	jmp	??1_Sentry_base@?$basic_ostream@_WU?$char_traits@_W@std@@@std@@QAE@XZ ; std::basic_ostream<wchar_t,std::char_traits<wchar_t> >::_Sentry_base::~_Sentry_base
	int	3
	int	3
	int	3
	int	3
	int	3
__ehhandler$??0sentry@?$basic_ostream@_WU?$char_traits@_W@std@@@std@@QAE@AAV12@@Z:
	npad	1
	npad	1
	mov	edx, DWORD PTR [esp+8]
	lea	eax, DWORD PTR [edx+12]
	mov	ecx, DWORD PTR [edx-232]
	xor	ecx, eax
	call	@__security_check_cookie@4
	mov	eax, OFFSET __ehfuncinfo$??0sentry@?$basic_ostream@_WU?$char_traits@_W@std@@@std@@QAE@AAV12@@Z
	jmp	___CxxFrameHandler3
text$x	ENDS
??0sentry@?$basic_ostream@_WU?$char_traits@_W@std@@@std@@QAE@AAV12@@Z ENDP ; std::basic_ostream<wchar_t,std::char_traits<wchar_t> >::sentry::sentry
; Function compile flags: /Odtp /RTCsu /ZI
; File C:\Program Files (x86)\Microsoft Visual Studio\2019\Community\VC\Tools\MSVC\14.29.30133\include\ostream
;	COMDAT ??1_Sentry_base@?$basic_ostream@_WU?$char_traits@_W@std@@@std@@QAE@XZ
_TEXT	SEGMENT
tv72 = -232						; size = 4
__Rdbuf$ = -32						; size = 4
_this$ = -20						; size = 4
__$EHRec$ = -12						; size = 12
??1_Sentry_base@?$basic_ostream@_WU?$char_traits@_W@std@@@std@@QAE@XZ PROC ; std::basic_ostream<wchar_t,std::char_traits<wchar_t> >::_Sentry_base::~_Sentry_base, COMDAT
; _this$ = ecx

; 77   :         __CLR_OR_THIS_CALL ~_Sentry_base() noexcept { // destroy after unlocking

	push	ebp
	mov	ebp, esp
	push	-1
	push	__ehhandler$??1_Sentry_base@?$basic_ostream@_WU?$char_traits@_W@std@@@std@@QAE@XZ
	mov	eax, DWORD PTR fs:0
	push	eax
	sub	esp, 220				; 000000dcH
	push	ebx
	push	esi
	push	edi
	push	ecx
	lea	edi, DWORD PTR [ebp-40]
	mov	ecx, 7
	mov	eax, -858993460				; ccccccccH
	rep stosd
	pop	ecx
	mov	eax, DWORD PTR ___security_cookie
	xor	eax, ebp
	push	eax
	lea	eax, DWORD PTR __$EHRec$[ebp]
	mov	DWORD PTR fs:0, eax
	mov	DWORD PTR _this$[ebp], ecx
	mov	ecx, OFFSET __C12F3EA4_ostream
	call	@__CheckForDebuggerJustMyCode@4

; 78   :             const auto _Rdbuf = _Myostr.rdbuf();

	mov	eax, DWORD PTR _this$[ebp]
	mov	ecx, DWORD PTR [eax]
	mov	DWORD PTR tv72[ebp], ecx
	mov	edx, DWORD PTR tv72[ebp]
	mov	eax, DWORD PTR [edx]
	mov	ecx, DWORD PTR tv72[ebp]
	add	ecx, DWORD PTR [eax+4]
	mov	esi, esp
	call	DWORD PTR __imp_?rdbuf@?$basic_ios@_WU?$char_traits@_W@std@@@std@@QBEPAV?$basic_streambuf@_WU?$char_traits@_W@std@@@2@XZ
	cmp	esi, esp
	call	__RTC_CheckEsp
	mov	DWORD PTR __Rdbuf$[ebp], eax

; 79   :             if (_Rdbuf) {

	cmp	DWORD PTR __Rdbuf$[ebp], 0
	je	SHORT $LN3@Sentry_bas

; 80   :                 _Rdbuf->_Unlock();

	mov	eax, DWORD PTR __Rdbuf$[ebp]
	mov	edx, DWORD PTR [eax]
	mov	esi, esp
	mov	ecx, DWORD PTR __Rdbuf$[ebp]
	mov	eax, DWORD PTR [edx+8]
	call	eax
	cmp	esi, esp
	call	__RTC_CheckEsp
$LN3@Sentry_bas:

; 81   :             }
; 82   :         }

	mov	ecx, DWORD PTR __$EHRec$[ebp]
	mov	DWORD PTR fs:0, ecx
	pop	ecx
	pop	edi
	pop	esi
	pop	ebx
	add	esp, 232				; 000000e8H
	cmp	ebp, esp
	call	__RTC_CheckEsp
	mov	esp, ebp
	pop	ebp
	ret	0
	int	3
	int	3
	int	3
	int	3
	int	3
_TEXT	ENDS
;	COMDAT text$x
text$x	SEGMENT
__ehhandler$??1_Sentry_base@?$basic_ostream@_WU?$char_traits@_W@std@@@std@@QAE@XZ:
	npad	1
	npad	1
	mov	edx, DWORD PTR [esp+8]
	lea	eax, DWORD PTR [edx+12]
	mov	ecx, DWORD PTR [edx-236]
	xor	ecx, eax
	call	@__security_check_cookie@4
	mov	eax, OFFSET __ehfuncinfo$??1_Sentry_base@?$basic_ostream@_WU?$char_traits@_W@std@@@std@@QAE@XZ
	jmp	___CxxFrameHandler3
text$x	ENDS
??1_Sentry_base@?$basic_ostream@_WU?$char_traits@_W@std@@@std@@QAE@XZ ENDP ; std::basic_ostream<wchar_t,std::char_traits<wchar_t> >::_Sentry_base::~_Sentry_base
; Function compile flags: /Odtp /RTCsu /ZI
; File C:\Program Files (x86)\Microsoft Visual Studio\2019\Community\VC\Tools\MSVC\14.29.30133\include\ostream
;	COMDAT ??0_Sentry_base@?$basic_ostream@_WU?$char_traits@_W@std@@@std@@QAE@AAV12@@Z
_TEXT	SEGMENT
tv73 = -220						; size = 4
__Rdbuf$ = -20						; size = 4
_this$ = -8						; size = 4
__Ostr$ = 8						; size = 4
??0_Sentry_base@?$basic_ostream@_WU?$char_traits@_W@std@@@std@@QAE@AAV12@@Z PROC ; std::basic_ostream<wchar_t,std::char_traits<wchar_t> >::_Sentry_base::_Sentry_base, COMDAT
; _this$ = ecx

; 70   :         __CLR_OR_THIS_CALL _Sentry_base(basic_ostream& _Ostr) : _Myostr(_Ostr) { // lock the stream buffer, if there

	push	ebp
	mov	ebp, esp
	sub	esp, 220				; 000000dcH
	push	ebx
	push	esi
	push	edi
	push	ecx
	lea	edi, DWORD PTR [ebp-28]
	mov	ecx, 7
	mov	eax, -858993460				; ccccccccH
	rep stosd
	pop	ecx
	mov	DWORD PTR _this$[ebp], ecx
	mov	ecx, OFFSET __C12F3EA4_ostream
	call	@__CheckForDebuggerJustMyCode@4
	mov	eax, DWORD PTR _this$[ebp]
	mov	ecx, DWORD PTR __Ostr$[ebp]
	mov	DWORD PTR [eax], ecx

; 71   :             const auto _Rdbuf = _Myostr.rdbuf();

	mov	eax, DWORD PTR _this$[ebp]
	mov	ecx, DWORD PTR [eax]
	mov	DWORD PTR tv73[ebp], ecx
	mov	edx, DWORD PTR tv73[ebp]
	mov	eax, DWORD PTR [edx]
	mov	ecx, DWORD PTR tv73[ebp]
	add	ecx, DWORD PTR [eax+4]
	mov	esi, esp
	call	DWORD PTR __imp_?rdbuf@?$basic_ios@_WU?$char_traits@_W@std@@@std@@QBEPAV?$basic_streambuf@_WU?$char_traits@_W@std@@@2@XZ
	cmp	esi, esp
	call	__RTC_CheckEsp
	mov	DWORD PTR __Rdbuf$[ebp], eax

; 72   :             if (_Rdbuf) {

	cmp	DWORD PTR __Rdbuf$[ebp], 0
	je	SHORT $LN1@Sentry_bas

; 73   :                 _Rdbuf->_Lock();

	mov	eax, DWORD PTR __Rdbuf$[ebp]
	mov	edx, DWORD PTR [eax]
	mov	esi, esp
	mov	ecx, DWORD PTR __Rdbuf$[ebp]
	mov	eax, DWORD PTR [edx+4]
	call	eax
	cmp	esi, esp
	call	__RTC_CheckEsp
$LN1@Sentry_bas:

; 74   :             }
; 75   :         }

	mov	eax, DWORD PTR _this$[ebp]
	pop	edi
	pop	esi
	pop	ebx
	add	esp, 220				; 000000dcH
	cmp	ebp, esp
	call	__RTC_CheckEsp
	mov	esp, ebp
	pop	ebp
	ret	4
??0_Sentry_base@?$basic_ostream@_WU?$char_traits@_W@std@@@std@@QAE@AAV12@@Z ENDP ; std::basic_ostream<wchar_t,std::char_traits<wchar_t> >::_Sentry_base::_Sentry_base
_TEXT	ENDS
; Function compile flags: /Odtp /RTCsu /ZI
; File C:\Program Files (x86)\Microsoft Visual Studio\2019\Community\VC\Tools\MSVC\14.29.30133\include\type_traits
;	COMDAT ??$forward@ABQA_W@std@@YAABQA_WABQA_W@Z
_TEXT	SEGMENT
__Arg$ = 8						; size = 4
??$forward@ABQA_W@std@@YAABQA_WABQA_W@Z PROC		; std::forward<wchar_t * const &>, COMDAT

; 1385 :     remove_reference_t<_Ty>& _Arg) noexcept { // forward an lvalue as either an lvalue or an rvalue

	push	ebp
	mov	ebp, esp
	sub	esp, 192				; 000000c0H
	push	ebx
	push	esi
	push	edi
	mov	edi, ebp
	xor	ecx, ecx
	mov	eax, -858993460				; ccccccccH
	rep stosd
	mov	ecx, OFFSET __589FA321_type_traits
	call	@__CheckForDebuggerJustMyCode@4

; 1386 :     return static_cast<_Ty&&>(_Arg);

	mov	eax, DWORD PTR __Arg$[ebp]

; 1387 : }

	pop	edi
	pop	esi
	pop	ebx
	add	esp, 192				; 000000c0H
	cmp	ebp, esp
	call	__RTC_CheckEsp
	mov	esp, ebp
	pop	ebp
	ret	0
??$forward@ABQA_W@std@@YAABQA_WABQA_W@Z ENDP		; std::forward<wchar_t * const &>
_TEXT	ENDS
; Function compile flags: /Odtp /RTCsu /ZI
; File C:\Program Files (x86)\Microsoft Visual Studio\2019\Community\VC\Tools\MSVC\14.29.30133\include\xmemory
;	COMDAT ??$_Allocate_manually_vector_aligned@U_Default_allocate_traits@std@@@std@@YAPAXI@Z
_TEXT	SEGMENT
__Ptr$ = -32						; size = 4
__Ptr_container$ = -20					; size = 4
__Block_size$ = -8					; size = 4
__Bytes$ = 8						; size = 4
??$_Allocate_manually_vector_aligned@U_Default_allocate_traits@std@@@std@@YAPAXI@Z PROC ; std::_Allocate_manually_vector_aligned<std::_Default_allocate_traits>, COMDAT

; 127  : __declspec(allocator) void* _Allocate_manually_vector_aligned(const size_t _Bytes) {

	push	ebp
	mov	ebp, esp
	sub	esp, 228				; 000000e4H
	push	ebx
	push	esi
	push	edi
	lea	edi, DWORD PTR [ebp-36]
	mov	ecx, 9
	mov	eax, -858993460				; ccccccccH
	rep stosd
	mov	ecx, OFFSET __79D216CD_xmemory
	call	@__CheckForDebuggerJustMyCode@4

; 128  :     // allocate _Bytes manually aligned to at least _Big_allocation_alignment
; 129  :     const size_t _Block_size = _Non_user_size + _Bytes;

	mov	eax, DWORD PTR __Bytes$[ebp]
	add	eax, 39					; 00000027H
	mov	DWORD PTR __Block_size$[ebp], eax

; 130  :     if (_Block_size <= _Bytes) {

	mov	eax, DWORD PTR __Block_size$[ebp]
	cmp	eax, DWORD PTR __Bytes$[ebp]
	ja	SHORT $LN8@Allocate_m

; 131  :         _Throw_bad_array_new_length(); // add overflow

	call	?_Throw_bad_array_new_length@std@@YAXXZ	; std::_Throw_bad_array_new_length
$LN8@Allocate_m:

; 132  :     }
; 133  : 
; 134  :     const uintptr_t _Ptr_container = reinterpret_cast<uintptr_t>(_Traits::_Allocate(_Block_size));

	mov	eax, DWORD PTR __Block_size$[ebp]
	push	eax
	call	?_Allocate@_Default_allocate_traits@std@@SAPAXI@Z ; std::_Default_allocate_traits::_Allocate
	add	esp, 4
	mov	DWORD PTR __Ptr_container$[ebp], eax
$LN4@Allocate_m:

; 135  :     _STL_VERIFY(_Ptr_container != 0, "invalid argument"); // validate even in release since we're doing p[-1]

	cmp	DWORD PTR __Ptr_container$[ebp], 0
	je	SHORT $LN7@Allocate_m
	jmp	SHORT $LN2@Allocate_m
$LN7@Allocate_m:
	mov	esi, esp
	push	OFFSET ??_C@_0BB@FCMFBGOM@invalid?5argument@
	push	OFFSET ??_C@_02DKCKIIND@?$CFs@
	push	0
	push	135					; 00000087H
	push	OFFSET ??_C@_0GI@MNEMJBML@C?3?2Program?5Files?5?$CIx86?$CJ?2Microsof@
	push	2
	call	DWORD PTR __imp___CrtDbgReport
	add	esp, 24					; 00000018H
	cmp	esi, esp
	call	__RTC_CheckEsp
	cmp	eax, 1
	jne	SHORT $LN12@Allocate_m
	int	3
$LN12@Allocate_m:
	mov	esi, esp
	push	0
	push	135					; 00000087H
	push	OFFSET ??_C@_1NA@MJBOBEJL@?$AAC?$AA?3?$AA?2?$AAP?$AAr?$AAo?$AAg?$AAr?$AAa?$AAm?$AA?5?$AAF?$AAi?$AAl?$AAe@
	push	OFFSET ??_C@_11LOCGONAA@@
	push	OFFSET ??_C@_1CG@JNLFBNGN@?$AA?$CC?$AAi?$AAn?$AAv?$AAa?$AAl?$AAi?$AAd?$AA?5?$AAa?$AAr?$AAg?$AAu?$AAm?$AAe@
	call	DWORD PTR __imp___invalid_parameter
	add	esp, 20					; 00000014H
	cmp	esi, esp
	call	__RTC_CheckEsp
	xor	eax, eax
	jne	SHORT $LN7@Allocate_m
$LN2@Allocate_m:
	xor	eax, eax
	jne	SHORT $LN4@Allocate_m

; 136  :     void* const _Ptr = reinterpret_cast<void*>((_Ptr_container + _Non_user_size) & ~(_Big_allocation_alignment - 1));

	mov	eax, DWORD PTR __Ptr_container$[ebp]
	add	eax, 39					; 00000027H
	and	eax, -32				; ffffffe0H
	mov	DWORD PTR __Ptr$[ebp], eax

; 137  :     static_cast<uintptr_t*>(_Ptr)[-1] = _Ptr_container;

	mov	eax, 4
	imul	ecx, eax, -1
	mov	edx, DWORD PTR __Ptr$[ebp]
	mov	eax, DWORD PTR __Ptr_container$[ebp]
	mov	DWORD PTR [edx+ecx], eax

; 138  : 
; 139  : #ifdef _DEBUG
; 140  :     static_cast<uintptr_t*>(_Ptr)[-2] = _Big_allocation_sentinel;

	mov	eax, 4
	imul	ecx, eax, -2
	mov	edx, DWORD PTR __Ptr$[ebp]
	mov	DWORD PTR [edx+ecx], -84215046		; fafafafaH

; 141  : #endif // _DEBUG
; 142  :     return _Ptr;

	mov	eax, DWORD PTR __Ptr$[ebp]
$LN11@Allocate_m:

; 143  : }

	pop	edi
	pop	esi
	pop	ebx
	add	esp, 228				; 000000e4H
	cmp	ebp, esp
	call	__RTC_CheckEsp
	mov	esp, ebp
	pop	ebp
	ret	0
??$_Allocate_manually_vector_aligned@U_Default_allocate_traits@std@@@std@@YAPAXI@Z ENDP ; std::_Allocate_manually_vector_aligned<std::_Default_allocate_traits>
_TEXT	ENDS
; Function compile flags: /Odtp /RTCsu /ZI
; File C:\Program Files (x86)\Microsoft Visual Studio\2019\Community\VC\Tools\MSVC\14.29.30133\include\type_traits
;	COMDAT ??$forward@AAPAD@std@@YAAAPADAAPAD@Z
_TEXT	SEGMENT
__Arg$ = 8						; size = 4
??$forward@AAPAD@std@@YAAAPADAAPAD@Z PROC		; std::forward<char * &>, COMDAT

; 1385 :     remove_reference_t<_Ty>& _Arg) noexcept { // forward an lvalue as either an lvalue or an rvalue

	push	ebp
	mov	ebp, esp
	sub	esp, 192				; 000000c0H
	push	ebx
	push	esi
	push	edi
	mov	edi, ebp
	xor	ecx, ecx
	mov	eax, -858993460				; ccccccccH
	rep stosd
	mov	ecx, OFFSET __589FA321_type_traits
	call	@__CheckForDebuggerJustMyCode@4

; 1386 :     return static_cast<_Ty&&>(_Arg);

	mov	eax, DWORD PTR __Arg$[ebp]

; 1387 : }

	pop	edi
	pop	esi
	pop	ebx
	add	esp, 192				; 000000c0H
	cmp	ebp, esp
	call	__RTC_CheckEsp
	mov	esp, ebp
	pop	ebp
	ret	0
??$forward@AAPAD@std@@YAAAPADAAPAD@Z ENDP		; std::forward<char * &>
_TEXT	ENDS
; Function compile flags: /Odtp /RTCsu /ZI
; File C:\Program Files (x86)\Microsoft Visual Studio\2019\Community\VC\Tools\MSVC\14.29.30133\include\type_traits
;	COMDAT ??$forward@ABQAD@std@@YAABQADABQAD@Z
_TEXT	SEGMENT
__Arg$ = 8						; size = 4
??$forward@ABQAD@std@@YAABQADABQAD@Z PROC		; std::forward<char * const &>, COMDAT

; 1385 :     remove_reference_t<_Ty>& _Arg) noexcept { // forward an lvalue as either an lvalue or an rvalue

	push	ebp
	mov	ebp, esp
	sub	esp, 192				; 000000c0H
	push	ebx
	push	esi
	push	edi
	mov	edi, ebp
	xor	ecx, ecx
	mov	eax, -858993460				; ccccccccH
	rep stosd
	mov	ecx, OFFSET __589FA321_type_traits
	call	@__CheckForDebuggerJustMyCode@4

; 1386 :     return static_cast<_Ty&&>(_Arg);

	mov	eax, DWORD PTR __Arg$[ebp]

; 1387 : }

	pop	edi
	pop	esi
	pop	ebx
	add	esp, 192				; 000000c0H
	cmp	ebp, esp
	call	__RTC_CheckEsp
	mov	esp, ebp
	pop	ebp
	ret	0
??$forward@ABQAD@std@@YAABQADABQAD@Z ENDP		; std::forward<char * const &>
_TEXT	ENDS
; Function compile flags: /Odtp /RTCsu /ZI
; File C:\Program Files (x86)\Microsoft Visual Studio\2019\Community\VC\Tools\MSVC\14.29.30133\include\xutility
;	COMDAT ??$_Voidify_iter@PAPAD@std@@YAPAXPAPAD@Z
_TEXT	SEGMENT
__It$ = 8						; size = 4
??$_Voidify_iter@PAPAD@std@@YAPAXPAPAD@Z PROC		; std::_Voidify_iter<char * *>, COMDAT

; 123  : _NODISCARD constexpr void* _Voidify_iter(_Iter _It) noexcept {

	push	ebp
	mov	ebp, esp
	sub	esp, 192				; 000000c0H
	push	ebx
	push	esi
	push	edi
	mov	edi, ebp
	xor	ecx, ecx
	mov	eax, -858993460				; ccccccccH
	rep stosd
	mov	ecx, OFFSET __12269DE6_xutility
	call	@__CheckForDebuggerJustMyCode@4

; 124  :     if constexpr (is_pointer_v<_Iter>) {
; 125  :         return const_cast<void*>(static_cast<const volatile void*>(_It));

	mov	eax, DWORD PTR __It$[ebp]

; 126  :     } else {
; 127  :         return const_cast<void*>(static_cast<const volatile void*>(_STD addressof(*_It)));
; 128  :     }
; 129  : }

	pop	edi
	pop	esi
	pop	ebx
	add	esp, 192				; 000000c0H
	cmp	ebp, esp
	call	__RTC_CheckEsp
	mov	esp, ebp
	pop	ebp
	ret	0
??$_Voidify_iter@PAPAD@std@@YAPAXPAPAD@Z ENDP		; std::_Voidify_iter<char * *>
_TEXT	ENDS
; Function compile flags: /Odtp /RTCsu /ZI
; File C:\Program Files (x86)\Microsoft Visual Studio\2019\Community\VC\Tools\MSVC\14.29.30133\include\xstddef
;	COMDAT ??$addressof@PAD@std@@YAPAPADAAPAD@Z
_TEXT	SEGMENT
__Val$ = 8						; size = 4
??$addressof@PAD@std@@YAPAPADAAPAD@Z PROC		; std::addressof<char *>, COMDAT

; 252  : _NODISCARD constexpr _Ty* addressof(_Ty& _Val) noexcept {

	push	ebp
	mov	ebp, esp
	sub	esp, 192				; 000000c0H
	push	ebx
	push	esi
	push	edi
	mov	edi, ebp
	xor	ecx, ecx
	mov	eax, -858993460				; ccccccccH
	rep stosd
	mov	ecx, OFFSET __E458E21C_xstddef
	call	@__CheckForDebuggerJustMyCode@4

; 253  :     return __builtin_addressof(_Val);

	mov	eax, DWORD PTR __Val$[ebp]

; 254  : }

	pop	edi
	pop	esi
	pop	ebx
	add	esp, 192				; 000000c0H
	cmp	ebp, esp
	call	__RTC_CheckEsp
	mov	esp, ebp
	pop	ebp
	ret	0
??$addressof@PAD@std@@YAPAPADAAPAD@Z ENDP		; std::addressof<char *>
_TEXT	ENDS
; Function compile flags: /Odtp /RTCsu /ZI
; File C:\Program Files (x86)\Microsoft Visual Studio\2019\Community\VC\Tools\MSVC\14.29.30133\include\type_traits
;	COMDAT ??$forward@AAPA_W@std@@YAAAPA_WAAPA_W@Z
_TEXT	SEGMENT
__Arg$ = 8						; size = 4
??$forward@AAPA_W@std@@YAAAPA_WAAPA_W@Z PROC		; std::forward<wchar_t * &>, COMDAT

; 1385 :     remove_reference_t<_Ty>& _Arg) noexcept { // forward an lvalue as either an lvalue or an rvalue

	push	ebp
	mov	ebp, esp
	sub	esp, 192				; 000000c0H
	push	ebx
	push	esi
	push	edi
	mov	edi, ebp
	xor	ecx, ecx
	mov	eax, -858993460				; ccccccccH
	rep stosd
	mov	ecx, OFFSET __589FA321_type_traits
	call	@__CheckForDebuggerJustMyCode@4

; 1386 :     return static_cast<_Ty&&>(_Arg);

	mov	eax, DWORD PTR __Arg$[ebp]

; 1387 : }

	pop	edi
	pop	esi
	pop	ebx
	add	esp, 192				; 000000c0H
	cmp	ebp, esp
	call	__RTC_CheckEsp
	mov	esp, ebp
	pop	ebp
	ret	0
??$forward@AAPA_W@std@@YAAAPA_WAAPA_W@Z ENDP		; std::forward<wchar_t * &>
_TEXT	ENDS
; Function compile flags: /Odtp /RTCsu /ZI
; File C:\Program Files (x86)\Microsoft Visual Studio\2019\Community\VC\Tools\MSVC\14.29.30133\include\xutility
;	COMDAT ??$_Voidify_iter@PAPA_W@std@@YAPAXPAPA_W@Z
_TEXT	SEGMENT
__It$ = 8						; size = 4
??$_Voidify_iter@PAPA_W@std@@YAPAXPAPA_W@Z PROC		; std::_Voidify_iter<wchar_t * *>, COMDAT

; 123  : _NODISCARD constexpr void* _Voidify_iter(_Iter _It) noexcept {

	push	ebp
	mov	ebp, esp
	sub	esp, 192				; 000000c0H
	push	ebx
	push	esi
	push	edi
	mov	edi, ebp
	xor	ecx, ecx
	mov	eax, -858993460				; ccccccccH
	rep stosd
	mov	ecx, OFFSET __12269DE6_xutility
	call	@__CheckForDebuggerJustMyCode@4

; 124  :     if constexpr (is_pointer_v<_Iter>) {
; 125  :         return const_cast<void*>(static_cast<const volatile void*>(_It));

	mov	eax, DWORD PTR __It$[ebp]

; 126  :     } else {
; 127  :         return const_cast<void*>(static_cast<const volatile void*>(_STD addressof(*_It)));
; 128  :     }
; 129  : }

	pop	edi
	pop	esi
	pop	ebx
	add	esp, 192				; 000000c0H
	cmp	ebp, esp
	call	__RTC_CheckEsp
	mov	esp, ebp
	pop	ebp
	ret	0
??$_Voidify_iter@PAPA_W@std@@YAPAXPAPA_W@Z ENDP		; std::_Voidify_iter<wchar_t * *>
_TEXT	ENDS
; Function compile flags: /Odtp /RTCsu /ZI
; File C:\Program Files (x86)\Microsoft Visual Studio\2019\Community\VC\Tools\MSVC\14.29.30133\include\xstddef
;	COMDAT ??$addressof@PA_W@std@@YAPAPA_WAAPA_W@Z
_TEXT	SEGMENT
__Val$ = 8						; size = 4
??$addressof@PA_W@std@@YAPAPA_WAAPA_W@Z PROC		; std::addressof<wchar_t *>, COMDAT

; 252  : _NODISCARD constexpr _Ty* addressof(_Ty& _Val) noexcept {

	push	ebp
	mov	ebp, esp
	sub	esp, 192				; 000000c0H
	push	ebx
	push	esi
	push	edi
	mov	edi, ebp
	xor	ecx, ecx
	mov	eax, -858993460				; ccccccccH
	rep stosd
	mov	ecx, OFFSET __E458E21C_xstddef
	call	@__CheckForDebuggerJustMyCode@4

; 253  :     return __builtin_addressof(_Val);

	mov	eax, DWORD PTR __Val$[ebp]

; 254  : }

	pop	edi
	pop	esi
	pop	ebx
	add	esp, 192				; 000000c0H
	cmp	ebp, esp
	call	__RTC_CheckEsp
	mov	esp, ebp
	pop	ebp
	ret	0
??$addressof@PA_W@std@@YAPAPA_WAAPA_W@Z ENDP		; std::addressof<wchar_t *>
_TEXT	ENDS
; Function compile flags: /Odtp /RTCsu /ZI
; File C:\Program Files (x86)\Microsoft Visual Studio\2019\Community\VC\Tools\MSVC\14.29.30133\include\xutility
;	COMDAT ??$_Construct_in_place@PA_SABQA_S@std@@YAXAAPA_SABQA_S@Z
_TEXT	SEGMENT
$T1 = -200						; size = 4
__Obj$ = 8						; size = 4
_<_Args_0>$ = 12					; size = 4
??$_Construct_in_place@PA_SABQA_S@std@@YAXAAPA_SABQA_S@Z PROC ; std::_Construct_in_place<char16_t *,char16_t * const &>, COMDAT

; 142  :     is_nothrow_constructible_v<_Ty, _Types...>) {

	push	ebp
	mov	ebp, esp
	sub	esp, 204				; 000000ccH
	push	ebx
	push	esi
	push	edi
	lea	edi, DWORD PTR [ebp-12]
	mov	ecx, 3
	mov	eax, -858993460				; ccccccccH
	rep stosd
	mov	ecx, OFFSET __12269DE6_xutility
	call	@__CheckForDebuggerJustMyCode@4
	mov	eax, DWORD PTR __Obj$[ebp]
	push	eax
	call	??$addressof@PA_S@std@@YAPAPA_SAAPA_S@Z	; std::addressof<char16_t *>
	add	esp, 4
	push	eax
	call	??$_Voidify_iter@PAPA_S@std@@YAPAXPAPA_S@Z ; std::_Voidify_iter<char16_t * *>
	add	esp, 4
	push	eax
	push	4
	call	??2@YAPAXIPAX@Z				; operator new
	add	esp, 8
	mov	DWORD PTR $T1[ebp], eax
	mov	ecx, DWORD PTR _<_Args_0>$[ebp]
	push	ecx
	call	??$forward@ABQA_S@std@@YAABQA_SABQA_S@Z	; std::forward<char16_t * const &>
	add	esp, 4
	mov	edx, DWORD PTR $T1[ebp]
	mov	eax, DWORD PTR [eax]
	mov	DWORD PTR [edx], eax

; 143  : #ifdef __cpp_lib_constexpr_dynamic_alloc
; 144  :     if (_STD is_constant_evaluated()) {
; 145  :         _STD construct_at(_STD addressof(_Obj), _STD forward<_Types>(_Args)...);
; 146  :     } else
; 147  : #endif // __cpp_lib_constexpr_dynamic_alloc
; 148  :     {
; 149  :         ::new (_Voidify_iter(_STD addressof(_Obj))) _Ty(_STD forward<_Types>(_Args)...);
; 150  :     }
; 151  : }

	pop	edi
	pop	esi
	pop	ebx
	add	esp, 204				; 000000ccH
	cmp	ebp, esp
	call	__RTC_CheckEsp
	mov	esp, ebp
	pop	ebp
	ret	0
??$_Construct_in_place@PA_SABQA_S@std@@YAXAAPA_SABQA_S@Z ENDP ; std::_Construct_in_place<char16_t *,char16_t * const &>
_TEXT	ENDS
; Function compile flags: /Odtp /RTCsu /ZI
; File C:\Program Files (x86)\Microsoft Visual Studio\2019\Community\VC\Tools\MSVC\14.29.30133\include\xutility
;	COMDAT ??$_Construct_in_place@PA_UABQA_U@std@@YAXAAPA_UABQA_U@Z
_TEXT	SEGMENT
$T1 = -200						; size = 4
__Obj$ = 8						; size = 4
_<_Args_0>$ = 12					; size = 4
??$_Construct_in_place@PA_UABQA_U@std@@YAXAAPA_UABQA_U@Z PROC ; std::_Construct_in_place<char32_t *,char32_t * const &>, COMDAT

; 142  :     is_nothrow_constructible_v<_Ty, _Types...>) {

	push	ebp
	mov	ebp, esp
	sub	esp, 204				; 000000ccH
	push	ebx
	push	esi
	push	edi
	lea	edi, DWORD PTR [ebp-12]
	mov	ecx, 3
	mov	eax, -858993460				; ccccccccH
	rep stosd
	mov	ecx, OFFSET __12269DE6_xutility
	call	@__CheckForDebuggerJustMyCode@4
	mov	eax, DWORD PTR __Obj$[ebp]
	push	eax
	call	??$addressof@PA_U@std@@YAPAPA_UAAPA_U@Z	; std::addressof<char32_t *>
	add	esp, 4
	push	eax
	call	??$_Voidify_iter@PAPA_U@std@@YAPAXPAPA_U@Z ; std::_Voidify_iter<char32_t * *>
	add	esp, 4
	push	eax
	push	4
	call	??2@YAPAXIPAX@Z				; operator new
	add	esp, 8
	mov	DWORD PTR $T1[ebp], eax
	mov	ecx, DWORD PTR _<_Args_0>$[ebp]
	push	ecx
	call	??$forward@ABQA_U@std@@YAABQA_UABQA_U@Z	; std::forward<char32_t * const &>
	add	esp, 4
	mov	edx, DWORD PTR $T1[ebp]
	mov	eax, DWORD PTR [eax]
	mov	DWORD PTR [edx], eax

; 143  : #ifdef __cpp_lib_constexpr_dynamic_alloc
; 144  :     if (_STD is_constant_evaluated()) {
; 145  :         _STD construct_at(_STD addressof(_Obj), _STD forward<_Types>(_Args)...);
; 146  :     } else
; 147  : #endif // __cpp_lib_constexpr_dynamic_alloc
; 148  :     {
; 149  :         ::new (_Voidify_iter(_STD addressof(_Obj))) _Ty(_STD forward<_Types>(_Args)...);
; 150  :     }
; 151  : }

	pop	edi
	pop	esi
	pop	ebx
	add	esp, 204				; 000000ccH
	cmp	ebp, esp
	call	__RTC_CheckEsp
	mov	esp, ebp
	pop	ebp
	ret	0
??$_Construct_in_place@PA_UABQA_U@std@@YAXAAPA_UABQA_U@Z ENDP ; std::_Construct_in_place<char32_t *,char32_t * const &>
_TEXT	ENDS
; Function compile flags: /Odtp /RTCsu /ZI
; File C:\Program Files (x86)\Microsoft Visual Studio\2019\Community\VC\Tools\MSVC\14.29.30133\include\type_traits
;	COMDAT ??$forward@V?$allocator@D@std@@@std@@YA$$QAV?$allocator@D@0@AAV10@@Z
_TEXT	SEGMENT
__Arg$ = 8						; size = 4
??$forward@V?$allocator@D@std@@@std@@YA$$QAV?$allocator@D@0@AAV10@@Z PROC ; std::forward<std::allocator<char> >, COMDAT

; 1385 :     remove_reference_t<_Ty>& _Arg) noexcept { // forward an lvalue as either an lvalue or an rvalue

	push	ebp
	mov	ebp, esp
	sub	esp, 192				; 000000c0H
	push	ebx
	push	esi
	push	edi
	mov	edi, ebp
	xor	ecx, ecx
	mov	eax, -858993460				; ccccccccH
	rep stosd
	mov	ecx, OFFSET __589FA321_type_traits
	call	@__CheckForDebuggerJustMyCode@4

; 1386 :     return static_cast<_Ty&&>(_Arg);

	mov	eax, DWORD PTR __Arg$[ebp]

; 1387 : }

	pop	edi
	pop	esi
	pop	ebx
	add	esp, 192				; 000000c0H
	cmp	ebp, esp
	call	__RTC_CheckEsp
	mov	esp, ebp
	pop	ebp
	ret	0
??$forward@V?$allocator@D@std@@@std@@YA$$QAV?$allocator@D@0@AAV10@@Z ENDP ; std::forward<std::allocator<char> >
_TEXT	ENDS
; Function compile flags: /Odtp /RTCsu /ZI
; File C:\Program Files (x86)\Microsoft Visual Studio\2019\Community\VC\Tools\MSVC\14.29.30133\include\type_traits
;	COMDAT ??$forward@V?$allocator@_W@std@@@std@@YA$$QAV?$allocator@_W@0@AAV10@@Z
_TEXT	SEGMENT
__Arg$ = 8						; size = 4
??$forward@V?$allocator@_W@std@@@std@@YA$$QAV?$allocator@_W@0@AAV10@@Z PROC ; std::forward<std::allocator<wchar_t> >, COMDAT

; 1385 :     remove_reference_t<_Ty>& _Arg) noexcept { // forward an lvalue as either an lvalue or an rvalue

	push	ebp
	mov	ebp, esp
	sub	esp, 192				; 000000c0H
	push	ebx
	push	esi
	push	edi
	mov	edi, ebp
	xor	ecx, ecx
	mov	eax, -858993460				; ccccccccH
	rep stosd
	mov	ecx, OFFSET __589FA321_type_traits
	call	@__CheckForDebuggerJustMyCode@4

; 1386 :     return static_cast<_Ty&&>(_Arg);

	mov	eax, DWORD PTR __Arg$[ebp]

; 1387 : }

	pop	edi
	pop	esi
	pop	ebx
	add	esp, 192				; 000000c0H
	cmp	ebp, esp
	call	__RTC_CheckEsp
	mov	esp, ebp
	pop	ebp
	ret	0
??$forward@V?$allocator@_W@std@@@std@@YA$$QAV?$allocator@_W@0@AAV10@@Z ENDP ; std::forward<std::allocator<wchar_t> >
_TEXT	ENDS
; Function compile flags: /Odtp /RTCsu /ZI
; File C:\Program Files (x86)\Microsoft Visual Studio\2019\Community\VC\Tools\MSVC\14.29.30133\include\xmemory
;	COMDAT ??$_Deallocate_plain@V?$allocator@U_Container_proxy@std@@@std@@@std@@YAXAAV?$allocator@U_Container_proxy@std@@@0@QAU_Container_proxy@0@@Z
_TEXT	SEGMENT
__$EHRec$ = -12						; size = 12
__Al$ = 8						; size = 4
__Ptr$ = 12						; size = 4
??$_Deallocate_plain@V?$allocator@U_Container_proxy@std@@@std@@@std@@YAXAAV?$allocator@U_Container_proxy@std@@@0@QAU_Container_proxy@0@@Z PROC ; std::_Deallocate_plain<std::allocator<std::_Container_proxy> >, COMDAT

; 933  : _CONSTEXPR20_DYNALLOC void _Deallocate_plain(_Alloc& _Al, typename _Alloc::value_type* const _Ptr) noexcept {

	push	ebp
	mov	ebp, esp
	push	-1
	push	__ehhandler$??$_Deallocate_plain@V?$allocator@U_Container_proxy@std@@@std@@@std@@YAXAAV?$allocator@U_Container_proxy@std@@@0@QAU_Container_proxy@0@@Z
	mov	eax, DWORD PTR fs:0
	push	eax
	sub	esp, 192				; 000000c0H
	push	ebx
	push	esi
	push	edi
	lea	edi, DWORD PTR [ebp-12]
	xor	ecx, ecx
	mov	eax, -858993460				; ccccccccH
	rep stosd
	mov	eax, DWORD PTR ___security_cookie
	xor	eax, ebp
	push	eax
	lea	eax, DWORD PTR __$EHRec$[ebp]
	mov	DWORD PTR fs:0, eax
	mov	ecx, OFFSET __79D216CD_xmemory
	call	@__CheckForDebuggerJustMyCode@4

; 934  :     // deallocate a plain pointer using an allocator
; 935  :     using _Alloc_traits = allocator_traits<_Alloc>;
; 936  :     if constexpr (is_same_v<_Alloc_ptr_t<_Alloc>, typename _Alloc::value_type*>) {
; 937  :         _Alloc_traits::deallocate(_Al, _Ptr, 1);

	push	1
	mov	eax, DWORD PTR __Ptr$[ebp]
	push	eax
	mov	ecx, DWORD PTR __Al$[ebp]
	push	ecx
	call	?deallocate@?$_Default_allocator_traits@V?$allocator@U_Container_proxy@std@@@std@@@std@@SAXAAV?$allocator@U_Container_proxy@std@@@2@QAU_Container_proxy@2@I@Z ; std::_Default_allocator_traits<std::allocator<std::_Container_proxy> >::deallocate
	add	esp, 12					; 0000000cH

; 938  :     } else {
; 939  :         using _Ptr_traits = pointer_traits<_Alloc_ptr_t<_Alloc>>;
; 940  :         _Alloc_traits::deallocate(_Al, _Ptr_traits::pointer_to(*_Ptr), 1);
; 941  :     }
; 942  : }

	mov	ecx, DWORD PTR __$EHRec$[ebp]
	mov	DWORD PTR fs:0, ecx
	pop	ecx
	pop	edi
	pop	esi
	pop	ebx
	add	esp, 204				; 000000ccH
	cmp	ebp, esp
	call	__RTC_CheckEsp
	mov	esp, ebp
	pop	ebp
	ret	0
	int	3
	int	3
	int	3
	int	3
	int	3
_TEXT	ENDS
;	COMDAT text$x
text$x	SEGMENT
__ehhandler$??$_Deallocate_plain@V?$allocator@U_Container_proxy@std@@@std@@@std@@YAXAAV?$allocator@U_Container_proxy@std@@@0@QAU_Container_proxy@0@@Z:
	npad	1
	npad	1
	mov	edx, DWORD PTR [esp+8]
	lea	eax, DWORD PTR [edx+12]
	mov	ecx, DWORD PTR [edx-208]
	xor	ecx, eax
	call	@__security_check_cookie@4
	mov	eax, OFFSET __ehfuncinfo$??$_Deallocate_plain@V?$allocator@U_Container_proxy@std@@@std@@@std@@YAXAAV?$allocator@U_Container_proxy@std@@@0@QAU_Container_proxy@0@@Z
	jmp	___CxxFrameHandler3
text$x	ENDS
??$_Deallocate_plain@V?$allocator@U_Container_proxy@std@@@std@@@std@@YAXAAV?$allocator@U_Container_proxy@std@@@0@QAU_Container_proxy@0@@Z ENDP ; std::_Deallocate_plain<std::allocator<std::_Container_proxy> >
; Function compile flags: /Odtp /RTCsu /ZI
; File C:\Program Files (x86)\Microsoft Visual Studio\2019\Community\VC\Tools\MSVC\14.29.30133\include\xstring
;	COMDAT ??$_Insert_string@_WU?$char_traits@_W@std@@I@std@@YAAAV?$basic_ostream@_WU?$char_traits@_W@std@@@0@AAV10@QB_WI@Z
_TEXT	SEGMENT
tv405 = -332						; size = 8
tv287 = -324						; size = 8
tv290 = -322						; size = 2
tv285 = -322						; size = 2
tv324 = -320						; size = 8
tv289 = -320						; size = 4
tv284 = -320						; size = 4
tv286 = -316						; size = 4
tv135 = -316						; size = 4
tv288 = -314						; size = 2
tv283 = -314						; size = 2
$T2 = -308						; size = 4
$T3 = -294						; size = 2
$T4 = -282						; size = 2
$T5 = -270						; size = 2
$T6 = -258						; size = 2
__Ok$ = -56						; size = 8
__Pad$ = -40						; size = 4
__State$ = -28						; size = 4
__$ArrayPad$ = -20					; size = 4
__$EHRec$ = -16						; size = 16
__Ostr$ = 8						; size = 4
__Data$ = 12						; size = 4
__Size$ = 16						; size = 4
??$_Insert_string@_WU?$char_traits@_W@std@@I@std@@YAAAV?$basic_ostream@_WU?$char_traits@_W@std@@@0@AAV10@QB_WI@Z PROC ; std::_Insert_string<wchar_t,std::char_traits<wchar_t>,unsigned int>, COMDAT

; 491  :     basic_ostream<_Elem, _Traits>& _Ostr, const _Elem* const _Data, const _SizeT _Size) {

	push	ebp
	mov	ebp, esp
	push	-1
	push	__ehhandler$??$_Insert_string@_WU?$char_traits@_W@std@@I@std@@YAAAV?$basic_ostream@_WU?$char_traits@_W@std@@@0@AAV10@QB_WI@Z
	mov	eax, DWORD PTR fs:0
	push	eax
	push	ecx
	sub	esp, 316				; 0000013cH
	push	ebx
	push	esi
	push	edi
	lea	edi, DWORD PTR [ebp-140]
	mov	ecx, 31					; 0000001fH
	mov	eax, -858993460				; ccccccccH
	rep stosd
	mov	eax, DWORD PTR ___security_cookie
	xor	eax, ebp
	mov	DWORD PTR __$ArrayPad$[ebp], eax
	push	eax
	lea	eax, DWORD PTR __$EHRec$[ebp+4]
	mov	DWORD PTR fs:0, eax
	mov	DWORD PTR __$EHRec$[ebp], esp
	mov	ecx, OFFSET __0D019051_xstring
	call	@__CheckForDebuggerJustMyCode@4

; 492  :     // insert a character-type sequence into _Ostr as if through a basic_string copy
; 493  :     using _Ostr_t                    = basic_ostream<_Elem, _Traits>;
; 494  :     typename _Ostr_t::iostate _State = _Ostr_t::goodbit;

	mov	DWORD PTR __State$[ebp], 0

; 495  : 
; 496  :     _SizeT _Pad;
; 497  :     if (_Ostr.width() <= 0 || static_cast<_SizeT>(_Ostr.width()) <= _Size) {

	mov	eax, DWORD PTR __Ostr$[ebp]
	mov	ecx, DWORD PTR [eax]
	mov	edx, DWORD PTR __Ostr$[ebp]
	add	edx, DWORD PTR [ecx+4]
	mov	esi, esp
	mov	ecx, edx
	call	DWORD PTR __imp_?width@ios_base@std@@QBE_JXZ
	cmp	esi, esp
	call	__RTC_CheckEsp
	mov	DWORD PTR tv324[ebp], eax
	mov	DWORD PTR tv324[ebp+4], edx
	cmp	DWORD PTR tv324[ebp+4], 0
	jl	SHORT $LN10@Insert_str
	jg	SHORT $LN25@Insert_str
	cmp	DWORD PTR tv324[ebp], 0
	jbe	SHORT $LN10@Insert_str
$LN25@Insert_str:
	mov	eax, DWORD PTR __Ostr$[ebp]
	mov	ecx, DWORD PTR [eax]
	mov	edx, DWORD PTR __Ostr$[ebp]
	add	edx, DWORD PTR [ecx+4]
	mov	esi, esp
	mov	ecx, edx
	call	DWORD PTR __imp_?width@ios_base@std@@QBE_JXZ
	cmp	esi, esp
	call	__RTC_CheckEsp
	cmp	eax, DWORD PTR __Size$[ebp]
	ja	SHORT $LN8@Insert_str
$LN10@Insert_str:

; 498  :         _Pad = 0;

	mov	DWORD PTR __Pad$[ebp], 0

; 499  :     } else {

	jmp	SHORT $LN9@Insert_str
$LN8@Insert_str:

; 500  :         _Pad = static_cast<_SizeT>(_Ostr.width()) - _Size;

	mov	eax, DWORD PTR __Ostr$[ebp]
	mov	ecx, DWORD PTR [eax]
	mov	edx, DWORD PTR __Ostr$[ebp]
	add	edx, DWORD PTR [ecx+4]
	mov	esi, esp
	mov	ecx, edx
	call	DWORD PTR __imp_?width@ios_base@std@@QBE_JXZ
	cmp	esi, esp
	call	__RTC_CheckEsp
	sub	eax, DWORD PTR __Size$[ebp]
	mov	DWORD PTR __Pad$[ebp], eax
$LN9@Insert_str:

; 501  :     }
; 502  : 
; 503  :     const typename _Ostr_t::sentry _Ok(_Ostr);

	mov	eax, DWORD PTR __Ostr$[ebp]
	push	eax
	lea	ecx, DWORD PTR __Ok$[ebp]
	call	??0sentry@?$basic_ostream@_WU?$char_traits@_W@std@@@std@@QAE@AAV12@@Z ; std::basic_ostream<wchar_t,std::char_traits<wchar_t> >::sentry::sentry
	mov	DWORD PTR __$EHRec$[ebp+12], 0

; 504  : 
; 505  :     if (!_Ok) {

	lea	ecx, DWORD PTR __Ok$[ebp]
	call	??Bsentry@?$basic_ostream@_WU?$char_traits@_W@std@@@std@@QBE_NXZ ; std::basic_ostream<wchar_t,std::char_traits<wchar_t> >::sentry::operator bool
	movzx	eax, al
	test	eax, eax
	jne	SHORT $LN11@Insert_str

; 506  :         _State |= _Ostr_t::badbit;

	mov	eax, DWORD PTR __State$[ebp]
	or	eax, 4
	mov	DWORD PTR __State$[ebp], eax

; 507  :     } else { // state okay, insert characters

	jmp	$LN12@Insert_str
$LN11@Insert_str:

; 508  :         _TRY_IO_BEGIN

	mov	BYTE PTR __$EHRec$[ebp+12], 1

; 509  :         if ((_Ostr.flags() & _Ostr_t::adjustfield) != _Ostr_t::left) {

	mov	eax, DWORD PTR __Ostr$[ebp]
	mov	ecx, DWORD PTR [eax]
	mov	edx, DWORD PTR __Ostr$[ebp]
	add	edx, DWORD PTR [ecx+4]
	mov	esi, esp
	mov	ecx, edx
	call	DWORD PTR __imp_?flags@ios_base@std@@QBEHXZ
	cmp	esi, esp
	call	__RTC_CheckEsp
	mov	DWORD PTR tv135[ebp], eax
	mov	eax, DWORD PTR tv135[ebp]
	and	eax, 448				; 000001c0H
	cmp	eax, 64					; 00000040H
	je	$LN14@Insert_str

; 510  :             for (; 0 < _Pad; --_Pad) { // pad on left

	jmp	SHORT $LN4@Insert_str
$LN2@Insert_str:
	mov	eax, DWORD PTR __Pad$[ebp]
	sub	eax, 1
	mov	DWORD PTR __Pad$[ebp], eax
$LN4@Insert_str:
	cmp	DWORD PTR __Pad$[ebp], 0
	jbe	$LN14@Insert_str

; 511  :                 if (_Traits::eq_int_type(_Traits::eof(), _Ostr.rdbuf()->sputc(_Ostr.fill()))) {

	mov	eax, DWORD PTR __Ostr$[ebp]
	mov	ecx, DWORD PTR [eax]
	mov	edx, DWORD PTR __Ostr$[ebp]
	add	edx, DWORD PTR [ecx+4]
	mov	esi, esp
	mov	ecx, edx
	call	DWORD PTR __imp_?fill@?$basic_ios@_WU?$char_traits@_W@std@@@std@@QBE_WXZ
	cmp	esi, esp
	call	__RTC_CheckEsp
	mov	WORD PTR tv283[ebp], ax
	mov	eax, DWORD PTR __Ostr$[ebp]
	mov	ecx, DWORD PTR [eax]
	mov	edx, DWORD PTR __Ostr$[ebp]
	add	edx, DWORD PTR [ecx+4]
	mov	esi, esp
	mov	ecx, edx
	call	DWORD PTR __imp_?rdbuf@?$basic_ios@_WU?$char_traits@_W@std@@@std@@QBEPAV?$basic_streambuf@_WU?$char_traits@_W@std@@@2@XZ
	cmp	esi, esp
	call	__RTC_CheckEsp
	mov	DWORD PTR tv284[ebp], eax
	mov	esi, esp
	movzx	eax, WORD PTR tv283[ebp]
	push	eax
	mov	ecx, DWORD PTR tv284[ebp]
	call	DWORD PTR __imp_?sputc@?$basic_streambuf@_WU?$char_traits@_W@std@@@std@@QAEG_W@Z
	cmp	esi, esp
	call	__RTC_CheckEsp
	mov	WORD PTR tv285[ebp], ax
	mov	cx, WORD PTR tv285[ebp]
	mov	WORD PTR $T6[ebp], cx
	call	?eof@?$_WChar_traits@_W@std@@SAGXZ	; std::_WChar_traits<wchar_t>::eof
	mov	WORD PTR $T5[ebp], ax
	lea	edx, DWORD PTR $T6[ebp]
	push	edx
	lea	eax, DWORD PTR $T5[ebp]
	push	eax
	call	?eq_int_type@?$_WChar_traits@_W@std@@SA_NABG0@Z ; std::_WChar_traits<wchar_t>::eq_int_type
	add	esp, 8
	movzx	ecx, al
	test	ecx, ecx
	je	SHORT $LN15@Insert_str

; 512  :                     _State |= _Ostr_t::badbit; // insertion failed, quit

	mov	eax, DWORD PTR __State$[ebp]
	or	eax, 4
	mov	DWORD PTR __State$[ebp], eax

; 513  :                     break;

	jmp	SHORT $LN14@Insert_str
$LN15@Insert_str:

; 514  :                 }
; 515  :             }

	jmp	$LN2@Insert_str
$LN14@Insert_str:

; 516  :         }
; 517  : 
; 518  :         if (_State == _Ostr_t::goodbit
; 519  :             && _Ostr.rdbuf()->sputn(_Data, static_cast<streamsize>(_Size)) != static_cast<streamsize>(_Size)) {

	cmp	DWORD PTR __State$[ebp], 0
	jne	$LN16@Insert_str
	mov	eax, DWORD PTR __Ostr$[ebp]
	mov	ecx, DWORD PTR [eax]
	mov	edx, DWORD PTR __Ostr$[ebp]
	add	edx, DWORD PTR [ecx+4]
	mov	esi, esp
	mov	ecx, edx
	call	DWORD PTR __imp_?rdbuf@?$basic_ios@_WU?$char_traits@_W@std@@@std@@QBEPAV?$basic_streambuf@_WU?$char_traits@_W@std@@@2@XZ
	cmp	esi, esp
	call	__RTC_CheckEsp
	mov	DWORD PTR tv286[ebp], eax
	mov	eax, DWORD PTR __Size$[ebp]
	xor	ecx, ecx
	mov	esi, esp
	push	ecx
	push	eax
	mov	edx, DWORD PTR __Data$[ebp]
	push	edx
	mov	ecx, DWORD PTR tv286[ebp]
	call	DWORD PTR __imp_?sputn@?$basic_streambuf@_WU?$char_traits@_W@std@@@std@@QAE_JPB_W_J@Z
	cmp	esi, esp
	call	__RTC_CheckEsp
	mov	DWORD PTR tv287[ebp], eax
	mov	DWORD PTR tv287[ebp+4], edx
	mov	eax, DWORD PTR __Size$[ebp]
	xor	ecx, ecx
	mov	DWORD PTR tv405[ebp], eax
	mov	DWORD PTR tv405[ebp+4], ecx
	mov	edx, DWORD PTR tv287[ebp]
	cmp	edx, DWORD PTR tv405[ebp]
	jne	SHORT $LN26@Insert_str
	mov	eax, DWORD PTR tv287[ebp+4]
	cmp	eax, DWORD PTR tv405[ebp+4]
	je	SHORT $LN16@Insert_str
$LN26@Insert_str:

; 520  :             _State |= _Ostr_t::badbit;

	mov	eax, DWORD PTR __State$[ebp]
	or	eax, 4
	mov	DWORD PTR __State$[ebp], eax

; 521  :         } else {

	jmp	$LN17@Insert_str
$LN16@Insert_str:

; 522  :             for (; 0 < _Pad; --_Pad) { // pad on right

	jmp	SHORT $LN7@Insert_str
$LN5@Insert_str:
	mov	eax, DWORD PTR __Pad$[ebp]
	sub	eax, 1
	mov	DWORD PTR __Pad$[ebp], eax
$LN7@Insert_str:
	cmp	DWORD PTR __Pad$[ebp], 0
	jbe	$LN17@Insert_str

; 523  :                 if (_Traits::eq_int_type(_Traits::eof(), _Ostr.rdbuf()->sputc(_Ostr.fill()))) {

	mov	eax, DWORD PTR __Ostr$[ebp]
	mov	ecx, DWORD PTR [eax]
	mov	edx, DWORD PTR __Ostr$[ebp]
	add	edx, DWORD PTR [ecx+4]
	mov	esi, esp
	mov	ecx, edx
	call	DWORD PTR __imp_?fill@?$basic_ios@_WU?$char_traits@_W@std@@@std@@QBE_WXZ
	cmp	esi, esp
	call	__RTC_CheckEsp
	mov	WORD PTR tv288[ebp], ax
	mov	eax, DWORD PTR __Ostr$[ebp]
	mov	ecx, DWORD PTR [eax]
	mov	edx, DWORD PTR __Ostr$[ebp]
	add	edx, DWORD PTR [ecx+4]
	mov	esi, esp
	mov	ecx, edx
	call	DWORD PTR __imp_?rdbuf@?$basic_ios@_WU?$char_traits@_W@std@@@std@@QBEPAV?$basic_streambuf@_WU?$char_traits@_W@std@@@2@XZ
	cmp	esi, esp
	call	__RTC_CheckEsp
	mov	DWORD PTR tv289[ebp], eax
	mov	esi, esp
	movzx	eax, WORD PTR tv288[ebp]
	push	eax
	mov	ecx, DWORD PTR tv289[ebp]
	call	DWORD PTR __imp_?sputc@?$basic_streambuf@_WU?$char_traits@_W@std@@@std@@QAEG_W@Z
	cmp	esi, esp
	call	__RTC_CheckEsp
	mov	WORD PTR tv290[ebp], ax
	mov	cx, WORD PTR tv290[ebp]
	mov	WORD PTR $T4[ebp], cx
	call	?eof@?$_WChar_traits@_W@std@@SAGXZ	; std::_WChar_traits<wchar_t>::eof
	mov	WORD PTR $T3[ebp], ax
	lea	edx, DWORD PTR $T4[ebp]
	push	edx
	lea	eax, DWORD PTR $T3[ebp]
	push	eax
	call	?eq_int_type@?$_WChar_traits@_W@std@@SA_NABG0@Z ; std::_WChar_traits<wchar_t>::eq_int_type
	add	esp, 8
	movzx	ecx, al
	test	ecx, ecx
	je	SHORT $LN18@Insert_str

; 524  :                     _State |= _Ostr_t::badbit; // insertion failed, quit

	mov	eax, DWORD PTR __State$[ebp]
	or	eax, 4
	mov	DWORD PTR __State$[ebp], eax

; 525  :                     break;

	jmp	SHORT $LN17@Insert_str
$LN18@Insert_str:

; 526  :                 }
; 527  :             }

	jmp	$LN5@Insert_str
$LN17@Insert_str:

; 528  :         }
; 529  : 
; 530  :         _Ostr.width(0);

	mov	esi, esp
	push	0
	push	0
	mov	eax, DWORD PTR __Ostr$[ebp]
	mov	ecx, DWORD PTR [eax]
	mov	edx, DWORD PTR __Ostr$[ebp]
	add	edx, DWORD PTR [ecx+4]
	mov	ecx, edx
	call	DWORD PTR __imp_?width@ios_base@std@@QAE_J_J@Z
	cmp	esi, esp
	call	__RTC_CheckEsp
	jmp	SHORT $LN20@Insert_str
__catch$??$_Insert_string@_WU?$char_traits@_W@std@@I@std@@YAAAV?$basic_ostream@_WU?$char_traits@_W@std@@@0@AAV10@QB_WI@Z$0:

; 531  :         _CATCH_IO_(_Ostr_t, _Ostr)

	mov	esi, esp
	push	1
	push	4
	mov	eax, DWORD PTR __Ostr$[ebp]
	mov	ecx, DWORD PTR [eax]
	mov	edx, DWORD PTR __Ostr$[ebp]
	add	edx, DWORD PTR [ecx+4]
	mov	ecx, edx
	call	DWORD PTR __imp_?setstate@?$basic_ios@_WU?$char_traits@_W@std@@@std@@QAEXH_N@Z
	cmp	esi, esp
	call	__RTC_CheckEsp
	mov	eax, $LN24@Insert_str
	ret	0
$LN20@Insert_str:
	mov	DWORD PTR __$EHRec$[ebp+12], 0
	jmp	SHORT $LN12@Insert_str
$LN24@Insert_str:
	mov	DWORD PTR __$EHRec$[ebp+12], 0
$LN12@Insert_str:

; 532  :     }
; 533  : 
; 534  :     _Ostr.setstate(_State);

	mov	esi, esp
	push	0
	mov	eax, DWORD PTR __State$[ebp]
	push	eax
	mov	ecx, DWORD PTR __Ostr$[ebp]
	mov	edx, DWORD PTR [ecx]
	mov	ecx, DWORD PTR __Ostr$[ebp]
	add	ecx, DWORD PTR [edx+4]
	call	DWORD PTR __imp_?setstate@?$basic_ios@_WU?$char_traits@_W@std@@@std@@QAEXH_N@Z
	cmp	esi, esp
	call	__RTC_CheckEsp

; 535  :     return _Ostr;

	mov	eax, DWORD PTR __Ostr$[ebp]
	mov	DWORD PTR $T2[ebp], eax
	mov	DWORD PTR __$EHRec$[ebp+12], -1
	lea	ecx, DWORD PTR __Ok$[ebp]
	call	??1sentry@?$basic_ostream@_WU?$char_traits@_W@std@@@std@@QAE@XZ ; std::basic_ostream<wchar_t,std::char_traits<wchar_t> >::sentry::~sentry
	mov	eax, DWORD PTR $T2[ebp]

; 536  : }

	push	edx
	mov	ecx, ebp
	push	eax
	lea	edx, DWORD PTR $LN30@Insert_str
	call	@_RTC_CheckStackVars@8
	pop	eax
	pop	edx
	mov	ecx, DWORD PTR __$EHRec$[ebp+4]
	mov	DWORD PTR fs:0, ecx
	pop	ecx
	pop	edi
	pop	esi
	pop	ebx
	mov	ecx, DWORD PTR __$ArrayPad$[ebp]
	xor	ecx, ebp
	call	@__security_check_cookie@4
	add	esp, 332				; 0000014cH
	cmp	ebp, esp
	call	__RTC_CheckEsp
	mov	esp, ebp
	pop	ebp
	ret	0
$LN30@Insert_str:
	DD	1
	DD	$LN29@Insert_str
$LN29@Insert_str:
	DD	-56					; ffffffc8H
	DD	8
	DD	$LN27@Insert_str
$LN27@Insert_str:
	DB	95					; 0000005fH
	DB	79					; 0000004fH
	DB	107					; 0000006bH
	DB	0
_TEXT	ENDS
;	COMDAT text$x
text$x	SEGMENT
__unwindfunclet$??$_Insert_string@_WU?$char_traits@_W@std@@I@std@@YAAAV?$basic_ostream@_WU?$char_traits@_W@std@@@0@AAV10@QB_WI@Z$2:
	lea	ecx, DWORD PTR __Ok$[ebp]
	jmp	??1sentry@?$basic_ostream@_WU?$char_traits@_W@std@@@std@@QAE@XZ ; std::basic_ostream<wchar_t,std::char_traits<wchar_t> >::sentry::~sentry
	int	3
	int	3
	int	3
	int	3
	int	3
__ehhandler$??$_Insert_string@_WU?$char_traits@_W@std@@I@std@@YAAAV?$basic_ostream@_WU?$char_traits@_W@std@@@0@AAV10@QB_WI@Z:
	npad	1
	npad	1
	mov	edx, DWORD PTR [esp+8]
	lea	eax, DWORD PTR [edx+12]
	mov	ecx, DWORD PTR [edx-336]
	xor	ecx, eax
	call	@__security_check_cookie@4
	mov	ecx, DWORD PTR [edx-8]
	xor	ecx, eax
	call	@__security_check_cookie@4
	mov	eax, OFFSET __ehfuncinfo$??$_Insert_string@_WU?$char_traits@_W@std@@I@std@@YAAAV?$basic_ostream@_WU?$char_traits@_W@std@@@0@AAV10@QB_WI@Z
	jmp	___CxxFrameHandler3
text$x	ENDS
??$_Insert_string@_WU?$char_traits@_W@std@@I@std@@YAAAV?$basic_ostream@_WU?$char_traits@_W@std@@@0@AAV10@QB_WI@Z ENDP ; std::_Insert_string<wchar_t,std::char_traits<wchar_t>,unsigned int>
; Function compile flags: /Odtp /RTCsu /ZI
; File C:\Program Files (x86)\Microsoft Visual Studio\2019\Community\VC\Tools\MSVC\14.29.30133\include\xstring
;	COMDAT ??$_Insert_string@DU?$char_traits@D@std@@I@std@@YAAAV?$basic_ostream@DU?$char_traits@D@std@@@0@AAV10@QBDI@Z
_TEXT	SEGMENT
tv405 = -332						; size = 8
tv290 = -324						; size = 4
tv287 = -324						; size = 8
tv285 = -324						; size = 4
tv324 = -320						; size = 8
tv289 = -320						; size = 4
tv284 = -320						; size = 4
tv286 = -316						; size = 4
tv135 = -316						; size = 4
tv288 = -313						; size = 1
tv283 = -313						; size = 1
$T2 = -308						; size = 4
$T3 = -296						; size = 4
$T4 = -284						; size = 4
$T5 = -272						; size = 4
$T6 = -260						; size = 4
__Ok$ = -56						; size = 8
__Pad$ = -40						; size = 4
__State$ = -28						; size = 4
__$ArrayPad$ = -20					; size = 4
__$EHRec$ = -16						; size = 16
__Ostr$ = 8						; size = 4
__Data$ = 12						; size = 4
__Size$ = 16						; size = 4
??$_Insert_string@DU?$char_traits@D@std@@I@std@@YAAAV?$basic_ostream@DU?$char_traits@D@std@@@0@AAV10@QBDI@Z PROC ; std::_Insert_string<char,std::char_traits<char>,unsigned int>, COMDAT

; 491  :     basic_ostream<_Elem, _Traits>& _Ostr, const _Elem* const _Data, const _SizeT _Size) {

	push	ebp
	mov	ebp, esp
	push	-1
	push	__ehhandler$??$_Insert_string@DU?$char_traits@D@std@@I@std@@YAAAV?$basic_ostream@DU?$char_traits@D@std@@@0@AAV10@QBDI@Z
	mov	eax, DWORD PTR fs:0
	push	eax
	push	ecx
	sub	esp, 316				; 0000013cH
	push	ebx
	push	esi
	push	edi
	lea	edi, DWORD PTR [ebp-140]
	mov	ecx, 31					; 0000001fH
	mov	eax, -858993460				; ccccccccH
	rep stosd
	mov	eax, DWORD PTR ___security_cookie
	xor	eax, ebp
	mov	DWORD PTR __$ArrayPad$[ebp], eax
	push	eax
	lea	eax, DWORD PTR __$EHRec$[ebp+4]
	mov	DWORD PTR fs:0, eax
	mov	DWORD PTR __$EHRec$[ebp], esp
	mov	ecx, OFFSET __0D019051_xstring
	call	@__CheckForDebuggerJustMyCode@4

; 492  :     // insert a character-type sequence into _Ostr as if through a basic_string copy
; 493  :     using _Ostr_t                    = basic_ostream<_Elem, _Traits>;
; 494  :     typename _Ostr_t::iostate _State = _Ostr_t::goodbit;

	mov	DWORD PTR __State$[ebp], 0

; 495  : 
; 496  :     _SizeT _Pad;
; 497  :     if (_Ostr.width() <= 0 || static_cast<_SizeT>(_Ostr.width()) <= _Size) {

	mov	eax, DWORD PTR __Ostr$[ebp]
	mov	ecx, DWORD PTR [eax]
	mov	edx, DWORD PTR __Ostr$[ebp]
	add	edx, DWORD PTR [ecx+4]
	mov	esi, esp
	mov	ecx, edx
	call	DWORD PTR __imp_?width@ios_base@std@@QBE_JXZ
	cmp	esi, esp
	call	__RTC_CheckEsp
	mov	DWORD PTR tv324[ebp], eax
	mov	DWORD PTR tv324[ebp+4], edx
	cmp	DWORD PTR tv324[ebp+4], 0
	jl	SHORT $LN10@Insert_str
	jg	SHORT $LN25@Insert_str
	cmp	DWORD PTR tv324[ebp], 0
	jbe	SHORT $LN10@Insert_str
$LN25@Insert_str:
	mov	eax, DWORD PTR __Ostr$[ebp]
	mov	ecx, DWORD PTR [eax]
	mov	edx, DWORD PTR __Ostr$[ebp]
	add	edx, DWORD PTR [ecx+4]
	mov	esi, esp
	mov	ecx, edx
	call	DWORD PTR __imp_?width@ios_base@std@@QBE_JXZ
	cmp	esi, esp
	call	__RTC_CheckEsp
	cmp	eax, DWORD PTR __Size$[ebp]
	ja	SHORT $LN8@Insert_str
$LN10@Insert_str:

; 498  :         _Pad = 0;

	mov	DWORD PTR __Pad$[ebp], 0

; 499  :     } else {

	jmp	SHORT $LN9@Insert_str
$LN8@Insert_str:

; 500  :         _Pad = static_cast<_SizeT>(_Ostr.width()) - _Size;

	mov	eax, DWORD PTR __Ostr$[ebp]
	mov	ecx, DWORD PTR [eax]
	mov	edx, DWORD PTR __Ostr$[ebp]
	add	edx, DWORD PTR [ecx+4]
	mov	esi, esp
	mov	ecx, edx
	call	DWORD PTR __imp_?width@ios_base@std@@QBE_JXZ
	cmp	esi, esp
	call	__RTC_CheckEsp
	sub	eax, DWORD PTR __Size$[ebp]
	mov	DWORD PTR __Pad$[ebp], eax
$LN9@Insert_str:

; 501  :     }
; 502  : 
; 503  :     const typename _Ostr_t::sentry _Ok(_Ostr);

	mov	eax, DWORD PTR __Ostr$[ebp]
	push	eax
	lea	ecx, DWORD PTR __Ok$[ebp]
	call	??0sentry@?$basic_ostream@DU?$char_traits@D@std@@@std@@QAE@AAV12@@Z ; std::basic_ostream<char,std::char_traits<char> >::sentry::sentry
	mov	DWORD PTR __$EHRec$[ebp+12], 0

; 504  : 
; 505  :     if (!_Ok) {

	lea	ecx, DWORD PTR __Ok$[ebp]
	call	??Bsentry@?$basic_ostream@DU?$char_traits@D@std@@@std@@QBE_NXZ ; std::basic_ostream<char,std::char_traits<char> >::sentry::operator bool
	movzx	eax, al
	test	eax, eax
	jne	SHORT $LN11@Insert_str

; 506  :         _State |= _Ostr_t::badbit;

	mov	eax, DWORD PTR __State$[ebp]
	or	eax, 4
	mov	DWORD PTR __State$[ebp], eax

; 507  :     } else { // state okay, insert characters

	jmp	$LN12@Insert_str
$LN11@Insert_str:

; 508  :         _TRY_IO_BEGIN

	mov	BYTE PTR __$EHRec$[ebp+12], 1

; 509  :         if ((_Ostr.flags() & _Ostr_t::adjustfield) != _Ostr_t::left) {

	mov	eax, DWORD PTR __Ostr$[ebp]
	mov	ecx, DWORD PTR [eax]
	mov	edx, DWORD PTR __Ostr$[ebp]
	add	edx, DWORD PTR [ecx+4]
	mov	esi, esp
	mov	ecx, edx
	call	DWORD PTR __imp_?flags@ios_base@std@@QBEHXZ
	cmp	esi, esp
	call	__RTC_CheckEsp
	mov	DWORD PTR tv135[ebp], eax
	mov	eax, DWORD PTR tv135[ebp]
	and	eax, 448				; 000001c0H
	cmp	eax, 64					; 00000040H
	je	$LN14@Insert_str

; 510  :             for (; 0 < _Pad; --_Pad) { // pad on left

	jmp	SHORT $LN4@Insert_str
$LN2@Insert_str:
	mov	eax, DWORD PTR __Pad$[ebp]
	sub	eax, 1
	mov	DWORD PTR __Pad$[ebp], eax
$LN4@Insert_str:
	cmp	DWORD PTR __Pad$[ebp], 0
	jbe	$LN14@Insert_str

; 511  :                 if (_Traits::eq_int_type(_Traits::eof(), _Ostr.rdbuf()->sputc(_Ostr.fill()))) {

	mov	eax, DWORD PTR __Ostr$[ebp]
	mov	ecx, DWORD PTR [eax]
	mov	edx, DWORD PTR __Ostr$[ebp]
	add	edx, DWORD PTR [ecx+4]
	mov	esi, esp
	mov	ecx, edx
	call	DWORD PTR __imp_?fill@?$basic_ios@DU?$char_traits@D@std@@@std@@QBEDXZ
	cmp	esi, esp
	call	__RTC_CheckEsp
	mov	BYTE PTR tv283[ebp], al
	mov	eax, DWORD PTR __Ostr$[ebp]
	mov	ecx, DWORD PTR [eax]
	mov	edx, DWORD PTR __Ostr$[ebp]
	add	edx, DWORD PTR [ecx+4]
	mov	esi, esp
	mov	ecx, edx
	call	DWORD PTR __imp_?rdbuf@?$basic_ios@DU?$char_traits@D@std@@@std@@QBEPAV?$basic_streambuf@DU?$char_traits@D@std@@@2@XZ
	cmp	esi, esp
	call	__RTC_CheckEsp
	mov	DWORD PTR tv284[ebp], eax
	mov	esi, esp
	movzx	eax, BYTE PTR tv283[ebp]
	push	eax
	mov	ecx, DWORD PTR tv284[ebp]
	call	DWORD PTR __imp_?sputc@?$basic_streambuf@DU?$char_traits@D@std@@@std@@QAEHD@Z
	cmp	esi, esp
	call	__RTC_CheckEsp
	mov	DWORD PTR tv285[ebp], eax
	mov	ecx, DWORD PTR tv285[ebp]
	mov	DWORD PTR $T6[ebp], ecx
	call	?eof@?$_Narrow_char_traits@DH@std@@SAHXZ ; std::_Narrow_char_traits<char,int>::eof
	mov	DWORD PTR $T5[ebp], eax
	lea	edx, DWORD PTR $T6[ebp]
	push	edx
	lea	eax, DWORD PTR $T5[ebp]
	push	eax
	call	?eq_int_type@?$_Narrow_char_traits@DH@std@@SA_NABH0@Z ; std::_Narrow_char_traits<char,int>::eq_int_type
	add	esp, 8
	movzx	ecx, al
	test	ecx, ecx
	je	SHORT $LN15@Insert_str

; 512  :                     _State |= _Ostr_t::badbit; // insertion failed, quit

	mov	eax, DWORD PTR __State$[ebp]
	or	eax, 4
	mov	DWORD PTR __State$[ebp], eax

; 513  :                     break;

	jmp	SHORT $LN14@Insert_str
$LN15@Insert_str:

; 514  :                 }
; 515  :             }

	jmp	$LN2@Insert_str
$LN14@Insert_str:

; 516  :         }
; 517  : 
; 518  :         if (_State == _Ostr_t::goodbit
; 519  :             && _Ostr.rdbuf()->sputn(_Data, static_cast<streamsize>(_Size)) != static_cast<streamsize>(_Size)) {

	cmp	DWORD PTR __State$[ebp], 0
	jne	$LN16@Insert_str
	mov	eax, DWORD PTR __Ostr$[ebp]
	mov	ecx, DWORD PTR [eax]
	mov	edx, DWORD PTR __Ostr$[ebp]
	add	edx, DWORD PTR [ecx+4]
	mov	esi, esp
	mov	ecx, edx
	call	DWORD PTR __imp_?rdbuf@?$basic_ios@DU?$char_traits@D@std@@@std@@QBEPAV?$basic_streambuf@DU?$char_traits@D@std@@@2@XZ
	cmp	esi, esp
	call	__RTC_CheckEsp
	mov	DWORD PTR tv286[ebp], eax
	mov	eax, DWORD PTR __Size$[ebp]
	xor	ecx, ecx
	mov	esi, esp
	push	ecx
	push	eax
	mov	edx, DWORD PTR __Data$[ebp]
	push	edx
	mov	ecx, DWORD PTR tv286[ebp]
	call	DWORD PTR __imp_?sputn@?$basic_streambuf@DU?$char_traits@D@std@@@std@@QAE_JPBD_J@Z
	cmp	esi, esp
	call	__RTC_CheckEsp
	mov	DWORD PTR tv287[ebp], eax
	mov	DWORD PTR tv287[ebp+4], edx
	mov	eax, DWORD PTR __Size$[ebp]
	xor	ecx, ecx
	mov	DWORD PTR tv405[ebp], eax
	mov	DWORD PTR tv405[ebp+4], ecx
	mov	edx, DWORD PTR tv287[ebp]
	cmp	edx, DWORD PTR tv405[ebp]
	jne	SHORT $LN26@Insert_str
	mov	eax, DWORD PTR tv287[ebp+4]
	cmp	eax, DWORD PTR tv405[ebp+4]
	je	SHORT $LN16@Insert_str
$LN26@Insert_str:

; 520  :             _State |= _Ostr_t::badbit;

	mov	eax, DWORD PTR __State$[ebp]
	or	eax, 4
	mov	DWORD PTR __State$[ebp], eax

; 521  :         } else {

	jmp	$LN17@Insert_str
$LN16@Insert_str:

; 522  :             for (; 0 < _Pad; --_Pad) { // pad on right

	jmp	SHORT $LN7@Insert_str
$LN5@Insert_str:
	mov	eax, DWORD PTR __Pad$[ebp]
	sub	eax, 1
	mov	DWORD PTR __Pad$[ebp], eax
$LN7@Insert_str:
	cmp	DWORD PTR __Pad$[ebp], 0
	jbe	$LN17@Insert_str

; 523  :                 if (_Traits::eq_int_type(_Traits::eof(), _Ostr.rdbuf()->sputc(_Ostr.fill()))) {

	mov	eax, DWORD PTR __Ostr$[ebp]
	mov	ecx, DWORD PTR [eax]
	mov	edx, DWORD PTR __Ostr$[ebp]
	add	edx, DWORD PTR [ecx+4]
	mov	esi, esp
	mov	ecx, edx
	call	DWORD PTR __imp_?fill@?$basic_ios@DU?$char_traits@D@std@@@std@@QBEDXZ
	cmp	esi, esp
	call	__RTC_CheckEsp
	mov	BYTE PTR tv288[ebp], al
	mov	eax, DWORD PTR __Ostr$[ebp]
	mov	ecx, DWORD PTR [eax]
	mov	edx, DWORD PTR __Ostr$[ebp]
	add	edx, DWORD PTR [ecx+4]
	mov	esi, esp
	mov	ecx, edx
	call	DWORD PTR __imp_?rdbuf@?$basic_ios@DU?$char_traits@D@std@@@std@@QBEPAV?$basic_streambuf@DU?$char_traits@D@std@@@2@XZ
	cmp	esi, esp
	call	__RTC_CheckEsp
	mov	DWORD PTR tv289[ebp], eax
	mov	esi, esp
	movzx	eax, BYTE PTR tv288[ebp]
	push	eax
	mov	ecx, DWORD PTR tv289[ebp]
	call	DWORD PTR __imp_?sputc@?$basic_streambuf@DU?$char_traits@D@std@@@std@@QAEHD@Z
	cmp	esi, esp
	call	__RTC_CheckEsp
	mov	DWORD PTR tv290[ebp], eax
	mov	ecx, DWORD PTR tv290[ebp]
	mov	DWORD PTR $T4[ebp], ecx
	call	?eof@?$_Narrow_char_traits@DH@std@@SAHXZ ; std::_Narrow_char_traits<char,int>::eof
	mov	DWORD PTR $T3[ebp], eax
	lea	edx, DWORD PTR $T4[ebp]
	push	edx
	lea	eax, DWORD PTR $T3[ebp]
	push	eax
	call	?eq_int_type@?$_Narrow_char_traits@DH@std@@SA_NABH0@Z ; std::_Narrow_char_traits<char,int>::eq_int_type
	add	esp, 8
	movzx	ecx, al
	test	ecx, ecx
	je	SHORT $LN18@Insert_str

; 524  :                     _State |= _Ostr_t::badbit; // insertion failed, quit

	mov	eax, DWORD PTR __State$[ebp]
	or	eax, 4
	mov	DWORD PTR __State$[ebp], eax

; 525  :                     break;

	jmp	SHORT $LN17@Insert_str
$LN18@Insert_str:

; 526  :                 }
; 527  :             }

	jmp	$LN5@Insert_str
$LN17@Insert_str:

; 528  :         }
; 529  : 
; 530  :         _Ostr.width(0);

	mov	esi, esp
	push	0
	push	0
	mov	eax, DWORD PTR __Ostr$[ebp]
	mov	ecx, DWORD PTR [eax]
	mov	edx, DWORD PTR __Ostr$[ebp]
	add	edx, DWORD PTR [ecx+4]
	mov	ecx, edx
	call	DWORD PTR __imp_?width@ios_base@std@@QAE_J_J@Z
	cmp	esi, esp
	call	__RTC_CheckEsp
	jmp	SHORT $LN20@Insert_str
__catch$??$_Insert_string@DU?$char_traits@D@std@@I@std@@YAAAV?$basic_ostream@DU?$char_traits@D@std@@@0@AAV10@QBDI@Z$0:

; 531  :         _CATCH_IO_(_Ostr_t, _Ostr)

	mov	esi, esp
	push	1
	push	4
	mov	eax, DWORD PTR __Ostr$[ebp]
	mov	ecx, DWORD PTR [eax]
	mov	edx, DWORD PTR __Ostr$[ebp]
	add	edx, DWORD PTR [ecx+4]
	mov	ecx, edx
	call	DWORD PTR __imp_?setstate@?$basic_ios@DU?$char_traits@D@std@@@std@@QAEXH_N@Z
	cmp	esi, esp
	call	__RTC_CheckEsp
	mov	eax, $LN24@Insert_str
	ret	0
$LN20@Insert_str:
	mov	DWORD PTR __$EHRec$[ebp+12], 0
	jmp	SHORT $LN12@Insert_str
$LN24@Insert_str:
	mov	DWORD PTR __$EHRec$[ebp+12], 0
$LN12@Insert_str:

; 532  :     }
; 533  : 
; 534  :     _Ostr.setstate(_State);

	mov	esi, esp
	push	0
	mov	eax, DWORD PTR __State$[ebp]
	push	eax
	mov	ecx, DWORD PTR __Ostr$[ebp]
	mov	edx, DWORD PTR [ecx]
	mov	ecx, DWORD PTR __Ostr$[ebp]
	add	ecx, DWORD PTR [edx+4]
	call	DWORD PTR __imp_?setstate@?$basic_ios@DU?$char_traits@D@std@@@std@@QAEXH_N@Z
	cmp	esi, esp
	call	__RTC_CheckEsp

; 535  :     return _Ostr;

	mov	eax, DWORD PTR __Ostr$[ebp]
	mov	DWORD PTR $T2[ebp], eax
	mov	DWORD PTR __$EHRec$[ebp+12], -1
	lea	ecx, DWORD PTR __Ok$[ebp]
	call	??1sentry@?$basic_ostream@DU?$char_traits@D@std@@@std@@QAE@XZ ; std::basic_ostream<char,std::char_traits<char> >::sentry::~sentry
	mov	eax, DWORD PTR $T2[ebp]

; 536  : }

	push	edx
	mov	ecx, ebp
	push	eax
	lea	edx, DWORD PTR $LN30@Insert_str
	call	@_RTC_CheckStackVars@8
	pop	eax
	pop	edx
	mov	ecx, DWORD PTR __$EHRec$[ebp+4]
	mov	DWORD PTR fs:0, ecx
	pop	ecx
	pop	edi
	pop	esi
	pop	ebx
	mov	ecx, DWORD PTR __$ArrayPad$[ebp]
	xor	ecx, ebp
	call	@__security_check_cookie@4
	add	esp, 332				; 0000014cH
	cmp	ebp, esp
	call	__RTC_CheckEsp
	mov	esp, ebp
	pop	ebp
	ret	0
	npad	2
$LN30@Insert_str:
	DD	1
	DD	$LN29@Insert_str
$LN29@Insert_str:
	DD	-56					; ffffffc8H
	DD	8
	DD	$LN27@Insert_str
$LN27@Insert_str:
	DB	95					; 0000005fH
	DB	79					; 0000004fH
	DB	107					; 0000006bH
	DB	0
_TEXT	ENDS
;	COMDAT text$x
text$x	SEGMENT
__unwindfunclet$??$_Insert_string@DU?$char_traits@D@std@@I@std@@YAAAV?$basic_ostream@DU?$char_traits@D@std@@@0@AAV10@QBDI@Z$2:
	lea	ecx, DWORD PTR __Ok$[ebp]
	jmp	??1sentry@?$basic_ostream@DU?$char_traits@D@std@@@std@@QAE@XZ ; std::basic_ostream<char,std::char_traits<char> >::sentry::~sentry
	int	3
	int	3
	int	3
	int	3
	int	3
__ehhandler$??$_Insert_string@DU?$char_traits@D@std@@I@std@@YAAAV?$basic_ostream@DU?$char_traits@D@std@@@0@AAV10@QBDI@Z:
	npad	1
	npad	1
	mov	edx, DWORD PTR [esp+8]
	lea	eax, DWORD PTR [edx+12]
	mov	ecx, DWORD PTR [edx-336]
	xor	ecx, eax
	call	@__security_check_cookie@4
	mov	ecx, DWORD PTR [edx-8]
	xor	ecx, eax
	call	@__security_check_cookie@4
	mov	eax, OFFSET __ehfuncinfo$??$_Insert_string@DU?$char_traits@D@std@@I@std@@YAAAV?$basic_ostream@DU?$char_traits@D@std@@@0@AAV10@QBDI@Z
	jmp	___CxxFrameHandler3
text$x	ENDS
??$_Insert_string@DU?$char_traits@D@std@@I@std@@YAAAV?$basic_ostream@DU?$char_traits@D@std@@@0@AAV10@QBDI@Z ENDP ; std::_Insert_string<char,std::char_traits<char>,unsigned int>
; Function compile flags: /Odtp /RTCsu /ZI
; File C:\Program Files (x86)\Microsoft Visual Studio\2019\Community\VC\Tools\MSVC\14.29.30133\include\type_traits
;	COMDAT ??$move@AAV?$basic_string@_UU?$char_traits@_U@std@@V?$allocator@_U@2@@std@@@std@@YA$$QAV?$basic_string@_UU?$char_traits@_U@std@@V?$allocator@_U@2@@0@AAV10@@Z
_TEXT	SEGMENT
__Arg$ = 8						; size = 4
??$move@AAV?$basic_string@_UU?$char_traits@_U@std@@V?$allocator@_U@2@@std@@@std@@YA$$QAV?$basic_string@_UU?$char_traits@_U@std@@V?$allocator@_U@2@@0@AAV10@@Z PROC ; std::move<std::basic_string<char32_t,std::char_traits<char32_t>,std::allocator<char32_t> > &>, COMDAT

; 1396 : _NODISCARD constexpr remove_reference_t<_Ty>&& move(_Ty&& _Arg) noexcept { // forward _Arg as movable

	push	ebp
	mov	ebp, esp
	sub	esp, 192				; 000000c0H
	push	ebx
	push	esi
	push	edi
	mov	edi, ebp
	xor	ecx, ecx
	mov	eax, -858993460				; ccccccccH
	rep stosd
	mov	ecx, OFFSET __589FA321_type_traits
	call	@__CheckForDebuggerJustMyCode@4

; 1397 :     return static_cast<remove_reference_t<_Ty>&&>(_Arg);

	mov	eax, DWORD PTR __Arg$[ebp]

; 1398 : }

	pop	edi
	pop	esi
	pop	ebx
	add	esp, 192				; 000000c0H
	cmp	ebp, esp
	call	__RTC_CheckEsp
	mov	esp, ebp
	pop	ebp
	ret	0
??$move@AAV?$basic_string@_UU?$char_traits@_U@std@@V?$allocator@_U@2@@std@@@std@@YA$$QAV?$basic_string@_UU?$char_traits@_U@std@@V?$allocator@_U@2@@0@AAV10@@Z ENDP ; std::move<std::basic_string<char32_t,std::char_traits<char32_t>,std::allocator<char32_t> > &>
_TEXT	ENDS
; Function compile flags: /Odtp /RTCsu /ZI
; File C:\Program Files (x86)\Microsoft Visual Studio\2019\Community\VC\Tools\MSVC\14.29.30133\include\type_traits
;	COMDAT ??$move@AAV?$basic_string@_SU?$char_traits@_S@std@@V?$allocator@_S@2@@std@@@std@@YA$$QAV?$basic_string@_SU?$char_traits@_S@std@@V?$allocator@_S@2@@0@AAV10@@Z
_TEXT	SEGMENT
__Arg$ = 8						; size = 4
??$move@AAV?$basic_string@_SU?$char_traits@_S@std@@V?$allocator@_S@2@@std@@@std@@YA$$QAV?$basic_string@_SU?$char_traits@_S@std@@V?$allocator@_S@2@@0@AAV10@@Z PROC ; std::move<std::basic_string<char16_t,std::char_traits<char16_t>,std::allocator<char16_t> > &>, COMDAT

; 1396 : _NODISCARD constexpr remove_reference_t<_Ty>&& move(_Ty&& _Arg) noexcept { // forward _Arg as movable

	push	ebp
	mov	ebp, esp
	sub	esp, 192				; 000000c0H
	push	ebx
	push	esi
	push	edi
	mov	edi, ebp
	xor	ecx, ecx
	mov	eax, -858993460				; ccccccccH
	rep stosd
	mov	ecx, OFFSET __589FA321_type_traits
	call	@__CheckForDebuggerJustMyCode@4

; 1397 :     return static_cast<remove_reference_t<_Ty>&&>(_Arg);

	mov	eax, DWORD PTR __Arg$[ebp]

; 1398 : }

	pop	edi
	pop	esi
	pop	ebx
	add	esp, 192				; 000000c0H
	cmp	ebp, esp
	call	__RTC_CheckEsp
	mov	esp, ebp
	pop	ebp
	ret	0
??$move@AAV?$basic_string@_SU?$char_traits@_S@std@@V?$allocator@_S@2@@std@@@std@@YA$$QAV?$basic_string@_SU?$char_traits@_S@std@@V?$allocator@_S@2@@0@AAV10@@Z ENDP ; std::move<std::basic_string<char16_t,std::char_traits<char16_t>,std::allocator<char16_t> > &>
_TEXT	ENDS
; Function compile flags: /Odtp /RTCsu /ZI
; File C:\Program Files (x86)\Microsoft Visual Studio\2019\Community\VC\Tools\MSVC\14.29.30133\include\type_traits
;	COMDAT ??$forward@PAU_Container_base12@std@@@std@@YA$$QAPAU_Container_base12@0@AAPAU10@@Z
_TEXT	SEGMENT
__Arg$ = 8						; size = 4
??$forward@PAU_Container_base12@std@@@std@@YA$$QAPAU_Container_base12@0@AAPAU10@@Z PROC ; std::forward<std::_Container_base12 *>, COMDAT

; 1385 :     remove_reference_t<_Ty>& _Arg) noexcept { // forward an lvalue as either an lvalue or an rvalue

	push	ebp
	mov	ebp, esp
	sub	esp, 192				; 000000c0H
	push	ebx
	push	esi
	push	edi
	mov	edi, ebp
	xor	ecx, ecx
	mov	eax, -858993460				; ccccccccH
	rep stosd
	mov	ecx, OFFSET __589FA321_type_traits
	call	@__CheckForDebuggerJustMyCode@4

; 1386 :     return static_cast<_Ty&&>(_Arg);

	mov	eax, DWORD PTR __Arg$[ebp]

; 1387 : }

	pop	edi
	pop	esi
	pop	ebx
	add	esp, 192				; 000000c0H
	cmp	ebp, esp
	call	__RTC_CheckEsp
	mov	esp, ebp
	pop	ebp
	ret	0
??$forward@PAU_Container_base12@std@@@std@@YA$$QAPAU_Container_base12@0@AAPAU10@@Z ENDP ; std::forward<std::_Container_base12 *>
_TEXT	ENDS
; Function compile flags: /Odtp /RTCsu /ZI
; File C:\Program Files (x86)\Microsoft Visual Studio\2019\Community\VC\Tools\MSVC\14.29.30133\include\xutility
;	COMDAT ??$_Voidify_iter@PAU_Container_proxy@std@@@std@@YAPAXPAU_Container_proxy@0@@Z
_TEXT	SEGMENT
__It$ = 8						; size = 4
??$_Voidify_iter@PAU_Container_proxy@std@@@std@@YAPAXPAU_Container_proxy@0@@Z PROC ; std::_Voidify_iter<std::_Container_proxy *>, COMDAT

; 123  : _NODISCARD constexpr void* _Voidify_iter(_Iter _It) noexcept {

	push	ebp
	mov	ebp, esp
	sub	esp, 192				; 000000c0H
	push	ebx
	push	esi
	push	edi
	mov	edi, ebp
	xor	ecx, ecx
	mov	eax, -858993460				; ccccccccH
	rep stosd
	mov	ecx, OFFSET __12269DE6_xutility
	call	@__CheckForDebuggerJustMyCode@4

; 124  :     if constexpr (is_pointer_v<_Iter>) {
; 125  :         return const_cast<void*>(static_cast<const volatile void*>(_It));

	mov	eax, DWORD PTR __It$[ebp]

; 126  :     } else {
; 127  :         return const_cast<void*>(static_cast<const volatile void*>(_STD addressof(*_It)));
; 128  :     }
; 129  : }

	pop	edi
	pop	esi
	pop	ebx
	add	esp, 192				; 000000c0H
	cmp	ebp, esp
	call	__RTC_CheckEsp
	mov	esp, ebp
	pop	ebp
	ret	0
??$_Voidify_iter@PAU_Container_proxy@std@@@std@@YAPAXPAU_Container_proxy@0@@Z ENDP ; std::_Voidify_iter<std::_Container_proxy *>
_TEXT	ENDS
; Function compile flags: /Odtp /RTCsu /ZI
; File C:\Program Files (x86)\Microsoft Visual Studio\2019\Community\VC\Tools\MSVC\14.29.30133\include\xstddef
;	COMDAT ??$addressof@U_Container_proxy@std@@@std@@YAPAU_Container_proxy@0@AAU10@@Z
_TEXT	SEGMENT
__Val$ = 8						; size = 4
??$addressof@U_Container_proxy@std@@@std@@YAPAU_Container_proxy@0@AAU10@@Z PROC ; std::addressof<std::_Container_proxy>, COMDAT

; 252  : _NODISCARD constexpr _Ty* addressof(_Ty& _Val) noexcept {

	push	ebp
	mov	ebp, esp
	sub	esp, 192				; 000000c0H
	push	ebx
	push	esi
	push	edi
	mov	edi, ebp
	xor	ecx, ecx
	mov	eax, -858993460				; ccccccccH
	rep stosd
	mov	ecx, OFFSET __E458E21C_xstddef
	call	@__CheckForDebuggerJustMyCode@4

; 253  :     return __builtin_addressof(_Val);

	mov	eax, DWORD PTR __Val$[ebp]

; 254  : }

	pop	edi
	pop	esi
	pop	ebx
	add	esp, 192				; 000000c0H
	cmp	ebp, esp
	call	__RTC_CheckEsp
	mov	esp, ebp
	pop	ebp
	ret	0
??$addressof@U_Container_proxy@std@@@std@@YAPAU_Container_proxy@0@AAU10@@Z ENDP ; std::addressof<std::_Container_proxy>
_TEXT	ENDS
; Function compile flags: /Odtp /RTCsu /ZI
; File C:\Program Files (x86)\Microsoft Visual Studio\2019\Community\VC\Tools\MSVC\14.29.30133\include\xmemory
;	COMDAT ??$_Get_size_of_n@$01@std@@YAII@Z
_TEXT	SEGMENT
__Max_possible$1 = -20					; size = 4
__Overflow_is_possible$ = -5				; size = 1
__Count$ = 8						; size = 4
??$_Get_size_of_n@$01@std@@YAII@Z PROC			; std::_Get_size_of_n<2>, COMDAT

; 55   : _NODISCARD constexpr size_t _Get_size_of_n(const size_t _Count) {

	push	ebp
	mov	ebp, esp
	sub	esp, 216				; 000000d8H
	push	ebx
	push	esi
	push	edi
	lea	edi, DWORD PTR [ebp-24]
	mov	ecx, 6
	mov	eax, -858993460				; ccccccccH
	rep stosd
	mov	ecx, OFFSET __79D216CD_xmemory
	call	@__CheckForDebuggerJustMyCode@4

; 56   :     constexpr bool _Overflow_is_possible = _Ty_size > 1;

	mov	BYTE PTR __Overflow_is_possible$[ebp], 1

; 57   : 
; 58   :     if constexpr (_Overflow_is_possible) {
; 59   :         constexpr size_t _Max_possible = static_cast<size_t>(-1) / _Ty_size;

	mov	DWORD PTR __Max_possible$1[ebp], 2147483647 ; 7fffffffH

; 60   :         if (_Count > _Max_possible) {

	cmp	DWORD PTR __Count$[ebp], 2147483647	; 7fffffffH
	jbe	SHORT $LN2@Get_size_o

; 61   :             _Throw_bad_array_new_length(); // multiply overflow

	call	?_Throw_bad_array_new_length@std@@YAXXZ	; std::_Throw_bad_array_new_length
$LN2@Get_size_o:

; 62   :         }
; 63   :     }
; 64   : 
; 65   :     return _Count * _Ty_size;

	mov	eax, DWORD PTR __Count$[ebp]
	shl	eax, 1
$LN3@Get_size_o:

; 66   : }

	pop	edi
	pop	esi
	pop	ebx
	add	esp, 216				; 000000d8H
	cmp	ebp, esp
	call	__RTC_CheckEsp
	mov	esp, ebp
	pop	ebp
	ret	0
??$_Get_size_of_n@$01@std@@YAII@Z ENDP			; std::_Get_size_of_n<2>
_TEXT	ENDS
; Function compile flags: /Odtp /RTCsu /ZI
; File C:\Program Files (x86)\Microsoft Visual Studio\2019\Community\VC\Tools\MSVC\14.29.30133\include\xstring
;	COMDAT ??$_Reallocate_grow_by@V<lambda_2fb699096920f2dc628cb0826b07831d>@@PB_WI@?$basic_string@_WU?$char_traits@_W@std@@V?$allocator@_W@2@@std@@AAEAAV01@IV<lambda_2fb699096920f2dc628cb0826b07831d>@@PB_WI@Z
_TEXT	SEGMENT
__Old_ptr$1 = -120					; size = 4
__Raw_new$ = -108					; size = 4
__New_ptr$ = -96					; size = 4
__Al$ = -84						; size = 4
__New_capacity$ = -72					; size = 4
__Old_capacity$ = -60					; size = 4
__New_size$ = -48					; size = 4
__Old_size$ = -36					; size = 4
__My_data$ = -24					; size = 4
_this$ = -12						; size = 4
__$ArrayPad$ = -4					; size = 4
__Size_increase$ = 8					; size = 4
__Fn$ = 12						; size = 1
_<_Args_0>$ = 16					; size = 4
_<_Args_1>$ = 20					; size = 4
??$_Reallocate_grow_by@V<lambda_2fb699096920f2dc628cb0826b07831d>@@PB_WI@?$basic_string@_WU?$char_traits@_W@std@@V?$allocator@_W@2@@std@@AAEAAV01@IV<lambda_2fb699096920f2dc628cb0826b07831d>@@PB_WI@Z PROC ; std::basic_string<wchar_t,std::char_traits<wchar_t>,std::allocator<wchar_t> >::_Reallocate_grow_by<<lambda_2fb699096920f2dc628cb0826b07831d>,wchar_t const *,unsigned int>, COMDAT
; _this$ = ecx

; 4504 :         const size_type _Size_increase, _Fty _Fn, _ArgTys... _Args) {

	push	ebp
	mov	ebp, esp
	sub	esp, 316				; 0000013cH
	push	ebx
	push	esi
	push	edi
	push	ecx
	lea	edi, DWORD PTR [ebp-124]
	mov	ecx, 31					; 0000001fH
	mov	eax, -858993460				; ccccccccH
	rep stosd
	pop	ecx
	mov	eax, DWORD PTR ___security_cookie
	xor	eax, ebp
	mov	DWORD PTR __$ArrayPad$[ebp], eax
	mov	DWORD PTR _this$[ebp], ecx
	mov	ecx, OFFSET __0D019051_xstring
	call	@__CheckForDebuggerJustMyCode@4

; 4505 :         // reallocate to increase size by _Size_increase elements, new buffer prepared by
; 4506 :         // _Fn(_New_ptr, _Old_ptr, _Old_size, _Args...)
; 4507 :         auto& _My_data            = _Mypair._Myval2;

	mov	eax, DWORD PTR _this$[ebp]
	mov	DWORD PTR __My_data$[ebp], eax

; 4508 :         const size_type _Old_size = _My_data._Mysize;

	mov	eax, DWORD PTR __My_data$[ebp]
	mov	ecx, DWORD PTR [eax+20]
	mov	DWORD PTR __Old_size$[ebp], ecx

; 4509 :         if (max_size() - _Old_size < _Size_increase) {

	mov	ecx, DWORD PTR _this$[ebp]
	call	?max_size@?$basic_string@_WU?$char_traits@_W@std@@V?$allocator@_W@2@@std@@QBEIXZ ; std::basic_string<wchar_t,std::char_traits<wchar_t>,std::allocator<wchar_t> >::max_size
	sub	eax, DWORD PTR __Old_size$[ebp]
	cmp	eax, DWORD PTR __Size_increase$[ebp]
	jae	SHORT $LN2@Reallocate

; 4510 :             _Xlen_string(); // result too long

	call	?_Xlen_string@std@@YAXXZ		; std::_Xlen_string
$LN2@Reallocate:

; 4511 :         }
; 4512 : 
; 4513 :         const size_type _New_size     = _Old_size + _Size_increase;

	mov	eax, DWORD PTR __Old_size$[ebp]
	add	eax, DWORD PTR __Size_increase$[ebp]
	mov	DWORD PTR __New_size$[ebp], eax

; 4514 :         const size_type _Old_capacity = _My_data._Myres;

	mov	eax, DWORD PTR __My_data$[ebp]
	mov	ecx, DWORD PTR [eax+24]
	mov	DWORD PTR __Old_capacity$[ebp], ecx

; 4515 :         const size_type _New_capacity = _Calculate_growth(_New_size);

	mov	eax, DWORD PTR __New_size$[ebp]
	push	eax
	mov	ecx, DWORD PTR _this$[ebp]
	call	?_Calculate_growth@?$basic_string@_WU?$char_traits@_W@std@@V?$allocator@_W@2@@std@@ABEII@Z ; std::basic_string<wchar_t,std::char_traits<wchar_t>,std::allocator<wchar_t> >::_Calculate_growth
	mov	DWORD PTR __New_capacity$[ebp], eax

; 4516 :         auto& _Al                     = _Getal();

	mov	ecx, DWORD PTR _this$[ebp]
	call	?_Getal@?$basic_string@_WU?$char_traits@_W@std@@V?$allocator@_W@2@@std@@AAEAAV?$allocator@_W@2@XZ ; std::basic_string<wchar_t,std::char_traits<wchar_t>,std::allocator<wchar_t> >::_Getal
	mov	DWORD PTR __Al$[ebp], eax

; 4517 :         const pointer _New_ptr        = _Al.allocate(_New_capacity + 1); // throws

	xor	eax, eax
	mov	ecx, DWORD PTR __New_capacity$[ebp]
	add	ecx, 1
	setb	al
	neg	eax
	or	eax, ecx
	push	eax
	mov	ecx, DWORD PTR __Al$[ebp]
	call	?allocate@?$allocator@_W@std@@QAEPA_WI@Z ; std::allocator<wchar_t>::allocate
	mov	DWORD PTR __New_ptr$[ebp], eax

; 4518 : 
; 4519 : #ifdef __cpp_lib_constexpr_string
; 4520 :         if (_STD is_constant_evaluated()) { // Begin the lifetimes of the objects before copying to avoid UB
; 4521 :             _Traits::assign(_Unfancy(_New_ptr), _New_capacity + 1, _Elem());
; 4522 :         }
; 4523 : #endif // __cpp_lib_constexpr_string
; 4524 :         _My_data._Orphan_all();

	mov	ecx, DWORD PTR __My_data$[ebp]
	call	?_Orphan_all@_Container_base12@std@@QAEXXZ ; std::_Container_base12::_Orphan_all

; 4525 :         _My_data._Mysize      = _New_size;

	mov	eax, DWORD PTR __My_data$[ebp]
	mov	ecx, DWORD PTR __New_size$[ebp]
	mov	DWORD PTR [eax+20], ecx

; 4526 :         _My_data._Myres       = _New_capacity;

	mov	eax, DWORD PTR __My_data$[ebp]
	mov	ecx, DWORD PTR __New_capacity$[ebp]
	mov	DWORD PTR [eax+24], ecx

; 4527 :         _Elem* const _Raw_new = _Unfancy(_New_ptr);

	mov	eax, DWORD PTR __New_ptr$[ebp]
	push	eax
	call	??$_Unfancy@_W@std@@YAPA_WPA_W@Z	; std::_Unfancy<wchar_t>
	add	esp, 4
	mov	DWORD PTR __Raw_new$[ebp], eax

; 4528 :         if (_BUF_SIZE <= _Old_capacity) {

	cmp	DWORD PTR __Old_capacity$[ebp], 8
	jb	SHORT $LN3@Reallocate

; 4529 :             const pointer _Old_ptr = _My_data._Bx._Ptr;

	mov	eax, DWORD PTR __My_data$[ebp]
	mov	ecx, DWORD PTR [eax+4]
	mov	DWORD PTR __Old_ptr$1[ebp], ecx

; 4530 :             _Fn(_Raw_new, _Unfancy(_Old_ptr), _Old_size, _Args...);

	mov	eax, DWORD PTR _<_Args_1>$[ebp]
	push	eax
	mov	ecx, DWORD PTR _<_Args_0>$[ebp]
	push	ecx
	mov	edx, DWORD PTR __Old_size$[ebp]
	push	edx
	mov	eax, DWORD PTR __Old_ptr$1[ebp]
	push	eax
	call	??$_Unfancy@_W@std@@YAPA_WPA_W@Z	; std::_Unfancy<wchar_t>
	add	esp, 4
	push	eax
	mov	ecx, DWORD PTR __Raw_new$[ebp]
	push	ecx
	lea	ecx, DWORD PTR __Fn$[ebp]
	call	??R<lambda_2fb699096920f2dc628cb0826b07831d>@@QBE@QA_WQB_WI1I@Z ; <lambda_2fb699096920f2dc628cb0826b07831d>::operator()

; 4531 :             _Al.deallocate(_Old_ptr, _Old_capacity + 1);

	mov	eax, DWORD PTR __Old_capacity$[ebp]
	add	eax, 1
	push	eax
	mov	ecx, DWORD PTR __Old_ptr$1[ebp]
	push	ecx
	mov	ecx, DWORD PTR __Al$[ebp]
	call	?deallocate@?$allocator@_W@std@@QAEXQA_WI@Z ; std::allocator<wchar_t>::deallocate

; 4532 :             _My_data._Bx._Ptr = _New_ptr;

	mov	eax, DWORD PTR __My_data$[ebp]
	mov	ecx, DWORD PTR __New_ptr$[ebp]
	mov	DWORD PTR [eax+4], ecx

; 4533 :         } else {

	jmp	SHORT $LN4@Reallocate
$LN3@Reallocate:

; 4534 :             _Fn(_Raw_new, _My_data._Bx._Buf, _Old_size, _Args...);

	mov	eax, DWORD PTR _<_Args_1>$[ebp]
	push	eax
	mov	ecx, DWORD PTR _<_Args_0>$[ebp]
	push	ecx
	mov	edx, DWORD PTR __Old_size$[ebp]
	push	edx
	mov	eax, DWORD PTR __My_data$[ebp]
	add	eax, 4
	push	eax
	mov	ecx, DWORD PTR __Raw_new$[ebp]
	push	ecx
	lea	ecx, DWORD PTR __Fn$[ebp]
	call	??R<lambda_2fb699096920f2dc628cb0826b07831d>@@QBE@QA_WQB_WI1I@Z ; <lambda_2fb699096920f2dc628cb0826b07831d>::operator()

; 4535 :             _Construct_in_place(_My_data._Bx._Ptr, _New_ptr);

	lea	eax, DWORD PTR __New_ptr$[ebp]
	push	eax
	mov	ecx, DWORD PTR __My_data$[ebp]
	add	ecx, 4
	push	ecx
	call	??$_Construct_in_place@PA_WABQA_W@std@@YAXAAPA_WABQA_W@Z ; std::_Construct_in_place<wchar_t *,wchar_t * const &>
	add	esp, 8
$LN4@Reallocate:

; 4536 :         }
; 4537 : 
; 4538 :         return *this;

	mov	eax, DWORD PTR _this$[ebp]
$LN5@Reallocate:

; 4539 :     }

	push	edx
	mov	ecx, ebp
	push	eax
	lea	edx, DWORD PTR $LN8@Reallocate
	call	@_RTC_CheckStackVars@8
	pop	eax
	pop	edx
	pop	edi
	pop	esi
	pop	ebx
	mov	ecx, DWORD PTR __$ArrayPad$[ebp]
	xor	ecx, ebp
	call	@__security_check_cookie@4
	add	esp, 316				; 0000013cH
	cmp	ebp, esp
	call	__RTC_CheckEsp
	mov	esp, ebp
	pop	ebp
	ret	16					; 00000010H
$LN8@Reallocate:
	DD	1
	DD	$LN7@Reallocate
$LN7@Reallocate:
	DD	-96					; ffffffa0H
	DD	4
	DD	$LN6@Reallocate
$LN6@Reallocate:
	DB	95					; 0000005fH
	DB	78					; 0000004eH
	DB	101					; 00000065H
	DB	119					; 00000077H
	DB	95					; 0000005fH
	DB	112					; 00000070H
	DB	116					; 00000074H
	DB	114					; 00000072H
	DB	0
??$_Reallocate_grow_by@V<lambda_2fb699096920f2dc628cb0826b07831d>@@PB_WI@?$basic_string@_WU?$char_traits@_W@std@@V?$allocator@_W@2@@std@@AAEAAV01@IV<lambda_2fb699096920f2dc628cb0826b07831d>@@PB_WI@Z ENDP ; std::basic_string<wchar_t,std::char_traits<wchar_t>,std::allocator<wchar_t> >::_Reallocate_grow_by<<lambda_2fb699096920f2dc628cb0826b07831d>,wchar_t const *,unsigned int>
_TEXT	ENDS
; Function compile flags: /Odtp /RTCsu /ZI
; File C:\Program Files (x86)\Microsoft Visual Studio\2019\Community\VC\Tools\MSVC\14.29.30133\include\xstring
;	COMDAT ??R<lambda_2fb699096920f2dc628cb0826b07831d>@@QBE@QA_WQB_WI1I@Z
_TEXT	SEGMENT
$T1 = -210						; size = 2
_this$ = -8						; size = 4
__New_ptr$ = 8						; size = 4
__Old_ptr$ = 12						; size = 4
__Old_size$ = 16					; size = 4
__Ptr$ = 20						; size = 4
__Count$ = 24						; size = 4
??R<lambda_2fb699096920f2dc628cb0826b07831d>@@QBE@QA_WQB_WI1I@Z PROC ; <lambda_2fb699096920f2dc628cb0826b07831d>::operator(), COMDAT
; _this$ = ecx

; 3132 :                 const size_type _Count) {

	push	ebp
	mov	ebp, esp
	sub	esp, 216				; 000000d8H
	push	ebx
	push	esi
	push	edi
	push	ecx
	lea	edi, DWORD PTR [ebp-24]
	mov	ecx, 6
	mov	eax, -858993460				; ccccccccH
	rep stosd
	pop	ecx
	mov	DWORD PTR _this$[ebp], ecx
	mov	ecx, OFFSET __0D019051_xstring
	call	@__CheckForDebuggerJustMyCode@4

; 3133 :                 _Traits::copy(_New_ptr, _Old_ptr, _Old_size);

	mov	eax, DWORD PTR __Old_size$[ebp]
	push	eax
	mov	ecx, DWORD PTR __Old_ptr$[ebp]
	push	ecx
	mov	edx, DWORD PTR __New_ptr$[ebp]
	push	edx
	call	?copy@?$_Char_traits@_WG@std@@SAPA_WQA_WQB_WI@Z ; std::_Char_traits<wchar_t,unsigned short>::copy
	add	esp, 12					; 0000000cH

; 3134 :                 _Traits::copy(_New_ptr + _Old_size, _Ptr, _Count);

	mov	eax, DWORD PTR __Count$[ebp]
	push	eax
	mov	ecx, DWORD PTR __Ptr$[ebp]
	push	ecx
	mov	edx, DWORD PTR __Old_size$[ebp]
	mov	eax, DWORD PTR __New_ptr$[ebp]
	lea	ecx, DWORD PTR [eax+edx*2]
	push	ecx
	call	?copy@?$_Char_traits@_WG@std@@SAPA_WQA_WQB_WI@Z ; std::_Char_traits<wchar_t,unsigned short>::copy
	add	esp, 12					; 0000000cH

; 3135 :                 _Traits::assign(_New_ptr[_Old_size + _Count], _Elem());

	xor	eax, eax
	mov	WORD PTR $T1[ebp], ax
	lea	ecx, DWORD PTR $T1[ebp]
	push	ecx
	mov	edx, DWORD PTR __Old_size$[ebp]
	add	edx, DWORD PTR __Count$[ebp]
	mov	eax, DWORD PTR __New_ptr$[ebp]
	lea	ecx, DWORD PTR [eax+edx*2]
	push	ecx
	call	?assign@?$_WChar_traits@_W@std@@SAXAA_WAB_W@Z ; std::_WChar_traits<wchar_t>::assign
	add	esp, 8

; 3136 :             },

	pop	edi
	pop	esi
	pop	ebx
	add	esp, 216				; 000000d8H
	cmp	ebp, esp
	call	__RTC_CheckEsp
	mov	esp, ebp
	pop	ebp
	ret	20					; 00000014H
??R<lambda_2fb699096920f2dc628cb0826b07831d>@@QBE@QA_WQB_WI1I@Z ENDP ; <lambda_2fb699096920f2dc628cb0826b07831d>::operator()
_TEXT	ENDS
; Function compile flags: /Odtp /RTCsu /ZI
; File C:\Program Files (x86)\Microsoft Visual Studio\2019\Community\VC\Tools\MSVC\14.29.30133\include\ostream
;	COMDAT ??Bsentry@?$basic_ostream@DU?$char_traits@D@std@@@std@@QBE_NXZ
_TEXT	SEGMENT
_this$ = -8						; size = 4
??Bsentry@?$basic_ostream@DU?$char_traits@D@std@@@std@@QBE_NXZ PROC ; std::basic_ostream<char,std::char_traits<char> >::sentry::operator bool, COMDAT
; _this$ = ecx

; 123  :         explicit __CLR_OR_THIS_CALL operator bool() const {

	push	ebp
	mov	ebp, esp
	sub	esp, 204				; 000000ccH
	push	ebx
	push	esi
	push	edi
	push	ecx
	lea	edi, DWORD PTR [ebp-12]
	mov	ecx, 3
	mov	eax, -858993460				; ccccccccH
	rep stosd
	pop	ecx
	mov	DWORD PTR _this$[ebp], ecx
	mov	ecx, OFFSET __C12F3EA4_ostream
	call	@__CheckForDebuggerJustMyCode@4

; 124  :             return _Ok;

	mov	eax, DWORD PTR _this$[ebp]
	mov	al, BYTE PTR [eax+4]

; 125  :         }

	pop	edi
	pop	esi
	pop	ebx
	add	esp, 204				; 000000ccH
	cmp	ebp, esp
	call	__RTC_CheckEsp
	mov	esp, ebp
	pop	ebp
	ret	0
??Bsentry@?$basic_ostream@DU?$char_traits@D@std@@@std@@QBE_NXZ ENDP ; std::basic_ostream<char,std::char_traits<char> >::sentry::operator bool
_TEXT	ENDS
; Function compile flags: /Odtp /RTCsu /ZI
; File C:\Program Files (x86)\Microsoft Visual Studio\2019\Community\VC\Tools\MSVC\14.29.30133\include\ostream
;	COMDAT ??1sentry@?$basic_ostream@DU?$char_traits@D@std@@@std@@QAE@XZ
_TEXT	SEGMENT
tv72 = -229						; size = 1
__Zero_uncaught_exceptions$ = -29			; size = 1
_this$ = -20						; size = 4
__$EHRec$ = -12						; size = 12
??1sentry@?$basic_ostream@DU?$char_traits@D@std@@@std@@QAE@XZ PROC ; std::basic_ostream<char,std::char_traits<char> >::sentry::~sentry, COMDAT
; _this$ = ecx

; 108  :         __CLR_OR_THIS_CALL ~sentry() noexcept {

	push	ebp
	mov	ebp, esp
	push	-1
	push	__ehhandler$??1sentry@?$basic_ostream@DU?$char_traits@D@std@@@std@@QAE@XZ
	mov	eax, DWORD PTR fs:0
	push	eax
	sub	esp, 220				; 000000dcH
	push	ebx
	push	esi
	push	edi
	push	ecx
	lea	edi, DWORD PTR [ebp-40]
	mov	ecx, 7
	mov	eax, -858993460				; ccccccccH
	rep stosd
	pop	ecx
	mov	eax, DWORD PTR ___security_cookie
	xor	eax, ebp
	push	eax
	lea	eax, DWORD PTR __$EHRec$[ebp]
	mov	DWORD PTR fs:0, eax
	mov	DWORD PTR _this$[ebp], ecx
	mov	ecx, OFFSET __C12F3EA4_ostream
	call	@__CheckForDebuggerJustMyCode@4

; 109  : #if !_HAS_EXCEPTIONS
; 110  :             const bool _Zero_uncaught_exceptions = true;
; 111  : #elif _HAS_DEPRECATED_UNCAUGHT_EXCEPTION
; 112  :             const bool _Zero_uncaught_exceptions = !_STD uncaught_exception(); // TRANSITION, ArchivedOS-12000909

	call	?uncaught_exception@std@@YA_NXZ		; std::uncaught_exception
	movzx	eax, al
	test	eax, eax
	jne	SHORT $LN4@sentry
	mov	BYTE PTR tv72[ebp], 1
	jmp	SHORT $LN5@sentry
$LN4@sentry:
	mov	BYTE PTR tv72[ebp], 0
$LN5@sentry:
	mov	cl, BYTE PTR tv72[ebp]
	mov	BYTE PTR __Zero_uncaught_exceptions$[ebp], cl

; 113  : #else // ^^^ _HAS_DEPRECATED_UNCAUGHT_EXCEPTION / !_HAS_DEPRECATED_UNCAUGHT_EXCEPTION vvv
; 114  :             const bool _Zero_uncaught_exceptions = _STD uncaught_exceptions() == 0;
; 115  : #endif // !_HAS_DEPRECATED_UNCAUGHT_EXCEPTION
; 116  : 
; 117  :             if (_Zero_uncaught_exceptions) {

	movzx	eax, BYTE PTR __Zero_uncaught_exceptions$[ebp]
	test	eax, eax
	je	SHORT $LN1@sentry

; 118  :                 this->_Myostr._Osfx();

	mov	esi, esp
	mov	eax, DWORD PTR _this$[ebp]
	mov	ecx, DWORD PTR [eax]
	call	DWORD PTR __imp_?_Osfx@?$basic_ostream@DU?$char_traits@D@std@@@std@@QAEXXZ
	cmp	esi, esp
	call	__RTC_CheckEsp
$LN1@sentry:

; 119  :             }
; 120  :         }

	mov	ecx, DWORD PTR _this$[ebp]
	call	??1_Sentry_base@?$basic_ostream@DU?$char_traits@D@std@@@std@@QAE@XZ ; std::basic_ostream<char,std::char_traits<char> >::_Sentry_base::~_Sentry_base
	mov	ecx, DWORD PTR __$EHRec$[ebp]
	mov	DWORD PTR fs:0, ecx
	pop	ecx
	pop	edi
	pop	esi
	pop	ebx
	add	esp, 232				; 000000e8H
	cmp	ebp, esp
	call	__RTC_CheckEsp
	mov	esp, ebp
	pop	ebp
	ret	0
	int	3
	int	3
	int	3
	int	3
	int	3
_TEXT	ENDS
;	COMDAT text$x
text$x	SEGMENT
__ehhandler$??1sentry@?$basic_ostream@DU?$char_traits@D@std@@@std@@QAE@XZ:
	npad	1
	npad	1
	mov	edx, DWORD PTR [esp+8]
	lea	eax, DWORD PTR [edx+12]
	mov	ecx, DWORD PTR [edx-236]
	xor	ecx, eax
	call	@__security_check_cookie@4
	mov	eax, OFFSET __ehfuncinfo$??1sentry@?$basic_ostream@DU?$char_traits@D@std@@@std@@QAE@XZ
	jmp	___CxxFrameHandler3
text$x	ENDS
??1sentry@?$basic_ostream@DU?$char_traits@D@std@@@std@@QAE@XZ ENDP ; std::basic_ostream<char,std::char_traits<char> >::sentry::~sentry
; Function compile flags: /Odtp /RTCsu /ZI
; File C:\Program Files (x86)\Microsoft Visual Studio\2019\Community\VC\Tools\MSVC\14.29.30133\include\ostream
;	COMDAT ??0sentry@?$basic_ostream@DU?$char_traits@D@std@@@std@@QAE@AAV12@@Z
_TEXT	SEGMENT
__Tied$ = -32						; size = 4
_this$ = -20						; size = 4
__$EHRec$ = -12						; size = 12
__Ostr$ = 8						; size = 4
??0sentry@?$basic_ostream@DU?$char_traits@D@std@@@std@@QAE@AAV12@@Z PROC ; std::basic_ostream<char,std::char_traits<char> >::sentry::sentry, COMDAT
; _this$ = ecx

; 91   :         explicit __CLR_OR_THIS_CALL sentry(basic_ostream& _Ostr) : _Sentry_base(_Ostr) {

	push	ebp
	mov	ebp, esp
	push	-1
	push	__ehhandler$??0sentry@?$basic_ostream@DU?$char_traits@D@std@@@std@@QAE@AAV12@@Z
	mov	eax, DWORD PTR fs:0
	push	eax
	sub	esp, 216				; 000000d8H
	push	ebx
	push	esi
	push	edi
	push	ecx
	lea	edi, DWORD PTR [ebp-36]
	mov	ecx, 6
	mov	eax, -858993460				; ccccccccH
	rep stosd
	pop	ecx
	mov	eax, DWORD PTR ___security_cookie
	xor	eax, ebp
	push	eax
	lea	eax, DWORD PTR __$EHRec$[ebp]
	mov	DWORD PTR fs:0, eax
	mov	DWORD PTR _this$[ebp], ecx
	mov	ecx, OFFSET __C12F3EA4_ostream
	call	@__CheckForDebuggerJustMyCode@4
	mov	eax, DWORD PTR __Ostr$[ebp]
	push	eax
	mov	ecx, DWORD PTR _this$[ebp]
	call	??0_Sentry_base@?$basic_ostream@DU?$char_traits@D@std@@@std@@QAE@AAV12@@Z ; std::basic_ostream<char,std::char_traits<char> >::_Sentry_base::_Sentry_base
	mov	DWORD PTR __$EHRec$[ebp+8], 0

; 92   :             if (!_Ostr.good()) {

	mov	eax, DWORD PTR __Ostr$[ebp]
	mov	ecx, DWORD PTR [eax]
	mov	edx, DWORD PTR __Ostr$[ebp]
	add	edx, DWORD PTR [ecx+4]
	mov	esi, esp
	mov	ecx, edx
	call	DWORD PTR __imp_?good@ios_base@std@@QBE_NXZ
	cmp	esi, esp
	call	__RTC_CheckEsp
	movzx	eax, al
	test	eax, eax
	jne	SHORT $LN2@sentry

; 93   :                 _Ok = false;

	mov	eax, DWORD PTR _this$[ebp]
	mov	BYTE PTR [eax+4], 0

; 94   :                 return;

	jmp	SHORT $LN1@sentry
$LN2@sentry:

; 95   :             }
; 96   : 
; 97   :             const auto _Tied = _Ostr.tie();

	mov	eax, DWORD PTR __Ostr$[ebp]
	mov	ecx, DWORD PTR [eax]
	mov	edx, DWORD PTR __Ostr$[ebp]
	add	edx, DWORD PTR [ecx+4]
	mov	esi, esp
	mov	ecx, edx
	call	DWORD PTR __imp_?tie@?$basic_ios@DU?$char_traits@D@std@@@std@@QBEPAV?$basic_ostream@DU?$char_traits@D@std@@@2@XZ
	cmp	esi, esp
	call	__RTC_CheckEsp
	mov	DWORD PTR __Tied$[ebp], eax

; 98   :             if (!_Tied || _Tied == &_Ostr) {

	cmp	DWORD PTR __Tied$[ebp], 0
	je	SHORT $LN4@sentry
	mov	eax, DWORD PTR __Tied$[ebp]
	cmp	eax, DWORD PTR __Ostr$[ebp]
	jne	SHORT $LN3@sentry
$LN4@sentry:

; 99   :                 _Ok = true;

	mov	eax, DWORD PTR _this$[ebp]
	mov	BYTE PTR [eax+4], 1

; 100  :                 return;

	jmp	SHORT $LN1@sentry
$LN3@sentry:

; 101  :             }
; 102  : 
; 103  :             _Tied->flush();

	mov	esi, esp
	mov	ecx, DWORD PTR __Tied$[ebp]
	call	DWORD PTR __imp_?flush@?$basic_ostream@DU?$char_traits@D@std@@@std@@QAEAAV12@XZ
	cmp	esi, esp
	call	__RTC_CheckEsp

; 104  :             _Ok = _Ostr.good(); // store test only after flushing tie

	mov	eax, DWORD PTR __Ostr$[ebp]
	mov	ecx, DWORD PTR [eax]
	mov	edx, DWORD PTR __Ostr$[ebp]
	add	edx, DWORD PTR [ecx+4]
	mov	esi, esp
	mov	ecx, edx
	call	DWORD PTR __imp_?good@ios_base@std@@QBE_NXZ
	cmp	esi, esp
	call	__RTC_CheckEsp
	mov	ecx, DWORD PTR _this$[ebp]
	mov	BYTE PTR [ecx+4], al
$LN1@sentry:

; 105  :         }

	mov	DWORD PTR __$EHRec$[ebp+8], -1
	mov	eax, DWORD PTR _this$[ebp]
	mov	ecx, DWORD PTR __$EHRec$[ebp]
	mov	DWORD PTR fs:0, ecx
	pop	ecx
	pop	edi
	pop	esi
	pop	ebx
	add	esp, 228				; 000000e4H
	cmp	ebp, esp
	call	__RTC_CheckEsp
	mov	esp, ebp
	pop	ebp
	ret	4
_TEXT	ENDS
;	COMDAT text$x
text$x	SEGMENT
__unwindfunclet$??0sentry@?$basic_ostream@DU?$char_traits@D@std@@@std@@QAE@AAV12@@Z$0:
	mov	ecx, DWORD PTR _this$[ebp]
	jmp	??1_Sentry_base@?$basic_ostream@DU?$char_traits@D@std@@@std@@QAE@XZ ; std::basic_ostream<char,std::char_traits<char> >::_Sentry_base::~_Sentry_base
	int	3
	int	3
	int	3
	int	3
	int	3
__ehhandler$??0sentry@?$basic_ostream@DU?$char_traits@D@std@@@std@@QAE@AAV12@@Z:
	npad	1
	npad	1
	mov	edx, DWORD PTR [esp+8]
	lea	eax, DWORD PTR [edx+12]
	mov	ecx, DWORD PTR [edx-232]
	xor	ecx, eax
	call	@__security_check_cookie@4
	mov	eax, OFFSET __ehfuncinfo$??0sentry@?$basic_ostream@DU?$char_traits@D@std@@@std@@QAE@AAV12@@Z
	jmp	___CxxFrameHandler3
text$x	ENDS
??0sentry@?$basic_ostream@DU?$char_traits@D@std@@@std@@QAE@AAV12@@Z ENDP ; std::basic_ostream<char,std::char_traits<char> >::sentry::sentry
; Function compile flags: /Odtp /RTCsu /ZI
; File C:\Program Files (x86)\Microsoft Visual Studio\2019\Community\VC\Tools\MSVC\14.29.30133\include\ostream
;	COMDAT ??1_Sentry_base@?$basic_ostream@DU?$char_traits@D@std@@@std@@QAE@XZ
_TEXT	SEGMENT
tv72 = -232						; size = 4
__Rdbuf$ = -32						; size = 4
_this$ = -20						; size = 4
__$EHRec$ = -12						; size = 12
??1_Sentry_base@?$basic_ostream@DU?$char_traits@D@std@@@std@@QAE@XZ PROC ; std::basic_ostream<char,std::char_traits<char> >::_Sentry_base::~_Sentry_base, COMDAT
; _this$ = ecx

; 77   :         __CLR_OR_THIS_CALL ~_Sentry_base() noexcept { // destroy after unlocking

	push	ebp
	mov	ebp, esp
	push	-1
	push	__ehhandler$??1_Sentry_base@?$basic_ostream@DU?$char_traits@D@std@@@std@@QAE@XZ
	mov	eax, DWORD PTR fs:0
	push	eax
	sub	esp, 220				; 000000dcH
	push	ebx
	push	esi
	push	edi
	push	ecx
	lea	edi, DWORD PTR [ebp-40]
	mov	ecx, 7
	mov	eax, -858993460				; ccccccccH
	rep stosd
	pop	ecx
	mov	eax, DWORD PTR ___security_cookie
	xor	eax, ebp
	push	eax
	lea	eax, DWORD PTR __$EHRec$[ebp]
	mov	DWORD PTR fs:0, eax
	mov	DWORD PTR _this$[ebp], ecx
	mov	ecx, OFFSET __C12F3EA4_ostream
	call	@__CheckForDebuggerJustMyCode@4

; 78   :             const auto _Rdbuf = _Myostr.rdbuf();

	mov	eax, DWORD PTR _this$[ebp]
	mov	ecx, DWORD PTR [eax]
	mov	DWORD PTR tv72[ebp], ecx
	mov	edx, DWORD PTR tv72[ebp]
	mov	eax, DWORD PTR [edx]
	mov	ecx, DWORD PTR tv72[ebp]
	add	ecx, DWORD PTR [eax+4]
	mov	esi, esp
	call	DWORD PTR __imp_?rdbuf@?$basic_ios@DU?$char_traits@D@std@@@std@@QBEPAV?$basic_streambuf@DU?$char_traits@D@std@@@2@XZ
	cmp	esi, esp
	call	__RTC_CheckEsp
	mov	DWORD PTR __Rdbuf$[ebp], eax

; 79   :             if (_Rdbuf) {

	cmp	DWORD PTR __Rdbuf$[ebp], 0
	je	SHORT $LN3@Sentry_bas

; 80   :                 _Rdbuf->_Unlock();

	mov	eax, DWORD PTR __Rdbuf$[ebp]
	mov	edx, DWORD PTR [eax]
	mov	esi, esp
	mov	ecx, DWORD PTR __Rdbuf$[ebp]
	mov	eax, DWORD PTR [edx+8]
	call	eax
	cmp	esi, esp
	call	__RTC_CheckEsp
$LN3@Sentry_bas:

; 81   :             }
; 82   :         }

	mov	ecx, DWORD PTR __$EHRec$[ebp]
	mov	DWORD PTR fs:0, ecx
	pop	ecx
	pop	edi
	pop	esi
	pop	ebx
	add	esp, 232				; 000000e8H
	cmp	ebp, esp
	call	__RTC_CheckEsp
	mov	esp, ebp
	pop	ebp
	ret	0
	int	3
	int	3
	int	3
	int	3
	int	3
_TEXT	ENDS
;	COMDAT text$x
text$x	SEGMENT
__ehhandler$??1_Sentry_base@?$basic_ostream@DU?$char_traits@D@std@@@std@@QAE@XZ:
	npad	1
	npad	1
	mov	edx, DWORD PTR [esp+8]
	lea	eax, DWORD PTR [edx+12]
	mov	ecx, DWORD PTR [edx-236]
	xor	ecx, eax
	call	@__security_check_cookie@4
	mov	eax, OFFSET __ehfuncinfo$??1_Sentry_base@?$basic_ostream@DU?$char_traits@D@std@@@std@@QAE@XZ
	jmp	___CxxFrameHandler3
text$x	ENDS
??1_Sentry_base@?$basic_ostream@DU?$char_traits@D@std@@@std@@QAE@XZ ENDP ; std::basic_ostream<char,std::char_traits<char> >::_Sentry_base::~_Sentry_base
; Function compile flags: /Odtp /RTCsu /ZI
; File C:\Program Files (x86)\Microsoft Visual Studio\2019\Community\VC\Tools\MSVC\14.29.30133\include\ostream
;	COMDAT ??0_Sentry_base@?$basic_ostream@DU?$char_traits@D@std@@@std@@QAE@AAV12@@Z
_TEXT	SEGMENT
tv73 = -220						; size = 4
__Rdbuf$ = -20						; size = 4
_this$ = -8						; size = 4
__Ostr$ = 8						; size = 4
??0_Sentry_base@?$basic_ostream@DU?$char_traits@D@std@@@std@@QAE@AAV12@@Z PROC ; std::basic_ostream<char,std::char_traits<char> >::_Sentry_base::_Sentry_base, COMDAT
; _this$ = ecx

; 70   :         __CLR_OR_THIS_CALL _Sentry_base(basic_ostream& _Ostr) : _Myostr(_Ostr) { // lock the stream buffer, if there

	push	ebp
	mov	ebp, esp
	sub	esp, 220				; 000000dcH
	push	ebx
	push	esi
	push	edi
	push	ecx
	lea	edi, DWORD PTR [ebp-28]
	mov	ecx, 7
	mov	eax, -858993460				; ccccccccH
	rep stosd
	pop	ecx
	mov	DWORD PTR _this$[ebp], ecx
	mov	ecx, OFFSET __C12F3EA4_ostream
	call	@__CheckForDebuggerJustMyCode@4
	mov	eax, DWORD PTR _this$[ebp]
	mov	ecx, DWORD PTR __Ostr$[ebp]
	mov	DWORD PTR [eax], ecx

; 71   :             const auto _Rdbuf = _Myostr.rdbuf();

	mov	eax, DWORD PTR _this$[ebp]
	mov	ecx, DWORD PTR [eax]
	mov	DWORD PTR tv73[ebp], ecx
	mov	edx, DWORD PTR tv73[ebp]
	mov	eax, DWORD PTR [edx]
	mov	ecx, DWORD PTR tv73[ebp]
	add	ecx, DWORD PTR [eax+4]
	mov	esi, esp
	call	DWORD PTR __imp_?rdbuf@?$basic_ios@DU?$char_traits@D@std@@@std@@QBEPAV?$basic_streambuf@DU?$char_traits@D@std@@@2@XZ
	cmp	esi, esp
	call	__RTC_CheckEsp
	mov	DWORD PTR __Rdbuf$[ebp], eax

; 72   :             if (_Rdbuf) {

	cmp	DWORD PTR __Rdbuf$[ebp], 0
	je	SHORT $LN1@Sentry_bas

; 73   :                 _Rdbuf->_Lock();

	mov	eax, DWORD PTR __Rdbuf$[ebp]
	mov	edx, DWORD PTR [eax]
	mov	esi, esp
	mov	ecx, DWORD PTR __Rdbuf$[ebp]
	mov	eax, DWORD PTR [edx+4]
	call	eax
	cmp	esi, esp
	call	__RTC_CheckEsp
$LN1@Sentry_bas:

; 74   :             }
; 75   :         }

	mov	eax, DWORD PTR _this$[ebp]
	pop	edi
	pop	esi
	pop	ebx
	add	esp, 220				; 000000dcH
	cmp	ebp, esp
	call	__RTC_CheckEsp
	mov	esp, ebp
	pop	ebp
	ret	4
??0_Sentry_base@?$basic_ostream@DU?$char_traits@D@std@@@std@@QAE@AAV12@@Z ENDP ; std::basic_ostream<char,std::char_traits<char> >::_Sentry_base::_Sentry_base
_TEXT	ENDS
; Function compile flags: /Odtp /RTCsu /ZI
; File C:\Program Files (x86)\Microsoft Visual Studio\2019\Community\VC\Tools\MSVC\14.29.30133\include\xmemory
;	COMDAT ??$_Get_size_of_n@$00@std@@YAII@Z
_TEXT	SEGMENT
__Overflow_is_possible$ = -5				; size = 1
__Count$ = 8						; size = 4
??$_Get_size_of_n@$00@std@@YAII@Z PROC			; std::_Get_size_of_n<1>, COMDAT

; 55   : _NODISCARD constexpr size_t _Get_size_of_n(const size_t _Count) {

	push	ebp
	mov	ebp, esp
	sub	esp, 204				; 000000ccH
	push	ebx
	push	esi
	push	edi
	lea	edi, DWORD PTR [ebp-12]
	mov	ecx, 3
	mov	eax, -858993460				; ccccccccH
	rep stosd
	mov	ecx, OFFSET __79D216CD_xmemory
	call	@__CheckForDebuggerJustMyCode@4

; 56   :     constexpr bool _Overflow_is_possible = _Ty_size > 1;

	mov	BYTE PTR __Overflow_is_possible$[ebp], 0

; 57   : 
; 58   :     if constexpr (_Overflow_is_possible) {
; 59   :         constexpr size_t _Max_possible = static_cast<size_t>(-1) / _Ty_size;
; 60   :         if (_Count > _Max_possible) {
; 61   :             _Throw_bad_array_new_length(); // multiply overflow
; 62   :         }
; 63   :     }
; 64   : 
; 65   :     return _Count * _Ty_size;

	mov	eax, DWORD PTR __Count$[ebp]

; 66   : }

	pop	edi
	pop	esi
	pop	ebx
	add	esp, 204				; 000000ccH
	cmp	ebp, esp
	call	__RTC_CheckEsp
	mov	esp, ebp
	pop	ebp
	ret	0
??$_Get_size_of_n@$00@std@@YAII@Z ENDP			; std::_Get_size_of_n<1>
_TEXT	ENDS
; Function compile flags: /Odtp /RTCsu /ZI
; File C:\Program Files (x86)\Microsoft Visual Studio\2019\Community\VC\Tools\MSVC\14.29.30133\include\xstddef
;	COMDAT ??$addressof@$$CBV?$_String_val@U?$_Simple_types@D@std@@@std@@@std@@YAPBV?$_String_val@U?$_Simple_types@D@std@@@0@ABV10@@Z
_TEXT	SEGMENT
__Val$ = 8						; size = 4
??$addressof@$$CBV?$_String_val@U?$_Simple_types@D@std@@@std@@@std@@YAPBV?$_String_val@U?$_Simple_types@D@std@@@0@ABV10@@Z PROC ; std::addressof<std::_String_val<std::_Simple_types<char> > const >, COMDAT

; 252  : _NODISCARD constexpr _Ty* addressof(_Ty& _Val) noexcept {

	push	ebp
	mov	ebp, esp
	sub	esp, 192				; 000000c0H
	push	ebx
	push	esi
	push	edi
	mov	edi, ebp
	xor	ecx, ecx
	mov	eax, -858993460				; ccccccccH
	rep stosd
	mov	ecx, OFFSET __E458E21C_xstddef
	call	@__CheckForDebuggerJustMyCode@4

; 253  :     return __builtin_addressof(_Val);

	mov	eax, DWORD PTR __Val$[ebp]

; 254  : }

	pop	edi
	pop	esi
	pop	ebx
	add	esp, 192				; 000000c0H
	cmp	ebp, esp
	call	__RTC_CheckEsp
	mov	esp, ebp
	pop	ebp
	ret	0
??$addressof@$$CBV?$_String_val@U?$_Simple_types@D@std@@@std@@@std@@YAPBV?$_String_val@U?$_Simple_types@D@std@@@0@ABV10@@Z ENDP ; std::addressof<std::_String_val<std::_Simple_types<char> > const >
_TEXT	ENDS
; Function compile flags: /Odtp /RTCsu /ZI
; File C:\Program Files (x86)\Microsoft Visual Studio\2019\Community\VC\Tools\MSVC\14.29.30133\include\xstddef
;	COMDAT ??$addressof@V?$_String_val@U?$_Simple_types@D@std@@@std@@@std@@YAPAV?$_String_val@U?$_Simple_types@D@std@@@0@AAV10@@Z
_TEXT	SEGMENT
__Val$ = 8						; size = 4
??$addressof@V?$_String_val@U?$_Simple_types@D@std@@@std@@@std@@YAPAV?$_String_val@U?$_Simple_types@D@std@@@0@AAV10@@Z PROC ; std::addressof<std::_String_val<std::_Simple_types<char> > >, COMDAT

; 252  : _NODISCARD constexpr _Ty* addressof(_Ty& _Val) noexcept {

	push	ebp
	mov	ebp, esp
	sub	esp, 192				; 000000c0H
	push	ebx
	push	esi
	push	edi
	mov	edi, ebp
	xor	ecx, ecx
	mov	eax, -858993460				; ccccccccH
	rep stosd
	mov	ecx, OFFSET __E458E21C_xstddef
	call	@__CheckForDebuggerJustMyCode@4

; 253  :     return __builtin_addressof(_Val);

	mov	eax, DWORD PTR __Val$[ebp]

; 254  : }

	pop	edi
	pop	esi
	pop	ebx
	add	esp, 192				; 000000c0H
	cmp	ebp, esp
	call	__RTC_CheckEsp
	mov	esp, ebp
	pop	ebp
	ret	0
??$addressof@V?$_String_val@U?$_Simple_types@D@std@@@std@@@std@@YAPAV?$_String_val@U?$_Simple_types@D@std@@@0@AAV10@@Z ENDP ; std::addressof<std::_String_val<std::_Simple_types<char> > >
_TEXT	ENDS
; Function compile flags: /Odtp /RTCsu /ZI
; File C:\Program Files (x86)\Microsoft Visual Studio\2019\Community\VC\Tools\MSVC\14.29.30133\include\xstddef
;	COMDAT ??$addressof@$$CBV?$_String_val@U?$_Simple_types@_W@std@@@std@@@std@@YAPBV?$_String_val@U?$_Simple_types@_W@std@@@0@ABV10@@Z
_TEXT	SEGMENT
__Val$ = 8						; size = 4
??$addressof@$$CBV?$_String_val@U?$_Simple_types@_W@std@@@std@@@std@@YAPBV?$_String_val@U?$_Simple_types@_W@std@@@0@ABV10@@Z PROC ; std::addressof<std::_String_val<std::_Simple_types<wchar_t> > const >, COMDAT

; 252  : _NODISCARD constexpr _Ty* addressof(_Ty& _Val) noexcept {

	push	ebp
	mov	ebp, esp
	sub	esp, 192				; 000000c0H
	push	ebx
	push	esi
	push	edi
	mov	edi, ebp
	xor	ecx, ecx
	mov	eax, -858993460				; ccccccccH
	rep stosd
	mov	ecx, OFFSET __E458E21C_xstddef
	call	@__CheckForDebuggerJustMyCode@4

; 253  :     return __builtin_addressof(_Val);

	mov	eax, DWORD PTR __Val$[ebp]

; 254  : }

	pop	edi
	pop	esi
	pop	ebx
	add	esp, 192				; 000000c0H
	cmp	ebp, esp
	call	__RTC_CheckEsp
	mov	esp, ebp
	pop	ebp
	ret	0
??$addressof@$$CBV?$_String_val@U?$_Simple_types@_W@std@@@std@@@std@@YAPBV?$_String_val@U?$_Simple_types@_W@std@@@0@ABV10@@Z ENDP ; std::addressof<std::_String_val<std::_Simple_types<wchar_t> > const >
_TEXT	ENDS
; Function compile flags: /Odtp /RTCsu /ZI
; File C:\Program Files (x86)\Microsoft Visual Studio\2019\Community\VC\Tools\MSVC\14.29.30133\include\xutility
;	COMDAT ??$_Construct_in_place@PA_WABQA_W@std@@YAXAAPA_WABQA_W@Z
_TEXT	SEGMENT
$T1 = -200						; size = 4
__Obj$ = 8						; size = 4
_<_Args_0>$ = 12					; size = 4
??$_Construct_in_place@PA_WABQA_W@std@@YAXAAPA_WABQA_W@Z PROC ; std::_Construct_in_place<wchar_t *,wchar_t * const &>, COMDAT

; 142  :     is_nothrow_constructible_v<_Ty, _Types...>) {

	push	ebp
	mov	ebp, esp
	sub	esp, 204				; 000000ccH
	push	ebx
	push	esi
	push	edi
	lea	edi, DWORD PTR [ebp-12]
	mov	ecx, 3
	mov	eax, -858993460				; ccccccccH
	rep stosd
	mov	ecx, OFFSET __12269DE6_xutility
	call	@__CheckForDebuggerJustMyCode@4
	mov	eax, DWORD PTR __Obj$[ebp]
	push	eax
	call	??$addressof@PA_W@std@@YAPAPA_WAAPA_W@Z	; std::addressof<wchar_t *>
	add	esp, 4
	push	eax
	call	??$_Voidify_iter@PAPA_W@std@@YAPAXPAPA_W@Z ; std::_Voidify_iter<wchar_t * *>
	add	esp, 4
	push	eax
	push	4
	call	??2@YAPAXIPAX@Z				; operator new
	add	esp, 8
	mov	DWORD PTR $T1[ebp], eax
	mov	ecx, DWORD PTR _<_Args_0>$[ebp]
	push	ecx
	call	??$forward@ABQA_W@std@@YAABQA_WABQA_W@Z	; std::forward<wchar_t * const &>
	add	esp, 4
	mov	edx, DWORD PTR $T1[ebp]
	mov	eax, DWORD PTR [eax]
	mov	DWORD PTR [edx], eax

; 143  : #ifdef __cpp_lib_constexpr_dynamic_alloc
; 144  :     if (_STD is_constant_evaluated()) {
; 145  :         _STD construct_at(_STD addressof(_Obj), _STD forward<_Types>(_Args)...);
; 146  :     } else
; 147  : #endif // __cpp_lib_constexpr_dynamic_alloc
; 148  :     {
; 149  :         ::new (_Voidify_iter(_STD addressof(_Obj))) _Ty(_STD forward<_Types>(_Args)...);
; 150  :     }
; 151  : }

	pop	edi
	pop	esi
	pop	ebx
	add	esp, 204				; 000000ccH
	cmp	ebp, esp
	call	__RTC_CheckEsp
	mov	esp, ebp
	pop	ebp
	ret	0
??$_Construct_in_place@PA_WABQA_W@std@@YAXAAPA_WABQA_W@Z ENDP ; std::_Construct_in_place<wchar_t *,wchar_t * const &>
_TEXT	ENDS
; Function compile flags: /Odtp /RTCsu /ZI
; File C:\Program Files (x86)\Microsoft Visual Studio\2019\Community\VC\Tools\MSVC\14.29.30133\include\xstddef
;	COMDAT ??$addressof@V?$_String_val@U?$_Simple_types@_W@std@@@std@@@std@@YAPAV?$_String_val@U?$_Simple_types@_W@std@@@0@AAV10@@Z
_TEXT	SEGMENT
__Val$ = 8						; size = 4
??$addressof@V?$_String_val@U?$_Simple_types@_W@std@@@std@@@std@@YAPAV?$_String_val@U?$_Simple_types@_W@std@@@0@AAV10@@Z PROC ; std::addressof<std::_String_val<std::_Simple_types<wchar_t> > >, COMDAT

; 252  : _NODISCARD constexpr _Ty* addressof(_Ty& _Val) noexcept {

	push	ebp
	mov	ebp, esp
	sub	esp, 192				; 000000c0H
	push	ebx
	push	esi
	push	edi
	mov	edi, ebp
	xor	ecx, ecx
	mov	eax, -858993460				; ccccccccH
	rep stosd
	mov	ecx, OFFSET __E458E21C_xstddef
	call	@__CheckForDebuggerJustMyCode@4

; 253  :     return __builtin_addressof(_Val);

	mov	eax, DWORD PTR __Val$[ebp]

; 254  : }

	pop	edi
	pop	esi
	pop	ebx
	add	esp, 192				; 000000c0H
	cmp	ebp, esp
	call	__RTC_CheckEsp
	mov	esp, ebp
	pop	ebp
	ret	0
??$addressof@V?$_String_val@U?$_Simple_types@_W@std@@@std@@@std@@YAPAV?$_String_val@U?$_Simple_types@_W@std@@@0@AAV10@@Z ENDP ; std::addressof<std::_String_val<std::_Simple_types<wchar_t> > >
_TEXT	ENDS
; Function compile flags: /Odtp /RTCsu /ZI
; File C:\Program Files (x86)\Microsoft Visual Studio\2019\Community\VC\Tools\MSVC\14.29.30133\include\xmemory
;	COMDAT ??$_Deallocate@$07$0A@@std@@YAXPAXI@Z
_TEXT	SEGMENT
__$EHRec$ = -12						; size = 12
__Ptr$ = 8						; size = 4
__Bytes$ = 12						; size = 4
??$_Deallocate@$07$0A@@std@@YAXPAXI@Z PROC		; std::_Deallocate<8,0>, COMDAT

; 242  : _CONSTEXPR20_DYNALLOC void _Deallocate(void* _Ptr, size_t _Bytes) noexcept {

	push	ebp
	mov	ebp, esp
	push	-1
	push	__ehhandler$??$_Deallocate@$07$0A@@std@@YAXPAXI@Z
	mov	eax, DWORD PTR fs:0
	push	eax
	sub	esp, 192				; 000000c0H
	push	ebx
	push	esi
	push	edi
	lea	edi, DWORD PTR [ebp-12]
	xor	ecx, ecx
	mov	eax, -858993460				; ccccccccH
	rep stosd
	mov	eax, DWORD PTR ___security_cookie
	xor	eax, ebp
	push	eax
	lea	eax, DWORD PTR __$EHRec$[ebp]
	mov	DWORD PTR fs:0, eax
	mov	ecx, OFFSET __79D216CD_xmemory
	call	@__CheckForDebuggerJustMyCode@4

; 243  :     // deallocate storage allocated by _Allocate when !_HAS_ALIGNED_NEW || _Align <= __STDCPP_DEFAULT_NEW_ALIGNMENT__
; 244  : #ifdef __cpp_lib_constexpr_dynamic_alloc // TRANSITION, GH-1532
; 245  :     if (_STD is_constant_evaluated()) {
; 246  :         ::operator delete(_Ptr);
; 247  :     } else
; 248  : #endif // __cpp_lib_constexpr_dynamic_alloc
; 249  :     {
; 250  : #if defined(_M_IX86) || defined(_M_X64)
; 251  :         if (_Bytes >= _Big_allocation_threshold) { // boost the alignment of big allocations to help autovectorization

	cmp	DWORD PTR __Bytes$[ebp], 4096		; 00001000H
	jb	SHORT $LN2@Deallocate

; 252  :             _Adjust_manually_vector_aligned(_Ptr, _Bytes);

	lea	eax, DWORD PTR __Bytes$[ebp]
	push	eax
	lea	ecx, DWORD PTR __Ptr$[ebp]
	push	ecx
	call	?_Adjust_manually_vector_aligned@std@@YAXAAPAXAAI@Z ; std::_Adjust_manually_vector_aligned
	add	esp, 8
$LN2@Deallocate:

; 253  :         }
; 254  : #endif // defined(_M_IX86) || defined(_M_X64)
; 255  :         ::operator delete(_Ptr, _Bytes);

	mov	eax, DWORD PTR __Bytes$[ebp]
	push	eax
	mov	ecx, DWORD PTR __Ptr$[ebp]
	push	ecx
	call	??3@YAXPAXI@Z				; operator delete
	add	esp, 8

; 256  :     }
; 257  : }

	mov	ecx, DWORD PTR __$EHRec$[ebp]
	mov	DWORD PTR fs:0, ecx
	pop	ecx
	pop	edi
	pop	esi
	pop	ebx
	add	esp, 204				; 000000ccH
	cmp	ebp, esp
	call	__RTC_CheckEsp
	mov	esp, ebp
	pop	ebp
	ret	0
	int	3
	int	3
	int	3
	int	3
	int	3
_TEXT	ENDS
;	COMDAT text$x
text$x	SEGMENT
__ehhandler$??$_Deallocate@$07$0A@@std@@YAXPAXI@Z:
	npad	1
	npad	1
	mov	edx, DWORD PTR [esp+8]
	lea	eax, DWORD PTR [edx+12]
	mov	ecx, DWORD PTR [edx-208]
	xor	ecx, eax
	call	@__security_check_cookie@4
	mov	eax, OFFSET __ehfuncinfo$??$_Deallocate@$07$0A@@std@@YAXPAXI@Z
	jmp	___CxxFrameHandler3
text$x	ENDS
??$_Deallocate@$07$0A@@std@@YAXPAXI@Z ENDP		; std::_Deallocate<8,0>
; Function compile flags: /Odtp /RTCsu /ZI
; File C:\Program Files (x86)\Microsoft Visual Studio\2019\Community\VC\Tools\MSVC\14.29.30133\include\xmemory
;	COMDAT ??$_Allocate@$07U_Default_allocate_traits@std@@$0A@@std@@YAPAXI@Z
_TEXT	SEGMENT
__Bytes$ = 8						; size = 4
??$_Allocate@$07U_Default_allocate_traits@std@@$0A@@std@@YAPAXI@Z PROC ; std::_Allocate<8,std::_Default_allocate_traits,0>, COMDAT

; 221  : __declspec(allocator) _CONSTEXPR20_DYNALLOC void* _Allocate(const size_t _Bytes) {

	push	ebp
	mov	ebp, esp
	sub	esp, 192				; 000000c0H
	push	ebx
	push	esi
	push	edi
	mov	edi, ebp
	xor	ecx, ecx
	mov	eax, -858993460				; ccccccccH
	rep stosd
	mov	ecx, OFFSET __79D216CD_xmemory
	call	@__CheckForDebuggerJustMyCode@4

; 222  :     // allocate _Bytes when !_HAS_ALIGNED_NEW || _Align <= __STDCPP_DEFAULT_NEW_ALIGNMENT__
; 223  : #if defined(_M_IX86) || defined(_M_X64)
; 224  : #ifdef __cpp_lib_constexpr_dynamic_alloc // TRANSITION, GH-1532
; 225  :     if (!_STD is_constant_evaluated())
; 226  : #endif // __cpp_lib_constexpr_dynamic_alloc
; 227  :     {
; 228  :         if (_Bytes >= _Big_allocation_threshold) { // boost the alignment of big allocations to help autovectorization

	cmp	DWORD PTR __Bytes$[ebp], 4096		; 00001000H
	jb	SHORT $LN2@Allocate

; 229  :             return _Allocate_manually_vector_aligned<_Traits>(_Bytes);

	mov	eax, DWORD PTR __Bytes$[ebp]
	push	eax
	call	??$_Allocate_manually_vector_aligned@U_Default_allocate_traits@std@@@std@@YAPAXI@Z ; std::_Allocate_manually_vector_aligned<std::_Default_allocate_traits>
	add	esp, 4
	jmp	SHORT $LN1@Allocate
$LN2@Allocate:

; 230  :         }
; 231  :     }
; 232  : #endif // defined(_M_IX86) || defined(_M_X64)
; 233  : 
; 234  :     if (_Bytes != 0) {

	cmp	DWORD PTR __Bytes$[ebp], 0
	je	SHORT $LN3@Allocate

; 235  :         return _Traits::_Allocate(_Bytes);

	mov	eax, DWORD PTR __Bytes$[ebp]
	push	eax
	call	?_Allocate@_Default_allocate_traits@std@@SAPAXI@Z ; std::_Default_allocate_traits::_Allocate
	add	esp, 4
	jmp	SHORT $LN1@Allocate
$LN3@Allocate:

; 236  :     }
; 237  : 
; 238  :     return nullptr;

	xor	eax, eax
$LN1@Allocate:

; 239  : }

	pop	edi
	pop	esi
	pop	ebx
	add	esp, 192				; 000000c0H
	cmp	ebp, esp
	call	__RTC_CheckEsp
	mov	esp, ebp
	pop	ebp
	ret	0
??$_Allocate@$07U_Default_allocate_traits@std@@$0A@@std@@YAPAXI@Z ENDP ; std::_Allocate<8,std::_Default_allocate_traits,0>
_TEXT	ENDS
; Function compile flags: /Odtp /RTCsu /ZI
; File C:\Program Files (x86)\Microsoft Visual Studio\2019\Community\VC\Tools\MSVC\14.29.30133\include\xmemory
;	COMDAT ??$_Get_size_of_n@$07@std@@YAII@Z
_TEXT	SEGMENT
__Max_possible$1 = -20					; size = 4
__Overflow_is_possible$ = -5				; size = 1
__Count$ = 8						; size = 4
??$_Get_size_of_n@$07@std@@YAII@Z PROC			; std::_Get_size_of_n<8>, COMDAT

; 55   : _NODISCARD constexpr size_t _Get_size_of_n(const size_t _Count) {

	push	ebp
	mov	ebp, esp
	sub	esp, 216				; 000000d8H
	push	ebx
	push	esi
	push	edi
	lea	edi, DWORD PTR [ebp-24]
	mov	ecx, 6
	mov	eax, -858993460				; ccccccccH
	rep stosd
	mov	ecx, OFFSET __79D216CD_xmemory
	call	@__CheckForDebuggerJustMyCode@4

; 56   :     constexpr bool _Overflow_is_possible = _Ty_size > 1;

	mov	BYTE PTR __Overflow_is_possible$[ebp], 1

; 57   : 
; 58   :     if constexpr (_Overflow_is_possible) {
; 59   :         constexpr size_t _Max_possible = static_cast<size_t>(-1) / _Ty_size;

	mov	DWORD PTR __Max_possible$1[ebp], 536870911 ; 1fffffffH

; 60   :         if (_Count > _Max_possible) {

	cmp	DWORD PTR __Count$[ebp], 536870911	; 1fffffffH
	jbe	SHORT $LN2@Get_size_o

; 61   :             _Throw_bad_array_new_length(); // multiply overflow

	call	?_Throw_bad_array_new_length@std@@YAXXZ	; std::_Throw_bad_array_new_length
$LN2@Get_size_o:

; 62   :         }
; 63   :     }
; 64   : 
; 65   :     return _Count * _Ty_size;

	mov	eax, DWORD PTR __Count$[ebp]
	shl	eax, 3
$LN3@Get_size_o:

; 66   : }

	pop	edi
	pop	esi
	pop	ebx
	add	esp, 216				; 000000d8H
	cmp	ebp, esp
	call	__RTC_CheckEsp
	mov	esp, ebp
	pop	ebp
	ret	0
??$_Get_size_of_n@$07@std@@YAII@Z ENDP			; std::_Get_size_of_n<8>
_TEXT	ENDS
; Function compile flags: /Odtp /RTCsu /ZI
; File C:\Program Files (x86)\Microsoft Visual Studio\2019\Community\VC\Tools\MSVC\14.29.30133\include\utility
;	COMDAT ??$max@I@std@@YAABIABI0@Z
_TEXT	SEGMENT
tv65 = -208						; size = 4
$T1 = -200						; size = 4
__Left$ = 8						; size = 4
__Right$ = 12						; size = 4
??$max@I@std@@YAABIABI0@Z PROC				; std::max<unsigned int>, COMDAT

; 41   :     const _Ty& _Left, const _Ty& _Right) noexcept(noexcept(_Left < _Right)) /* strengthened */ {

	push	ebp
	mov	ebp, esp
	sub	esp, 208				; 000000d0H
	push	ebx
	push	esi
	push	edi
	lea	edi, DWORD PTR [ebp-16]
	mov	ecx, 4
	mov	eax, -858993460				; ccccccccH
	rep stosd
	mov	ecx, OFFSET __1347750E_utility
	call	@__CheckForDebuggerJustMyCode@4

; 42   :     // return larger of _Left and _Right
; 43   :     return _Left < _Right ? _Right : _Left;

	mov	eax, DWORD PTR __Left$[ebp]
	mov	ecx, DWORD PTR __Right$[ebp]
	mov	edx, DWORD PTR [eax]
	cmp	edx, DWORD PTR [ecx]
	jae	SHORT $LN3@max
	mov	eax, DWORD PTR __Right$[ebp]
	mov	DWORD PTR tv65[ebp], eax
	jmp	SHORT $LN4@max
$LN3@max:
	mov	ecx, DWORD PTR __Left$[ebp]
	mov	DWORD PTR tv65[ebp], ecx
$LN4@max:
	mov	edx, DWORD PTR tv65[ebp]
	mov	DWORD PTR $T1[ebp], edx
	mov	eax, DWORD PTR $T1[ebp]

; 44   : }

	pop	edi
	pop	esi
	pop	ebx
	add	esp, 208				; 000000d0H
	cmp	ebp, esp
	call	__RTC_CheckEsp
	mov	esp, ebp
	pop	ebp
	ret	0
??$max@I@std@@YAABIABI0@Z ENDP				; std::max<unsigned int>
_TEXT	ENDS
; Function compile flags: /Odtp /RTCsu /ZI
; File C:\Program Files (x86)\Microsoft Visual Studio\2019\Community\VC\Tools\MSVC\14.29.30133\include\xutility
;	COMDAT ??$_Construct_in_place@PADAAPAD@std@@YAXAAPAD0@Z
_TEXT	SEGMENT
$T1 = -200						; size = 4
__Obj$ = 8						; size = 4
_<_Args_0>$ = 12					; size = 4
??$_Construct_in_place@PADAAPAD@std@@YAXAAPAD0@Z PROC	; std::_Construct_in_place<char *,char * &>, COMDAT

; 142  :     is_nothrow_constructible_v<_Ty, _Types...>) {

	push	ebp
	mov	ebp, esp
	sub	esp, 204				; 000000ccH
	push	ebx
	push	esi
	push	edi
	lea	edi, DWORD PTR [ebp-12]
	mov	ecx, 3
	mov	eax, -858993460				; ccccccccH
	rep stosd
	mov	ecx, OFFSET __12269DE6_xutility
	call	@__CheckForDebuggerJustMyCode@4
	mov	eax, DWORD PTR __Obj$[ebp]
	push	eax
	call	??$addressof@PAD@std@@YAPAPADAAPAD@Z	; std::addressof<char *>
	add	esp, 4
	push	eax
	call	??$_Voidify_iter@PAPAD@std@@YAPAXPAPAD@Z ; std::_Voidify_iter<char * *>
	add	esp, 4
	push	eax
	push	4
	call	??2@YAPAXIPAX@Z				; operator new
	add	esp, 8
	mov	DWORD PTR $T1[ebp], eax
	mov	ecx, DWORD PTR _<_Args_0>$[ebp]
	push	ecx
	call	??$forward@AAPAD@std@@YAAAPADAAPAD@Z	; std::forward<char * &>
	add	esp, 4
	mov	edx, DWORD PTR $T1[ebp]
	mov	eax, DWORD PTR [eax]
	mov	DWORD PTR [edx], eax

; 143  : #ifdef __cpp_lib_constexpr_dynamic_alloc
; 144  :     if (_STD is_constant_evaluated()) {
; 145  :         _STD construct_at(_STD addressof(_Obj), _STD forward<_Types>(_Args)...);
; 146  :     } else
; 147  : #endif // __cpp_lib_constexpr_dynamic_alloc
; 148  :     {
; 149  :         ::new (_Voidify_iter(_STD addressof(_Obj))) _Ty(_STD forward<_Types>(_Args)...);
; 150  :     }
; 151  : }

	pop	edi
	pop	esi
	pop	ebx
	add	esp, 204				; 000000ccH
	cmp	ebp, esp
	call	__RTC_CheckEsp
	mov	esp, ebp
	pop	ebp
	ret	0
??$_Construct_in_place@PADAAPAD@std@@YAXAAPAD0@Z ENDP	; std::_Construct_in_place<char *,char * &>
_TEXT	ENDS
; Function compile flags: /Odtp /RTCsu /ZI
; File C:\Program Files (x86)\Microsoft Visual Studio\2019\Community\VC\Tools\MSVC\14.29.30133\include\xstddef
;	COMDAT ??$_Unfancy@D@std@@YAPADPAD@Z
_TEXT	SEGMENT
__Ptr$ = 8						; size = 4
??$_Unfancy@D@std@@YAPADPAD@Z PROC			; std::_Unfancy<char>, COMDAT

; 265  : _NODISCARD constexpr _Ty* _Unfancy(_Ty* _Ptr) noexcept { // do nothing for plain pointers

	push	ebp
	mov	ebp, esp
	sub	esp, 192				; 000000c0H
	push	ebx
	push	esi
	push	edi
	mov	edi, ebp
	xor	ecx, ecx
	mov	eax, -858993460				; ccccccccH
	rep stosd
	mov	ecx, OFFSET __E458E21C_xstddef
	call	@__CheckForDebuggerJustMyCode@4

; 266  :     return _Ptr;

	mov	eax, DWORD PTR __Ptr$[ebp]

; 267  : }

	pop	edi
	pop	esi
	pop	ebx
	add	esp, 192				; 000000c0H
	cmp	ebp, esp
	call	__RTC_CheckEsp
	mov	esp, ebp
	pop	ebp
	ret	0
??$_Unfancy@D@std@@YAPADPAD@Z ENDP			; std::_Unfancy<char>
_TEXT	ENDS
; Function compile flags: /Odtp /RTCsu /ZI
; File C:\Program Files (x86)\Microsoft Visual Studio\2019\Community\VC\Tools\MSVC\14.29.30133\include\xutility
;	COMDAT ??$_Construct_in_place@PADABQAD@std@@YAXAAPADABQAD@Z
_TEXT	SEGMENT
$T1 = -200						; size = 4
__Obj$ = 8						; size = 4
_<_Args_0>$ = 12					; size = 4
??$_Construct_in_place@PADABQAD@std@@YAXAAPADABQAD@Z PROC ; std::_Construct_in_place<char *,char * const &>, COMDAT

; 142  :     is_nothrow_constructible_v<_Ty, _Types...>) {

	push	ebp
	mov	ebp, esp
	sub	esp, 204				; 000000ccH
	push	ebx
	push	esi
	push	edi
	lea	edi, DWORD PTR [ebp-12]
	mov	ecx, 3
	mov	eax, -858993460				; ccccccccH
	rep stosd
	mov	ecx, OFFSET __12269DE6_xutility
	call	@__CheckForDebuggerJustMyCode@4
	mov	eax, DWORD PTR __Obj$[ebp]
	push	eax
	call	??$addressof@PAD@std@@YAPAPADAAPAD@Z	; std::addressof<char *>
	add	esp, 4
	push	eax
	call	??$_Voidify_iter@PAPAD@std@@YAPAXPAPAD@Z ; std::_Voidify_iter<char * *>
	add	esp, 4
	push	eax
	push	4
	call	??2@YAPAXIPAX@Z				; operator new
	add	esp, 8
	mov	DWORD PTR $T1[ebp], eax
	mov	ecx, DWORD PTR _<_Args_0>$[ebp]
	push	ecx
	call	??$forward@ABQAD@std@@YAABQADABQAD@Z	; std::forward<char * const &>
	add	esp, 4
	mov	edx, DWORD PTR $T1[ebp]
	mov	eax, DWORD PTR [eax]
	mov	DWORD PTR [edx], eax

; 143  : #ifdef __cpp_lib_constexpr_dynamic_alloc
; 144  :     if (_STD is_constant_evaluated()) {
; 145  :         _STD construct_at(_STD addressof(_Obj), _STD forward<_Types>(_Args)...);
; 146  :     } else
; 147  : #endif // __cpp_lib_constexpr_dynamic_alloc
; 148  :     {
; 149  :         ::new (_Voidify_iter(_STD addressof(_Obj))) _Ty(_STD forward<_Types>(_Args)...);
; 150  :     }
; 151  : }

	pop	edi
	pop	esi
	pop	ebx
	add	esp, 204				; 000000ccH
	cmp	ebp, esp
	call	__RTC_CheckEsp
	mov	esp, ebp
	pop	ebp
	ret	0
??$_Construct_in_place@PADABQAD@std@@YAXAAPADABQAD@Z ENDP ; std::_Construct_in_place<char *,char * const &>
_TEXT	ENDS
; Function compile flags: /Odtp /RTCsu /ZI
; File C:\Program Files (x86)\Microsoft Visual Studio\2019\Community\VC\Tools\MSVC\14.29.30133\include\xstring
;	COMDAT ??$_Reallocate_grow_by@V<lambda_ab246b20b9526e2ef7792587e4298a77>@@PBDI@?$basic_string@DU?$char_traits@D@std@@V?$allocator@D@2@@std@@AAEAAV01@IV<lambda_ab246b20b9526e2ef7792587e4298a77>@@PBDI@Z
_TEXT	SEGMENT
__Old_ptr$1 = -120					; size = 4
__Raw_new$ = -108					; size = 4
__New_ptr$ = -96					; size = 4
__Al$ = -84						; size = 4
__New_capacity$ = -72					; size = 4
__Old_capacity$ = -60					; size = 4
__New_size$ = -48					; size = 4
__Old_size$ = -36					; size = 4
__My_data$ = -24					; size = 4
_this$ = -12						; size = 4
__$ArrayPad$ = -4					; size = 4
__Size_increase$ = 8					; size = 4
__Fn$ = 12						; size = 1
_<_Args_0>$ = 16					; size = 4
_<_Args_1>$ = 20					; size = 4
??$_Reallocate_grow_by@V<lambda_ab246b20b9526e2ef7792587e4298a77>@@PBDI@?$basic_string@DU?$char_traits@D@std@@V?$allocator@D@2@@std@@AAEAAV01@IV<lambda_ab246b20b9526e2ef7792587e4298a77>@@PBDI@Z PROC ; std::basic_string<char,std::char_traits<char>,std::allocator<char> >::_Reallocate_grow_by<<lambda_ab246b20b9526e2ef7792587e4298a77>,char const *,unsigned int>, COMDAT
; _this$ = ecx

; 4504 :         const size_type _Size_increase, _Fty _Fn, _ArgTys... _Args) {

	push	ebp
	mov	ebp, esp
	sub	esp, 316				; 0000013cH
	push	ebx
	push	esi
	push	edi
	push	ecx
	lea	edi, DWORD PTR [ebp-124]
	mov	ecx, 31					; 0000001fH
	mov	eax, -858993460				; ccccccccH
	rep stosd
	pop	ecx
	mov	eax, DWORD PTR ___security_cookie
	xor	eax, ebp
	mov	DWORD PTR __$ArrayPad$[ebp], eax
	mov	DWORD PTR _this$[ebp], ecx
	mov	ecx, OFFSET __0D019051_xstring
	call	@__CheckForDebuggerJustMyCode@4

; 4505 :         // reallocate to increase size by _Size_increase elements, new buffer prepared by
; 4506 :         // _Fn(_New_ptr, _Old_ptr, _Old_size, _Args...)
; 4507 :         auto& _My_data            = _Mypair._Myval2;

	mov	eax, DWORD PTR _this$[ebp]
	mov	DWORD PTR __My_data$[ebp], eax

; 4508 :         const size_type _Old_size = _My_data._Mysize;

	mov	eax, DWORD PTR __My_data$[ebp]
	mov	ecx, DWORD PTR [eax+20]
	mov	DWORD PTR __Old_size$[ebp], ecx

; 4509 :         if (max_size() - _Old_size < _Size_increase) {

	mov	ecx, DWORD PTR _this$[ebp]
	call	?max_size@?$basic_string@DU?$char_traits@D@std@@V?$allocator@D@2@@std@@QBEIXZ ; std::basic_string<char,std::char_traits<char>,std::allocator<char> >::max_size
	sub	eax, DWORD PTR __Old_size$[ebp]
	cmp	eax, DWORD PTR __Size_increase$[ebp]
	jae	SHORT $LN2@Reallocate

; 4510 :             _Xlen_string(); // result too long

	call	?_Xlen_string@std@@YAXXZ		; std::_Xlen_string
$LN2@Reallocate:

; 4511 :         }
; 4512 : 
; 4513 :         const size_type _New_size     = _Old_size + _Size_increase;

	mov	eax, DWORD PTR __Old_size$[ebp]
	add	eax, DWORD PTR __Size_increase$[ebp]
	mov	DWORD PTR __New_size$[ebp], eax

; 4514 :         const size_type _Old_capacity = _My_data._Myres;

	mov	eax, DWORD PTR __My_data$[ebp]
	mov	ecx, DWORD PTR [eax+24]
	mov	DWORD PTR __Old_capacity$[ebp], ecx

; 4515 :         const size_type _New_capacity = _Calculate_growth(_New_size);

	mov	eax, DWORD PTR __New_size$[ebp]
	push	eax
	mov	ecx, DWORD PTR _this$[ebp]
	call	?_Calculate_growth@?$basic_string@DU?$char_traits@D@std@@V?$allocator@D@2@@std@@ABEII@Z ; std::basic_string<char,std::char_traits<char>,std::allocator<char> >::_Calculate_growth
	mov	DWORD PTR __New_capacity$[ebp], eax

; 4516 :         auto& _Al                     = _Getal();

	mov	ecx, DWORD PTR _this$[ebp]
	call	?_Getal@?$basic_string@DU?$char_traits@D@std@@V?$allocator@D@2@@std@@AAEAAV?$allocator@D@2@XZ ; std::basic_string<char,std::char_traits<char>,std::allocator<char> >::_Getal
	mov	DWORD PTR __Al$[ebp], eax

; 4517 :         const pointer _New_ptr        = _Al.allocate(_New_capacity + 1); // throws

	xor	eax, eax
	mov	ecx, DWORD PTR __New_capacity$[ebp]
	add	ecx, 1
	setb	al
	neg	eax
	or	eax, ecx
	push	eax
	mov	ecx, DWORD PTR __Al$[ebp]
	call	?allocate@?$allocator@D@std@@QAEPADI@Z	; std::allocator<char>::allocate
	mov	DWORD PTR __New_ptr$[ebp], eax

; 4518 : 
; 4519 : #ifdef __cpp_lib_constexpr_string
; 4520 :         if (_STD is_constant_evaluated()) { // Begin the lifetimes of the objects before copying to avoid UB
; 4521 :             _Traits::assign(_Unfancy(_New_ptr), _New_capacity + 1, _Elem());
; 4522 :         }
; 4523 : #endif // __cpp_lib_constexpr_string
; 4524 :         _My_data._Orphan_all();

	mov	ecx, DWORD PTR __My_data$[ebp]
	call	?_Orphan_all@_Container_base12@std@@QAEXXZ ; std::_Container_base12::_Orphan_all

; 4525 :         _My_data._Mysize      = _New_size;

	mov	eax, DWORD PTR __My_data$[ebp]
	mov	ecx, DWORD PTR __New_size$[ebp]
	mov	DWORD PTR [eax+20], ecx

; 4526 :         _My_data._Myres       = _New_capacity;

	mov	eax, DWORD PTR __My_data$[ebp]
	mov	ecx, DWORD PTR __New_capacity$[ebp]
	mov	DWORD PTR [eax+24], ecx

; 4527 :         _Elem* const _Raw_new = _Unfancy(_New_ptr);

	mov	eax, DWORD PTR __New_ptr$[ebp]
	push	eax
	call	??$_Unfancy@D@std@@YAPADPAD@Z		; std::_Unfancy<char>
	add	esp, 4
	mov	DWORD PTR __Raw_new$[ebp], eax

; 4528 :         if (_BUF_SIZE <= _Old_capacity) {

	cmp	DWORD PTR __Old_capacity$[ebp], 16	; 00000010H
	jb	SHORT $LN3@Reallocate

; 4529 :             const pointer _Old_ptr = _My_data._Bx._Ptr;

	mov	eax, DWORD PTR __My_data$[ebp]
	mov	ecx, DWORD PTR [eax+4]
	mov	DWORD PTR __Old_ptr$1[ebp], ecx

; 4530 :             _Fn(_Raw_new, _Unfancy(_Old_ptr), _Old_size, _Args...);

	mov	eax, DWORD PTR _<_Args_1>$[ebp]
	push	eax
	mov	ecx, DWORD PTR _<_Args_0>$[ebp]
	push	ecx
	mov	edx, DWORD PTR __Old_size$[ebp]
	push	edx
	mov	eax, DWORD PTR __Old_ptr$1[ebp]
	push	eax
	call	??$_Unfancy@D@std@@YAPADPAD@Z		; std::_Unfancy<char>
	add	esp, 4
	push	eax
	mov	ecx, DWORD PTR __Raw_new$[ebp]
	push	ecx
	lea	ecx, DWORD PTR __Fn$[ebp]
	call	??R<lambda_ab246b20b9526e2ef7792587e4298a77>@@QBE@QADQBDI1I@Z ; <lambda_ab246b20b9526e2ef7792587e4298a77>::operator()

; 4531 :             _Al.deallocate(_Old_ptr, _Old_capacity + 1);

	mov	eax, DWORD PTR __Old_capacity$[ebp]
	add	eax, 1
	push	eax
	mov	ecx, DWORD PTR __Old_ptr$1[ebp]
	push	ecx
	mov	ecx, DWORD PTR __Al$[ebp]
	call	?deallocate@?$allocator@D@std@@QAEXQADI@Z ; std::allocator<char>::deallocate

; 4532 :             _My_data._Bx._Ptr = _New_ptr;

	mov	eax, DWORD PTR __My_data$[ebp]
	mov	ecx, DWORD PTR __New_ptr$[ebp]
	mov	DWORD PTR [eax+4], ecx

; 4533 :         } else {

	jmp	SHORT $LN4@Reallocate
$LN3@Reallocate:

; 4534 :             _Fn(_Raw_new, _My_data._Bx._Buf, _Old_size, _Args...);

	mov	eax, DWORD PTR _<_Args_1>$[ebp]
	push	eax
	mov	ecx, DWORD PTR _<_Args_0>$[ebp]
	push	ecx
	mov	edx, DWORD PTR __Old_size$[ebp]
	push	edx
	mov	eax, DWORD PTR __My_data$[ebp]
	add	eax, 4
	push	eax
	mov	ecx, DWORD PTR __Raw_new$[ebp]
	push	ecx
	lea	ecx, DWORD PTR __Fn$[ebp]
	call	??R<lambda_ab246b20b9526e2ef7792587e4298a77>@@QBE@QADQBDI1I@Z ; <lambda_ab246b20b9526e2ef7792587e4298a77>::operator()

; 4535 :             _Construct_in_place(_My_data._Bx._Ptr, _New_ptr);

	lea	eax, DWORD PTR __New_ptr$[ebp]
	push	eax
	mov	ecx, DWORD PTR __My_data$[ebp]
	add	ecx, 4
	push	ecx
	call	??$_Construct_in_place@PADABQAD@std@@YAXAAPADABQAD@Z ; std::_Construct_in_place<char *,char * const &>
	add	esp, 8
$LN4@Reallocate:

; 4536 :         }
; 4537 : 
; 4538 :         return *this;

	mov	eax, DWORD PTR _this$[ebp]
$LN5@Reallocate:

; 4539 :     }

	push	edx
	mov	ecx, ebp
	push	eax
	lea	edx, DWORD PTR $LN8@Reallocate
	call	@_RTC_CheckStackVars@8
	pop	eax
	pop	edx
	pop	edi
	pop	esi
	pop	ebx
	mov	ecx, DWORD PTR __$ArrayPad$[ebp]
	xor	ecx, ebp
	call	@__security_check_cookie@4
	add	esp, 316				; 0000013cH
	cmp	ebp, esp
	call	__RTC_CheckEsp
	mov	esp, ebp
	pop	ebp
	ret	16					; 00000010H
$LN8@Reallocate:
	DD	1
	DD	$LN7@Reallocate
$LN7@Reallocate:
	DD	-96					; ffffffa0H
	DD	4
	DD	$LN6@Reallocate
$LN6@Reallocate:
	DB	95					; 0000005fH
	DB	78					; 0000004eH
	DB	101					; 00000065H
	DB	119					; 00000077H
	DB	95					; 0000005fH
	DB	112					; 00000070H
	DB	116					; 00000074H
	DB	114					; 00000072H
	DB	0
??$_Reallocate_grow_by@V<lambda_ab246b20b9526e2ef7792587e4298a77>@@PBDI@?$basic_string@DU?$char_traits@D@std@@V?$allocator@D@2@@std@@AAEAAV01@IV<lambda_ab246b20b9526e2ef7792587e4298a77>@@PBDI@Z ENDP ; std::basic_string<char,std::char_traits<char>,std::allocator<char> >::_Reallocate_grow_by<<lambda_ab246b20b9526e2ef7792587e4298a77>,char const *,unsigned int>
_TEXT	ENDS
; Function compile flags: /Odtp /RTCsu /ZI
; File C:\Program Files (x86)\Microsoft Visual Studio\2019\Community\VC\Tools\MSVC\14.29.30133\include\xstring
;	COMDAT ??R<lambda_ab246b20b9526e2ef7792587e4298a77>@@QBE@QADQBDI1I@Z
_TEXT	SEGMENT
$T1 = -209						; size = 1
_this$ = -8						; size = 4
__New_ptr$ = 8						; size = 4
__Old_ptr$ = 12						; size = 4
__Old_size$ = 16					; size = 4
__Ptr$ = 20						; size = 4
__Count$ = 24						; size = 4
??R<lambda_ab246b20b9526e2ef7792587e4298a77>@@QBE@QADQBDI1I@Z PROC ; <lambda_ab246b20b9526e2ef7792587e4298a77>::operator(), COMDAT
; _this$ = ecx

; 3132 :                 const size_type _Count) {

	push	ebp
	mov	ebp, esp
	sub	esp, 216				; 000000d8H
	push	ebx
	push	esi
	push	edi
	push	ecx
	lea	edi, DWORD PTR [ebp-24]
	mov	ecx, 6
	mov	eax, -858993460				; ccccccccH
	rep stosd
	pop	ecx
	mov	DWORD PTR _this$[ebp], ecx
	mov	ecx, OFFSET __0D019051_xstring
	call	@__CheckForDebuggerJustMyCode@4

; 3133 :                 _Traits::copy(_New_ptr, _Old_ptr, _Old_size);

	mov	eax, DWORD PTR __Old_size$[ebp]
	push	eax
	mov	ecx, DWORD PTR __Old_ptr$[ebp]
	push	ecx
	mov	edx, DWORD PTR __New_ptr$[ebp]
	push	edx
	call	?copy@?$_Char_traits@DH@std@@SAPADQADQBDI@Z ; std::_Char_traits<char,int>::copy
	add	esp, 12					; 0000000cH

; 3134 :                 _Traits::copy(_New_ptr + _Old_size, _Ptr, _Count);

	mov	eax, DWORD PTR __Count$[ebp]
	push	eax
	mov	ecx, DWORD PTR __Ptr$[ebp]
	push	ecx
	mov	edx, DWORD PTR __New_ptr$[ebp]
	add	edx, DWORD PTR __Old_size$[ebp]
	push	edx
	call	?copy@?$_Char_traits@DH@std@@SAPADQADQBDI@Z ; std::_Char_traits<char,int>::copy
	add	esp, 12					; 0000000cH

; 3135 :                 _Traits::assign(_New_ptr[_Old_size + _Count], _Elem());

	mov	BYTE PTR $T1[ebp], 0
	lea	eax, DWORD PTR $T1[ebp]
	push	eax
	mov	ecx, DWORD PTR __Old_size$[ebp]
	add	ecx, DWORD PTR __Count$[ebp]
	add	ecx, DWORD PTR __New_ptr$[ebp]
	push	ecx
	call	?assign@?$_Narrow_char_traits@DH@std@@SAXAADABD@Z ; std::_Narrow_char_traits<char,int>::assign
	add	esp, 8

; 3136 :             },

	pop	edi
	pop	esi
	pop	ebx
	add	esp, 216				; 000000d8H
	cmp	ebp, esp
	call	__RTC_CheckEsp
	mov	esp, ebp
	pop	ebp
	ret	20					; 00000014H
??R<lambda_ab246b20b9526e2ef7792587e4298a77>@@QBE@QADQBDI1I@Z ENDP ; <lambda_ab246b20b9526e2ef7792587e4298a77>::operator()
_TEXT	ENDS
; Function compile flags: /Odtp /RTCsu /ZI
; File C:\Program Files (x86)\Microsoft Visual Studio\2019\Community\VC\Tools\MSVC\14.29.30133\include\xstring
;	COMDAT ??$_Reallocate_for@V<lambda_9366063389c5f42a00a5088cf24e69de>@@PBD@?$basic_string@DU?$char_traits@D@std@@V?$allocator@D@2@@std@@AAEAAV01@IV<lambda_9366063389c5f42a00a5088cf24e69de>@@PBD@Z
_TEXT	SEGMENT
__New_ptr$ = -60					; size = 4
__Al$ = -48						; size = 4
__New_capacity$ = -36					; size = 4
__Old_capacity$ = -24					; size = 4
_this$ = -12						; size = 4
__$ArrayPad$ = -4					; size = 4
__New_size$ = 8						; size = 4
__Fn$ = 12						; size = 1
_<_Args_0>$ = 16					; size = 4
??$_Reallocate_for@V<lambda_9366063389c5f42a00a5088cf24e69de>@@PBD@?$basic_string@DU?$char_traits@D@std@@V?$allocator@D@2@@std@@AAEAAV01@IV<lambda_9366063389c5f42a00a5088cf24e69de>@@PBD@Z PROC ; std::basic_string<char,std::char_traits<char>,std::allocator<char> >::_Reallocate_for<<lambda_9366063389c5f42a00a5088cf24e69de>,char const *>, COMDAT
; _this$ = ecx

; 4471 :     _CONSTEXPR20_CONTAINER basic_string& _Reallocate_for(const size_type _New_size, _Fty _Fn, _ArgTys... _Args) {

	push	ebp
	mov	ebp, esp
	sub	esp, 256				; 00000100H
	push	ebx
	push	esi
	push	edi
	push	ecx
	lea	edi, DWORD PTR [ebp-64]
	mov	ecx, 16					; 00000010H
	mov	eax, -858993460				; ccccccccH
	rep stosd
	pop	ecx
	mov	eax, DWORD PTR ___security_cookie
	xor	eax, ebp
	mov	DWORD PTR __$ArrayPad$[ebp], eax
	mov	DWORD PTR _this$[ebp], ecx
	mov	ecx, OFFSET __0D019051_xstring
	call	@__CheckForDebuggerJustMyCode@4

; 4472 :         // reallocate to store exactly _New_size elements, new buffer prepared by
; 4473 :         // _Fn(_New_ptr, _New_size, _Args...)
; 4474 :         if (_New_size > max_size()) {

	mov	ecx, DWORD PTR _this$[ebp]
	call	?max_size@?$basic_string@DU?$char_traits@D@std@@V?$allocator@D@2@@std@@QBEIXZ ; std::basic_string<char,std::char_traits<char>,std::allocator<char> >::max_size
	cmp	DWORD PTR __New_size$[ebp], eax
	jbe	SHORT $LN2@Reallocate

; 4475 :             _Xlen_string(); // result too long

	call	?_Xlen_string@std@@YAXXZ		; std::_Xlen_string
$LN2@Reallocate:

; 4476 :         }
; 4477 : 
; 4478 :         const size_type _Old_capacity = _Mypair._Myval2._Myres;

	mov	eax, DWORD PTR _this$[ebp]
	mov	ecx, DWORD PTR [eax+24]
	mov	DWORD PTR __Old_capacity$[ebp], ecx

; 4479 :         const size_type _New_capacity = _Calculate_growth(_New_size);

	mov	eax, DWORD PTR __New_size$[ebp]
	push	eax
	mov	ecx, DWORD PTR _this$[ebp]
	call	?_Calculate_growth@?$basic_string@DU?$char_traits@D@std@@V?$allocator@D@2@@std@@ABEII@Z ; std::basic_string<char,std::char_traits<char>,std::allocator<char> >::_Calculate_growth
	mov	DWORD PTR __New_capacity$[ebp], eax

; 4480 :         auto& _Al                     = _Getal();

	mov	ecx, DWORD PTR _this$[ebp]
	call	?_Getal@?$basic_string@DU?$char_traits@D@std@@V?$allocator@D@2@@std@@AAEAAV?$allocator@D@2@XZ ; std::basic_string<char,std::char_traits<char>,std::allocator<char> >::_Getal
	mov	DWORD PTR __Al$[ebp], eax

; 4481 :         const pointer _New_ptr        = _Al.allocate(_New_capacity + 1); // throws

	xor	eax, eax
	mov	ecx, DWORD PTR __New_capacity$[ebp]
	add	ecx, 1
	setb	al
	neg	eax
	or	eax, ecx
	push	eax
	mov	ecx, DWORD PTR __Al$[ebp]
	call	?allocate@?$allocator@D@std@@QAEPADI@Z	; std::allocator<char>::allocate
	mov	DWORD PTR __New_ptr$[ebp], eax

; 4482 : 
; 4483 : #ifdef __cpp_lib_constexpr_string
; 4484 :         if (_STD is_constant_evaluated()) { // Begin the lifetimes of the objects before copying to avoid UB
; 4485 :             _Traits::assign(_Unfancy(_New_ptr), _New_capacity + 1, _Elem());
; 4486 :         }
; 4487 : #endif // __cpp_lib_constexpr_string
; 4488 :         _Mypair._Myval2._Orphan_all();

	mov	ecx, DWORD PTR _this$[ebp]
	call	?_Orphan_all@_Container_base12@std@@QAEXXZ ; std::_Container_base12::_Orphan_all

; 4489 :         _Mypair._Myval2._Mysize = _New_size;

	mov	eax, DWORD PTR _this$[ebp]
	mov	ecx, DWORD PTR __New_size$[ebp]
	mov	DWORD PTR [eax+20], ecx

; 4490 :         _Mypair._Myval2._Myres  = _New_capacity;

	mov	eax, DWORD PTR _this$[ebp]
	mov	ecx, DWORD PTR __New_capacity$[ebp]
	mov	DWORD PTR [eax+24], ecx

; 4491 :         _Fn(_Unfancy(_New_ptr), _New_size, _Args...);

	mov	eax, DWORD PTR _<_Args_0>$[ebp]
	push	eax
	mov	ecx, DWORD PTR __New_size$[ebp]
	push	ecx
	mov	edx, DWORD PTR __New_ptr$[ebp]
	push	edx
	call	??$_Unfancy@D@std@@YAPADPAD@Z		; std::_Unfancy<char>
	add	esp, 4
	push	eax
	lea	ecx, DWORD PTR __Fn$[ebp]
	call	??R<lambda_9366063389c5f42a00a5088cf24e69de>@@QBE@QADIQBD@Z ; <lambda_9366063389c5f42a00a5088cf24e69de>::operator()

; 4492 :         if (_BUF_SIZE <= _Old_capacity) {

	cmp	DWORD PTR __Old_capacity$[ebp], 16	; 00000010H
	jb	SHORT $LN3@Reallocate

; 4493 :             _Al.deallocate(_Mypair._Myval2._Bx._Ptr, _Old_capacity + 1);

	mov	eax, DWORD PTR __Old_capacity$[ebp]
	add	eax, 1
	push	eax
	mov	ecx, DWORD PTR _this$[ebp]
	mov	edx, DWORD PTR [ecx+4]
	push	edx
	mov	ecx, DWORD PTR __Al$[ebp]
	call	?deallocate@?$allocator@D@std@@QAEXQADI@Z ; std::allocator<char>::deallocate

; 4494 :             _Mypair._Myval2._Bx._Ptr = _New_ptr;

	mov	eax, DWORD PTR _this$[ebp]
	mov	ecx, DWORD PTR __New_ptr$[ebp]
	mov	DWORD PTR [eax+4], ecx

; 4495 :         } else {

	jmp	SHORT $LN4@Reallocate
$LN3@Reallocate:

; 4496 :             _Construct_in_place(_Mypair._Myval2._Bx._Ptr, _New_ptr);

	lea	eax, DWORD PTR __New_ptr$[ebp]
	push	eax
	mov	ecx, DWORD PTR _this$[ebp]
	add	ecx, 4
	push	ecx
	call	??$_Construct_in_place@PADABQAD@std@@YAXAAPADABQAD@Z ; std::_Construct_in_place<char *,char * const &>
	add	esp, 8
$LN4@Reallocate:

; 4497 :         }
; 4498 : 
; 4499 :         return *this;

	mov	eax, DWORD PTR _this$[ebp]
$LN5@Reallocate:

; 4500 :     }

	push	edx
	mov	ecx, ebp
	push	eax
	lea	edx, DWORD PTR $LN8@Reallocate
	call	@_RTC_CheckStackVars@8
	pop	eax
	pop	edx
	pop	edi
	pop	esi
	pop	ebx
	mov	ecx, DWORD PTR __$ArrayPad$[ebp]
	xor	ecx, ebp
	call	@__security_check_cookie@4
	add	esp, 256				; 00000100H
	cmp	ebp, esp
	call	__RTC_CheckEsp
	mov	esp, ebp
	pop	ebp
	ret	12					; 0000000cH
	npad	3
$LN8@Reallocate:
	DD	1
	DD	$LN7@Reallocate
$LN7@Reallocate:
	DD	-60					; ffffffc4H
	DD	4
	DD	$LN6@Reallocate
$LN6@Reallocate:
	DB	95					; 0000005fH
	DB	78					; 0000004eH
	DB	101					; 00000065H
	DB	119					; 00000077H
	DB	95					; 0000005fH
	DB	112					; 00000070H
	DB	116					; 00000074H
	DB	114					; 00000072H
	DB	0
??$_Reallocate_for@V<lambda_9366063389c5f42a00a5088cf24e69de>@@PBD@?$basic_string@DU?$char_traits@D@std@@V?$allocator@D@2@@std@@AAEAAV01@IV<lambda_9366063389c5f42a00a5088cf24e69de>@@PBD@Z ENDP ; std::basic_string<char,std::char_traits<char>,std::allocator<char> >::_Reallocate_for<<lambda_9366063389c5f42a00a5088cf24e69de>,char const *>
_TEXT	ENDS
; Function compile flags: /Odtp /RTCsu /ZI
; File C:\Program Files (x86)\Microsoft Visual Studio\2019\Community\VC\Tools\MSVC\14.29.30133\include\xstring
;	COMDAT ??R<lambda_9366063389c5f42a00a5088cf24e69de>@@QBE@QADIQBD@Z
_TEXT	SEGMENT
$T1 = -209						; size = 1
_this$ = -8						; size = 4
__New_ptr$ = 8						; size = 4
__Count$ = 12						; size = 4
__Ptr$ = 16						; size = 4
??R<lambda_9366063389c5f42a00a5088cf24e69de>@@QBE@QADIQBD@Z PROC ; <lambda_9366063389c5f42a00a5088cf24e69de>::operator(), COMDAT
; _this$ = ecx

; 3222 :             [](_Elem* const _New_ptr, const size_type _Count, const _Elem* const _Ptr) {

	push	ebp
	mov	ebp, esp
	sub	esp, 216				; 000000d8H
	push	ebx
	push	esi
	push	edi
	push	ecx
	lea	edi, DWORD PTR [ebp-24]
	mov	ecx, 6
	mov	eax, -858993460				; ccccccccH
	rep stosd
	pop	ecx
	mov	DWORD PTR _this$[ebp], ecx
	mov	ecx, OFFSET __0D019051_xstring
	call	@__CheckForDebuggerJustMyCode@4

; 3223 :                 _Traits::copy(_New_ptr, _Ptr, _Count);

	mov	eax, DWORD PTR __Count$[ebp]
	push	eax
	mov	ecx, DWORD PTR __Ptr$[ebp]
	push	ecx
	mov	edx, DWORD PTR __New_ptr$[ebp]
	push	edx
	call	?copy@?$_Char_traits@DH@std@@SAPADQADQBDI@Z ; std::_Char_traits<char,int>::copy
	add	esp, 12					; 0000000cH

; 3224 :                 _Traits::assign(_New_ptr[_Count], _Elem());

	mov	BYTE PTR $T1[ebp], 0
	lea	eax, DWORD PTR $T1[ebp]
	push	eax
	mov	ecx, DWORD PTR __New_ptr$[ebp]
	add	ecx, DWORD PTR __Count$[ebp]
	push	ecx
	call	?assign@?$_Narrow_char_traits@DH@std@@SAXAADABD@Z ; std::_Narrow_char_traits<char,int>::assign
	add	esp, 8

; 3225 :             },

	pop	edi
	pop	esi
	pop	ebx
	add	esp, 216				; 000000d8H
	cmp	ebp, esp
	call	__RTC_CheckEsp
	mov	esp, ebp
	pop	ebp
	ret	12					; 0000000cH
??R<lambda_9366063389c5f42a00a5088cf24e69de>@@QBE@QADIQBD@Z ENDP ; <lambda_9366063389c5f42a00a5088cf24e69de>::operator()
_TEXT	ENDS
; Function compile flags: /Odtp /RTCsu /ZI
; File C:\Program Files (x86)\Microsoft Visual Studio\2019\Community\VC\Tools\MSVC\14.29.30133\include\xmemory
;	COMDAT ??$_Destroy_in_place@PAD@std@@YAXAAPAD@Z
_TEXT	SEGMENT
__Obj$ = 8						; size = 4
??$_Destroy_in_place@PAD@std@@YAXAAPAD@Z PROC		; std::_Destroy_in_place<char *>, COMDAT

; 294  : _CONSTEXPR20_DYNALLOC void _Destroy_in_place(_Ty& _Obj) noexcept {

	push	ebp
	mov	ebp, esp
	sub	esp, 192				; 000000c0H
	push	ebx
	push	esi
	push	edi
	mov	edi, ebp
	xor	ecx, ecx
	mov	eax, -858993460				; ccccccccH
	rep stosd
	mov	ecx, OFFSET __79D216CD_xmemory
	call	@__CheckForDebuggerJustMyCode@4

; 295  :     if constexpr (is_array_v<_Ty>) {
; 296  :         _Destroy_range(_Obj, _Obj + extent_v<_Ty>);
; 297  :     } else {
; 298  :         _Obj.~_Ty();
; 299  :     }
; 300  : }

	pop	edi
	pop	esi
	pop	ebx
	add	esp, 192				; 000000c0H
	cmp	ebp, esp
	call	__RTC_CheckEsp
	mov	esp, ebp
	pop	ebp
	ret	0
??$_Destroy_in_place@PAD@std@@YAXAAPAD@Z ENDP		; std::_Destroy_in_place<char *>
_TEXT	ENDS
; Function compile flags: /Odtp /RTCsu /ZI
; File C:\Program Files (x86)\Microsoft Visual Studio\2019\Community\VC\Tools\MSVC\14.29.30133\include\xstddef
;	COMDAT ??$_Unfancy@_W@std@@YAPA_WPA_W@Z
_TEXT	SEGMENT
__Ptr$ = 8						; size = 4
??$_Unfancy@_W@std@@YAPA_WPA_W@Z PROC			; std::_Unfancy<wchar_t>, COMDAT

; 265  : _NODISCARD constexpr _Ty* _Unfancy(_Ty* _Ptr) noexcept { // do nothing for plain pointers

	push	ebp
	mov	ebp, esp
	sub	esp, 192				; 000000c0H
	push	ebx
	push	esi
	push	edi
	mov	edi, ebp
	xor	ecx, ecx
	mov	eax, -858993460				; ccccccccH
	rep stosd
	mov	ecx, OFFSET __E458E21C_xstddef
	call	@__CheckForDebuggerJustMyCode@4

; 266  :     return _Ptr;

	mov	eax, DWORD PTR __Ptr$[ebp]

; 267  : }

	pop	edi
	pop	esi
	pop	ebx
	add	esp, 192				; 000000c0H
	cmp	ebp, esp
	call	__RTC_CheckEsp
	mov	esp, ebp
	pop	ebp
	ret	0
??$_Unfancy@_W@std@@YAPA_WPA_W@Z ENDP			; std::_Unfancy<wchar_t>
_TEXT	ENDS
; Function compile flags: /Odtp /RTCsu /ZI
; File C:\Program Files (x86)\Microsoft Visual Studio\2019\Community\VC\Tools\MSVC\14.29.30133\include\xutility
;	COMDAT ??$_Construct_in_place@PA_WAAPA_W@std@@YAXAAPA_W0@Z
_TEXT	SEGMENT
$T1 = -200						; size = 4
__Obj$ = 8						; size = 4
_<_Args_0>$ = 12					; size = 4
??$_Construct_in_place@PA_WAAPA_W@std@@YAXAAPA_W0@Z PROC ; std::_Construct_in_place<wchar_t *,wchar_t * &>, COMDAT

; 142  :     is_nothrow_constructible_v<_Ty, _Types...>) {

	push	ebp
	mov	ebp, esp
	sub	esp, 204				; 000000ccH
	push	ebx
	push	esi
	push	edi
	lea	edi, DWORD PTR [ebp-12]
	mov	ecx, 3
	mov	eax, -858993460				; ccccccccH
	rep stosd
	mov	ecx, OFFSET __12269DE6_xutility
	call	@__CheckForDebuggerJustMyCode@4
	mov	eax, DWORD PTR __Obj$[ebp]
	push	eax
	call	??$addressof@PA_W@std@@YAPAPA_WAAPA_W@Z	; std::addressof<wchar_t *>
	add	esp, 4
	push	eax
	call	??$_Voidify_iter@PAPA_W@std@@YAPAXPAPA_W@Z ; std::_Voidify_iter<wchar_t * *>
	add	esp, 4
	push	eax
	push	4
	call	??2@YAPAXIPAX@Z				; operator new
	add	esp, 8
	mov	DWORD PTR $T1[ebp], eax
	mov	ecx, DWORD PTR _<_Args_0>$[ebp]
	push	ecx
	call	??$forward@AAPA_W@std@@YAAAPA_WAAPA_W@Z	; std::forward<wchar_t * &>
	add	esp, 4
	mov	edx, DWORD PTR $T1[ebp]
	mov	eax, DWORD PTR [eax]
	mov	DWORD PTR [edx], eax

; 143  : #ifdef __cpp_lib_constexpr_dynamic_alloc
; 144  :     if (_STD is_constant_evaluated()) {
; 145  :         _STD construct_at(_STD addressof(_Obj), _STD forward<_Types>(_Args)...);
; 146  :     } else
; 147  : #endif // __cpp_lib_constexpr_dynamic_alloc
; 148  :     {
; 149  :         ::new (_Voidify_iter(_STD addressof(_Obj))) _Ty(_STD forward<_Types>(_Args)...);
; 150  :     }
; 151  : }

	pop	edi
	pop	esi
	pop	ebx
	add	esp, 204				; 000000ccH
	cmp	ebp, esp
	call	__RTC_CheckEsp
	mov	esp, ebp
	pop	ebp
	ret	0
??$_Construct_in_place@PA_WAAPA_W@std@@YAXAAPA_W0@Z ENDP ; std::_Construct_in_place<wchar_t *,wchar_t * &>
_TEXT	ENDS
; Function compile flags: /Odtp /RTCsu /ZI
; File C:\Program Files (x86)\Microsoft Visual Studio\2019\Community\VC\Tools\MSVC\14.29.30133\include\xstring
;	COMDAT ??$_Reallocate_for@V<lambda_03628ca18370b1f44a99b655e704819b>@@PB_W@?$basic_string@_WU?$char_traits@_W@std@@V?$allocator@_W@2@@std@@AAEAAV01@IV<lambda_03628ca18370b1f44a99b655e704819b>@@PB_W@Z
_TEXT	SEGMENT
__New_ptr$ = -60					; size = 4
__Al$ = -48						; size = 4
__New_capacity$ = -36					; size = 4
__Old_capacity$ = -24					; size = 4
_this$ = -12						; size = 4
__$ArrayPad$ = -4					; size = 4
__New_size$ = 8						; size = 4
__Fn$ = 12						; size = 1
_<_Args_0>$ = 16					; size = 4
??$_Reallocate_for@V<lambda_03628ca18370b1f44a99b655e704819b>@@PB_W@?$basic_string@_WU?$char_traits@_W@std@@V?$allocator@_W@2@@std@@AAEAAV01@IV<lambda_03628ca18370b1f44a99b655e704819b>@@PB_W@Z PROC ; std::basic_string<wchar_t,std::char_traits<wchar_t>,std::allocator<wchar_t> >::_Reallocate_for<<lambda_03628ca18370b1f44a99b655e704819b>,wchar_t const *>, COMDAT
; _this$ = ecx

; 4471 :     _CONSTEXPR20_CONTAINER basic_string& _Reallocate_for(const size_type _New_size, _Fty _Fn, _ArgTys... _Args) {

	push	ebp
	mov	ebp, esp
	sub	esp, 256				; 00000100H
	push	ebx
	push	esi
	push	edi
	push	ecx
	lea	edi, DWORD PTR [ebp-64]
	mov	ecx, 16					; 00000010H
	mov	eax, -858993460				; ccccccccH
	rep stosd
	pop	ecx
	mov	eax, DWORD PTR ___security_cookie
	xor	eax, ebp
	mov	DWORD PTR __$ArrayPad$[ebp], eax
	mov	DWORD PTR _this$[ebp], ecx
	mov	ecx, OFFSET __0D019051_xstring
	call	@__CheckForDebuggerJustMyCode@4

; 4472 :         // reallocate to store exactly _New_size elements, new buffer prepared by
; 4473 :         // _Fn(_New_ptr, _New_size, _Args...)
; 4474 :         if (_New_size > max_size()) {

	mov	ecx, DWORD PTR _this$[ebp]
	call	?max_size@?$basic_string@_WU?$char_traits@_W@std@@V?$allocator@_W@2@@std@@QBEIXZ ; std::basic_string<wchar_t,std::char_traits<wchar_t>,std::allocator<wchar_t> >::max_size
	cmp	DWORD PTR __New_size$[ebp], eax
	jbe	SHORT $LN2@Reallocate

; 4475 :             _Xlen_string(); // result too long

	call	?_Xlen_string@std@@YAXXZ		; std::_Xlen_string
$LN2@Reallocate:

; 4476 :         }
; 4477 : 
; 4478 :         const size_type _Old_capacity = _Mypair._Myval2._Myres;

	mov	eax, DWORD PTR _this$[ebp]
	mov	ecx, DWORD PTR [eax+24]
	mov	DWORD PTR __Old_capacity$[ebp], ecx

; 4479 :         const size_type _New_capacity = _Calculate_growth(_New_size);

	mov	eax, DWORD PTR __New_size$[ebp]
	push	eax
	mov	ecx, DWORD PTR _this$[ebp]
	call	?_Calculate_growth@?$basic_string@_WU?$char_traits@_W@std@@V?$allocator@_W@2@@std@@ABEII@Z ; std::basic_string<wchar_t,std::char_traits<wchar_t>,std::allocator<wchar_t> >::_Calculate_growth
	mov	DWORD PTR __New_capacity$[ebp], eax

; 4480 :         auto& _Al                     = _Getal();

	mov	ecx, DWORD PTR _this$[ebp]
	call	?_Getal@?$basic_string@_WU?$char_traits@_W@std@@V?$allocator@_W@2@@std@@AAEAAV?$allocator@_W@2@XZ ; std::basic_string<wchar_t,std::char_traits<wchar_t>,std::allocator<wchar_t> >::_Getal
	mov	DWORD PTR __Al$[ebp], eax

; 4481 :         const pointer _New_ptr        = _Al.allocate(_New_capacity + 1); // throws

	xor	eax, eax
	mov	ecx, DWORD PTR __New_capacity$[ebp]
	add	ecx, 1
	setb	al
	neg	eax
	or	eax, ecx
	push	eax
	mov	ecx, DWORD PTR __Al$[ebp]
	call	?allocate@?$allocator@_W@std@@QAEPA_WI@Z ; std::allocator<wchar_t>::allocate
	mov	DWORD PTR __New_ptr$[ebp], eax

; 4482 : 
; 4483 : #ifdef __cpp_lib_constexpr_string
; 4484 :         if (_STD is_constant_evaluated()) { // Begin the lifetimes of the objects before copying to avoid UB
; 4485 :             _Traits::assign(_Unfancy(_New_ptr), _New_capacity + 1, _Elem());
; 4486 :         }
; 4487 : #endif // __cpp_lib_constexpr_string
; 4488 :         _Mypair._Myval2._Orphan_all();

	mov	ecx, DWORD PTR _this$[ebp]
	call	?_Orphan_all@_Container_base12@std@@QAEXXZ ; std::_Container_base12::_Orphan_all

; 4489 :         _Mypair._Myval2._Mysize = _New_size;

	mov	eax, DWORD PTR _this$[ebp]
	mov	ecx, DWORD PTR __New_size$[ebp]
	mov	DWORD PTR [eax+20], ecx

; 4490 :         _Mypair._Myval2._Myres  = _New_capacity;

	mov	eax, DWORD PTR _this$[ebp]
	mov	ecx, DWORD PTR __New_capacity$[ebp]
	mov	DWORD PTR [eax+24], ecx

; 4491 :         _Fn(_Unfancy(_New_ptr), _New_size, _Args...);

	mov	eax, DWORD PTR _<_Args_0>$[ebp]
	push	eax
	mov	ecx, DWORD PTR __New_size$[ebp]
	push	ecx
	mov	edx, DWORD PTR __New_ptr$[ebp]
	push	edx
	call	??$_Unfancy@_W@std@@YAPA_WPA_W@Z	; std::_Unfancy<wchar_t>
	add	esp, 4
	push	eax
	lea	ecx, DWORD PTR __Fn$[ebp]
	call	??R<lambda_03628ca18370b1f44a99b655e704819b>@@QBE@QA_WIQB_W@Z ; <lambda_03628ca18370b1f44a99b655e704819b>::operator()

; 4492 :         if (_BUF_SIZE <= _Old_capacity) {

	cmp	DWORD PTR __Old_capacity$[ebp], 8
	jb	SHORT $LN3@Reallocate

; 4493 :             _Al.deallocate(_Mypair._Myval2._Bx._Ptr, _Old_capacity + 1);

	mov	eax, DWORD PTR __Old_capacity$[ebp]
	add	eax, 1
	push	eax
	mov	ecx, DWORD PTR _this$[ebp]
	mov	edx, DWORD PTR [ecx+4]
	push	edx
	mov	ecx, DWORD PTR __Al$[ebp]
	call	?deallocate@?$allocator@_W@std@@QAEXQA_WI@Z ; std::allocator<wchar_t>::deallocate

; 4494 :             _Mypair._Myval2._Bx._Ptr = _New_ptr;

	mov	eax, DWORD PTR _this$[ebp]
	mov	ecx, DWORD PTR __New_ptr$[ebp]
	mov	DWORD PTR [eax+4], ecx

; 4495 :         } else {

	jmp	SHORT $LN4@Reallocate
$LN3@Reallocate:

; 4496 :             _Construct_in_place(_Mypair._Myval2._Bx._Ptr, _New_ptr);

	lea	eax, DWORD PTR __New_ptr$[ebp]
	push	eax
	mov	ecx, DWORD PTR _this$[ebp]
	add	ecx, 4
	push	ecx
	call	??$_Construct_in_place@PA_WABQA_W@std@@YAXAAPA_WABQA_W@Z ; std::_Construct_in_place<wchar_t *,wchar_t * const &>
	add	esp, 8
$LN4@Reallocate:

; 4497 :         }
; 4498 : 
; 4499 :         return *this;

	mov	eax, DWORD PTR _this$[ebp]
$LN5@Reallocate:

; 4500 :     }

	push	edx
	mov	ecx, ebp
	push	eax
	lea	edx, DWORD PTR $LN8@Reallocate
	call	@_RTC_CheckStackVars@8
	pop	eax
	pop	edx
	pop	edi
	pop	esi
	pop	ebx
	mov	ecx, DWORD PTR __$ArrayPad$[ebp]
	xor	ecx, ebp
	call	@__security_check_cookie@4
	add	esp, 256				; 00000100H
	cmp	ebp, esp
	call	__RTC_CheckEsp
	mov	esp, ebp
	pop	ebp
	ret	12					; 0000000cH
	npad	3
$LN8@Reallocate:
	DD	1
	DD	$LN7@Reallocate
$LN7@Reallocate:
	DD	-60					; ffffffc4H
	DD	4
	DD	$LN6@Reallocate
$LN6@Reallocate:
	DB	95					; 0000005fH
	DB	78					; 0000004eH
	DB	101					; 00000065H
	DB	119					; 00000077H
	DB	95					; 0000005fH
	DB	112					; 00000070H
	DB	116					; 00000074H
	DB	114					; 00000072H
	DB	0
??$_Reallocate_for@V<lambda_03628ca18370b1f44a99b655e704819b>@@PB_W@?$basic_string@_WU?$char_traits@_W@std@@V?$allocator@_W@2@@std@@AAEAAV01@IV<lambda_03628ca18370b1f44a99b655e704819b>@@PB_W@Z ENDP ; std::basic_string<wchar_t,std::char_traits<wchar_t>,std::allocator<wchar_t> >::_Reallocate_for<<lambda_03628ca18370b1f44a99b655e704819b>,wchar_t const *>
_TEXT	ENDS
; Function compile flags: /Odtp /RTCsu /ZI
; File C:\Program Files (x86)\Microsoft Visual Studio\2019\Community\VC\Tools\MSVC\14.29.30133\include\xstring
;	COMDAT ??R<lambda_03628ca18370b1f44a99b655e704819b>@@QBE@QA_WIQB_W@Z
_TEXT	SEGMENT
$T1 = -210						; size = 2
_this$ = -8						; size = 4
__New_ptr$ = 8						; size = 4
__Count$ = 12						; size = 4
__Ptr$ = 16						; size = 4
??R<lambda_03628ca18370b1f44a99b655e704819b>@@QBE@QA_WIQB_W@Z PROC ; <lambda_03628ca18370b1f44a99b655e704819b>::operator(), COMDAT
; _this$ = ecx

; 3222 :             [](_Elem* const _New_ptr, const size_type _Count, const _Elem* const _Ptr) {

	push	ebp
	mov	ebp, esp
	sub	esp, 216				; 000000d8H
	push	ebx
	push	esi
	push	edi
	push	ecx
	lea	edi, DWORD PTR [ebp-24]
	mov	ecx, 6
	mov	eax, -858993460				; ccccccccH
	rep stosd
	pop	ecx
	mov	DWORD PTR _this$[ebp], ecx
	mov	ecx, OFFSET __0D019051_xstring
	call	@__CheckForDebuggerJustMyCode@4

; 3223 :                 _Traits::copy(_New_ptr, _Ptr, _Count);

	mov	eax, DWORD PTR __Count$[ebp]
	push	eax
	mov	ecx, DWORD PTR __Ptr$[ebp]
	push	ecx
	mov	edx, DWORD PTR __New_ptr$[ebp]
	push	edx
	call	?copy@?$_Char_traits@_WG@std@@SAPA_WQA_WQB_WI@Z ; std::_Char_traits<wchar_t,unsigned short>::copy
	add	esp, 12					; 0000000cH

; 3224 :                 _Traits::assign(_New_ptr[_Count], _Elem());

	xor	eax, eax
	mov	WORD PTR $T1[ebp], ax
	lea	ecx, DWORD PTR $T1[ebp]
	push	ecx
	mov	edx, DWORD PTR __Count$[ebp]
	mov	eax, DWORD PTR __New_ptr$[ebp]
	lea	ecx, DWORD PTR [eax+edx*2]
	push	ecx
	call	?assign@?$_WChar_traits@_W@std@@SAXAA_WAB_W@Z ; std::_WChar_traits<wchar_t>::assign
	add	esp, 8

; 3225 :             },

	pop	edi
	pop	esi
	pop	ebx
	add	esp, 216				; 000000d8H
	cmp	ebp, esp
	call	__RTC_CheckEsp
	mov	esp, ebp
	pop	ebp
	ret	12					; 0000000cH
??R<lambda_03628ca18370b1f44a99b655e704819b>@@QBE@QA_WIQB_W@Z ENDP ; <lambda_03628ca18370b1f44a99b655e704819b>::operator()
_TEXT	ENDS
; Function compile flags: /Odtp /RTCsu /ZI
; File C:\Program Files (x86)\Microsoft Visual Studio\2019\Community\VC\Tools\MSVC\14.29.30133\include\xmemory
;	COMDAT ??$_Destroy_in_place@PA_W@std@@YAXAAPA_W@Z
_TEXT	SEGMENT
__Obj$ = 8						; size = 4
??$_Destroy_in_place@PA_W@std@@YAXAAPA_W@Z PROC		; std::_Destroy_in_place<wchar_t *>, COMDAT

; 294  : _CONSTEXPR20_DYNALLOC void _Destroy_in_place(_Ty& _Obj) noexcept {

	push	ebp
	mov	ebp, esp
	sub	esp, 192				; 000000c0H
	push	ebx
	push	esi
	push	edi
	mov	edi, ebp
	xor	ecx, ecx
	mov	eax, -858993460				; ccccccccH
	rep stosd
	mov	ecx, OFFSET __79D216CD_xmemory
	call	@__CheckForDebuggerJustMyCode@4

; 295  :     if constexpr (is_array_v<_Ty>) {
; 296  :         _Destroy_range(_Obj, _Obj + extent_v<_Ty>);
; 297  :     } else {
; 298  :         _Obj.~_Ty();
; 299  :     }
; 300  : }

	pop	edi
	pop	esi
	pop	ebx
	add	esp, 192				; 000000c0H
	cmp	ebp, esp
	call	__RTC_CheckEsp
	mov	esp, ebp
	pop	ebp
	ret	0
??$_Destroy_in_place@PA_W@std@@YAXAAPA_W@Z ENDP		; std::_Destroy_in_place<wchar_t *>
_TEXT	ENDS
; Function compile flags: /Odtp /RTCsu /ZI
; File C:\Program Files (x86)\Microsoft Visual Studio\2019\Community\VC\Tools\MSVC\14.29.30133\include\xstddef
;	COMDAT ??$_Unfancy@_S@std@@YAPA_SPA_S@Z
_TEXT	SEGMENT
__Ptr$ = 8						; size = 4
??$_Unfancy@_S@std@@YAPA_SPA_S@Z PROC			; std::_Unfancy<char16_t>, COMDAT

; 265  : _NODISCARD constexpr _Ty* _Unfancy(_Ty* _Ptr) noexcept { // do nothing for plain pointers

	push	ebp
	mov	ebp, esp
	sub	esp, 192				; 000000c0H
	push	ebx
	push	esi
	push	edi
	mov	edi, ebp
	xor	ecx, ecx
	mov	eax, -858993460				; ccccccccH
	rep stosd
	mov	ecx, OFFSET __E458E21C_xstddef
	call	@__CheckForDebuggerJustMyCode@4

; 266  :     return _Ptr;

	mov	eax, DWORD PTR __Ptr$[ebp]

; 267  : }

	pop	edi
	pop	esi
	pop	ebx
	add	esp, 192				; 000000c0H
	cmp	ebp, esp
	call	__RTC_CheckEsp
	mov	esp, ebp
	pop	ebp
	ret	0
??$_Unfancy@_S@std@@YAPA_SPA_S@Z ENDP			; std::_Unfancy<char16_t>
_TEXT	ENDS
; Function compile flags: /Odtp /RTCsu /ZI
; File C:\Program Files (x86)\Microsoft Visual Studio\2019\Community\VC\Tools\MSVC\14.29.30133\include\xstring
;	COMDAT ??$_Reallocate_for@V<lambda_493290ea8cd8fcd66ff9f3cecf244fbc>@@PB_S@?$basic_string@_SU?$char_traits@_S@std@@V?$allocator@_S@2@@std@@AAEAAV01@IV<lambda_493290ea8cd8fcd66ff9f3cecf244fbc>@@PB_S@Z
_TEXT	SEGMENT
__New_ptr$ = -60					; size = 4
__Al$ = -48						; size = 4
__New_capacity$ = -36					; size = 4
__Old_capacity$ = -24					; size = 4
_this$ = -12						; size = 4
__$ArrayPad$ = -4					; size = 4
__New_size$ = 8						; size = 4
__Fn$ = 12						; size = 1
_<_Args_0>$ = 16					; size = 4
??$_Reallocate_for@V<lambda_493290ea8cd8fcd66ff9f3cecf244fbc>@@PB_S@?$basic_string@_SU?$char_traits@_S@std@@V?$allocator@_S@2@@std@@AAEAAV01@IV<lambda_493290ea8cd8fcd66ff9f3cecf244fbc>@@PB_S@Z PROC ; std::basic_string<char16_t,std::char_traits<char16_t>,std::allocator<char16_t> >::_Reallocate_for<<lambda_493290ea8cd8fcd66ff9f3cecf244fbc>,char16_t const *>, COMDAT
; _this$ = ecx

; 4471 :     _CONSTEXPR20_CONTAINER basic_string& _Reallocate_for(const size_type _New_size, _Fty _Fn, _ArgTys... _Args) {

	push	ebp
	mov	ebp, esp
	sub	esp, 256				; 00000100H
	push	ebx
	push	esi
	push	edi
	push	ecx
	lea	edi, DWORD PTR [ebp-64]
	mov	ecx, 16					; 00000010H
	mov	eax, -858993460				; ccccccccH
	rep stosd
	pop	ecx
	mov	eax, DWORD PTR ___security_cookie
	xor	eax, ebp
	mov	DWORD PTR __$ArrayPad$[ebp], eax
	mov	DWORD PTR _this$[ebp], ecx
	mov	ecx, OFFSET __0D019051_xstring
	call	@__CheckForDebuggerJustMyCode@4

; 4472 :         // reallocate to store exactly _New_size elements, new buffer prepared by
; 4473 :         // _Fn(_New_ptr, _New_size, _Args...)
; 4474 :         if (_New_size > max_size()) {

	mov	ecx, DWORD PTR _this$[ebp]
	call	?max_size@?$basic_string@_SU?$char_traits@_S@std@@V?$allocator@_S@2@@std@@QBEIXZ ; std::basic_string<char16_t,std::char_traits<char16_t>,std::allocator<char16_t> >::max_size
	cmp	DWORD PTR __New_size$[ebp], eax
	jbe	SHORT $LN2@Reallocate

; 4475 :             _Xlen_string(); // result too long

	call	?_Xlen_string@std@@YAXXZ		; std::_Xlen_string
$LN2@Reallocate:

; 4476 :         }
; 4477 : 
; 4478 :         const size_type _Old_capacity = _Mypair._Myval2._Myres;

	mov	eax, DWORD PTR _this$[ebp]
	mov	ecx, DWORD PTR [eax+24]
	mov	DWORD PTR __Old_capacity$[ebp], ecx

; 4479 :         const size_type _New_capacity = _Calculate_growth(_New_size);

	mov	eax, DWORD PTR __New_size$[ebp]
	push	eax
	mov	ecx, DWORD PTR _this$[ebp]
	call	?_Calculate_growth@?$basic_string@_SU?$char_traits@_S@std@@V?$allocator@_S@2@@std@@ABEII@Z ; std::basic_string<char16_t,std::char_traits<char16_t>,std::allocator<char16_t> >::_Calculate_growth
	mov	DWORD PTR __New_capacity$[ebp], eax

; 4480 :         auto& _Al                     = _Getal();

	mov	ecx, DWORD PTR _this$[ebp]
	call	?_Getal@?$basic_string@_SU?$char_traits@_S@std@@V?$allocator@_S@2@@std@@AAEAAV?$allocator@_S@2@XZ ; std::basic_string<char16_t,std::char_traits<char16_t>,std::allocator<char16_t> >::_Getal
	mov	DWORD PTR __Al$[ebp], eax

; 4481 :         const pointer _New_ptr        = _Al.allocate(_New_capacity + 1); // throws

	mov	eax, DWORD PTR __New_capacity$[ebp]
	add	eax, 1
	push	eax
	mov	ecx, DWORD PTR __Al$[ebp]
	call	?allocate@?$allocator@_S@std@@QAEPA_SI@Z ; std::allocator<char16_t>::allocate
	mov	DWORD PTR __New_ptr$[ebp], eax

; 4482 : 
; 4483 : #ifdef __cpp_lib_constexpr_string
; 4484 :         if (_STD is_constant_evaluated()) { // Begin the lifetimes of the objects before copying to avoid UB
; 4485 :             _Traits::assign(_Unfancy(_New_ptr), _New_capacity + 1, _Elem());
; 4486 :         }
; 4487 : #endif // __cpp_lib_constexpr_string
; 4488 :         _Mypair._Myval2._Orphan_all();

	mov	ecx, DWORD PTR _this$[ebp]
	call	?_Orphan_all@_Container_base12@std@@QAEXXZ ; std::_Container_base12::_Orphan_all

; 4489 :         _Mypair._Myval2._Mysize = _New_size;

	mov	eax, DWORD PTR _this$[ebp]
	mov	ecx, DWORD PTR __New_size$[ebp]
	mov	DWORD PTR [eax+20], ecx

; 4490 :         _Mypair._Myval2._Myres  = _New_capacity;

	mov	eax, DWORD PTR _this$[ebp]
	mov	ecx, DWORD PTR __New_capacity$[ebp]
	mov	DWORD PTR [eax+24], ecx

; 4491 :         _Fn(_Unfancy(_New_ptr), _New_size, _Args...);

	mov	eax, DWORD PTR _<_Args_0>$[ebp]
	push	eax
	mov	ecx, DWORD PTR __New_size$[ebp]
	push	ecx
	mov	edx, DWORD PTR __New_ptr$[ebp]
	push	edx
	call	??$_Unfancy@_S@std@@YAPA_SPA_S@Z	; std::_Unfancy<char16_t>
	add	esp, 4
	push	eax
	lea	ecx, DWORD PTR __Fn$[ebp]
	call	??R<lambda_493290ea8cd8fcd66ff9f3cecf244fbc>@@QBE@QA_SIQB_S@Z ; <lambda_493290ea8cd8fcd66ff9f3cecf244fbc>::operator()

; 4492 :         if (_BUF_SIZE <= _Old_capacity) {

	cmp	DWORD PTR __Old_capacity$[ebp], 8
	jb	SHORT $LN3@Reallocate

; 4493 :             _Al.deallocate(_Mypair._Myval2._Bx._Ptr, _Old_capacity + 1);

	mov	eax, DWORD PTR __Old_capacity$[ebp]
	add	eax, 1
	push	eax
	mov	ecx, DWORD PTR _this$[ebp]
	mov	edx, DWORD PTR [ecx+4]
	push	edx
	mov	ecx, DWORD PTR __Al$[ebp]
	call	?deallocate@?$allocator@_S@std@@QAEXQA_SI@Z ; std::allocator<char16_t>::deallocate

; 4494 :             _Mypair._Myval2._Bx._Ptr = _New_ptr;

	mov	eax, DWORD PTR _this$[ebp]
	mov	ecx, DWORD PTR __New_ptr$[ebp]
	mov	DWORD PTR [eax+4], ecx

; 4495 :         } else {

	jmp	SHORT $LN4@Reallocate
$LN3@Reallocate:

; 4496 :             _Construct_in_place(_Mypair._Myval2._Bx._Ptr, _New_ptr);

	lea	eax, DWORD PTR __New_ptr$[ebp]
	push	eax
	mov	ecx, DWORD PTR _this$[ebp]
	add	ecx, 4
	push	ecx
	call	??$_Construct_in_place@PA_SABQA_S@std@@YAXAAPA_SABQA_S@Z ; std::_Construct_in_place<char16_t *,char16_t * const &>
	add	esp, 8
$LN4@Reallocate:

; 4497 :         }
; 4498 : 
; 4499 :         return *this;

	mov	eax, DWORD PTR _this$[ebp]
$LN5@Reallocate:

; 4500 :     }

	push	edx
	mov	ecx, ebp
	push	eax
	lea	edx, DWORD PTR $LN8@Reallocate
	call	@_RTC_CheckStackVars@8
	pop	eax
	pop	edx
	pop	edi
	pop	esi
	pop	ebx
	mov	ecx, DWORD PTR __$ArrayPad$[ebp]
	xor	ecx, ebp
	call	@__security_check_cookie@4
	add	esp, 256				; 00000100H
	cmp	ebp, esp
	call	__RTC_CheckEsp
	mov	esp, ebp
	pop	ebp
	ret	12					; 0000000cH
$LN8@Reallocate:
	DD	1
	DD	$LN7@Reallocate
$LN7@Reallocate:
	DD	-60					; ffffffc4H
	DD	4
	DD	$LN6@Reallocate
$LN6@Reallocate:
	DB	95					; 0000005fH
	DB	78					; 0000004eH
	DB	101					; 00000065H
	DB	119					; 00000077H
	DB	95					; 0000005fH
	DB	112					; 00000070H
	DB	116					; 00000074H
	DB	114					; 00000072H
	DB	0
??$_Reallocate_for@V<lambda_493290ea8cd8fcd66ff9f3cecf244fbc>@@PB_S@?$basic_string@_SU?$char_traits@_S@std@@V?$allocator@_S@2@@std@@AAEAAV01@IV<lambda_493290ea8cd8fcd66ff9f3cecf244fbc>@@PB_S@Z ENDP ; std::basic_string<char16_t,std::char_traits<char16_t>,std::allocator<char16_t> >::_Reallocate_for<<lambda_493290ea8cd8fcd66ff9f3cecf244fbc>,char16_t const *>
_TEXT	ENDS
; Function compile flags: /Odtp /RTCsu /ZI
; File C:\Program Files (x86)\Microsoft Visual Studio\2019\Community\VC\Tools\MSVC\14.29.30133\include\xstring
;	COMDAT ??R<lambda_493290ea8cd8fcd66ff9f3cecf244fbc>@@QBE@QA_SIQB_S@Z
_TEXT	SEGMENT
$T1 = -210						; size = 2
_this$ = -8						; size = 4
__New_ptr$ = 8						; size = 4
__Count$ = 12						; size = 4
__Ptr$ = 16						; size = 4
??R<lambda_493290ea8cd8fcd66ff9f3cecf244fbc>@@QBE@QA_SIQB_S@Z PROC ; <lambda_493290ea8cd8fcd66ff9f3cecf244fbc>::operator(), COMDAT
; _this$ = ecx

; 3222 :             [](_Elem* const _New_ptr, const size_type _Count, const _Elem* const _Ptr) {

	push	ebp
	mov	ebp, esp
	sub	esp, 216				; 000000d8H
	push	ebx
	push	esi
	push	edi
	push	ecx
	lea	edi, DWORD PTR [ebp-24]
	mov	ecx, 6
	mov	eax, -858993460				; ccccccccH
	rep stosd
	pop	ecx
	mov	DWORD PTR _this$[ebp], ecx
	mov	ecx, OFFSET __0D019051_xstring
	call	@__CheckForDebuggerJustMyCode@4

; 3223 :                 _Traits::copy(_New_ptr, _Ptr, _Count);

	mov	eax, DWORD PTR __Count$[ebp]
	push	eax
	mov	ecx, DWORD PTR __Ptr$[ebp]
	push	ecx
	mov	edx, DWORD PTR __New_ptr$[ebp]
	push	edx
	call	?copy@?$_Char_traits@_SG@std@@SAPA_SQA_SQB_SI@Z ; std::_Char_traits<char16_t,unsigned short>::copy
	add	esp, 12					; 0000000cH

; 3224 :                 _Traits::assign(_New_ptr[_Count], _Elem());

	xor	eax, eax
	mov	WORD PTR $T1[ebp], ax
	lea	ecx, DWORD PTR $T1[ebp]
	push	ecx
	mov	edx, DWORD PTR __Count$[ebp]
	mov	eax, DWORD PTR __New_ptr$[ebp]
	lea	ecx, DWORD PTR [eax+edx*2]
	push	ecx
	call	?assign@?$_WChar_traits@_S@std@@SAXAA_SAB_S@Z ; std::_WChar_traits<char16_t>::assign
	add	esp, 8

; 3225 :             },

	pop	edi
	pop	esi
	pop	ebx
	add	esp, 216				; 000000d8H
	cmp	ebp, esp
	call	__RTC_CheckEsp
	mov	esp, ebp
	pop	ebp
	ret	12					; 0000000cH
??R<lambda_493290ea8cd8fcd66ff9f3cecf244fbc>@@QBE@QA_SIQB_S@Z ENDP ; <lambda_493290ea8cd8fcd66ff9f3cecf244fbc>::operator()
_TEXT	ENDS
; Function compile flags: /Odtp /RTCsu /ZI
; File C:\Program Files (x86)\Microsoft Visual Studio\2019\Community\VC\Tools\MSVC\14.29.30133\include\xmemory
;	COMDAT ??$_Destroy_in_place@PA_S@std@@YAXAAPA_S@Z
_TEXT	SEGMENT
__Obj$ = 8						; size = 4
??$_Destroy_in_place@PA_S@std@@YAXAAPA_S@Z PROC		; std::_Destroy_in_place<char16_t *>, COMDAT

; 294  : _CONSTEXPR20_DYNALLOC void _Destroy_in_place(_Ty& _Obj) noexcept {

	push	ebp
	mov	ebp, esp
	sub	esp, 192				; 000000c0H
	push	ebx
	push	esi
	push	edi
	mov	edi, ebp
	xor	ecx, ecx
	mov	eax, -858993460				; ccccccccH
	rep stosd
	mov	ecx, OFFSET __79D216CD_xmemory
	call	@__CheckForDebuggerJustMyCode@4

; 295  :     if constexpr (is_array_v<_Ty>) {
; 296  :         _Destroy_range(_Obj, _Obj + extent_v<_Ty>);
; 297  :     } else {
; 298  :         _Obj.~_Ty();
; 299  :     }
; 300  : }

	pop	edi
	pop	esi
	pop	ebx
	add	esp, 192				; 000000c0H
	cmp	ebp, esp
	call	__RTC_CheckEsp
	mov	esp, ebp
	pop	ebp
	ret	0
??$_Destroy_in_place@PA_S@std@@YAXAAPA_S@Z ENDP		; std::_Destroy_in_place<char16_t *>
_TEXT	ENDS
; Function compile flags: /Odtp /RTCsu /ZI
; File C:\Program Files (x86)\Microsoft Visual Studio\2019\Community\VC\Tools\MSVC\14.29.30133\include\xstddef
;	COMDAT ??$_Unfancy@_U@std@@YAPA_UPA_U@Z
_TEXT	SEGMENT
__Ptr$ = 8						; size = 4
??$_Unfancy@_U@std@@YAPA_UPA_U@Z PROC			; std::_Unfancy<char32_t>, COMDAT

; 265  : _NODISCARD constexpr _Ty* _Unfancy(_Ty* _Ptr) noexcept { // do nothing for plain pointers

	push	ebp
	mov	ebp, esp
	sub	esp, 192				; 000000c0H
	push	ebx
	push	esi
	push	edi
	mov	edi, ebp
	xor	ecx, ecx
	mov	eax, -858993460				; ccccccccH
	rep stosd
	mov	ecx, OFFSET __E458E21C_xstddef
	call	@__CheckForDebuggerJustMyCode@4

; 266  :     return _Ptr;

	mov	eax, DWORD PTR __Ptr$[ebp]

; 267  : }

	pop	edi
	pop	esi
	pop	ebx
	add	esp, 192				; 000000c0H
	cmp	ebp, esp
	call	__RTC_CheckEsp
	mov	esp, ebp
	pop	ebp
	ret	0
??$_Unfancy@_U@std@@YAPA_UPA_U@Z ENDP			; std::_Unfancy<char32_t>
_TEXT	ENDS
; Function compile flags: /Odtp /RTCsu /ZI
; File C:\Program Files (x86)\Microsoft Visual Studio\2019\Community\VC\Tools\MSVC\14.29.30133\include\xstring
;	COMDAT ??$_Reallocate_for@V<lambda_02ffc73a80c062ba6e5e6c9f53d514cc>@@PB_U@?$basic_string@_UU?$char_traits@_U@std@@V?$allocator@_U@2@@std@@AAEAAV01@IV<lambda_02ffc73a80c062ba6e5e6c9f53d514cc>@@PB_U@Z
_TEXT	SEGMENT
__New_ptr$ = -60					; size = 4
__Al$ = -48						; size = 4
__New_capacity$ = -36					; size = 4
__Old_capacity$ = -24					; size = 4
_this$ = -12						; size = 4
__$ArrayPad$ = -4					; size = 4
__New_size$ = 8						; size = 4
__Fn$ = 12						; size = 1
_<_Args_0>$ = 16					; size = 4
??$_Reallocate_for@V<lambda_02ffc73a80c062ba6e5e6c9f53d514cc>@@PB_U@?$basic_string@_UU?$char_traits@_U@std@@V?$allocator@_U@2@@std@@AAEAAV01@IV<lambda_02ffc73a80c062ba6e5e6c9f53d514cc>@@PB_U@Z PROC ; std::basic_string<char32_t,std::char_traits<char32_t>,std::allocator<char32_t> >::_Reallocate_for<<lambda_02ffc73a80c062ba6e5e6c9f53d514cc>,char32_t const *>, COMDAT
; _this$ = ecx

; 4471 :     _CONSTEXPR20_CONTAINER basic_string& _Reallocate_for(const size_type _New_size, _Fty _Fn, _ArgTys... _Args) {

	push	ebp
	mov	ebp, esp
	sub	esp, 256				; 00000100H
	push	ebx
	push	esi
	push	edi
	push	ecx
	lea	edi, DWORD PTR [ebp-64]
	mov	ecx, 16					; 00000010H
	mov	eax, -858993460				; ccccccccH
	rep stosd
	pop	ecx
	mov	eax, DWORD PTR ___security_cookie
	xor	eax, ebp
	mov	DWORD PTR __$ArrayPad$[ebp], eax
	mov	DWORD PTR _this$[ebp], ecx
	mov	ecx, OFFSET __0D019051_xstring
	call	@__CheckForDebuggerJustMyCode@4

; 4472 :         // reallocate to store exactly _New_size elements, new buffer prepared by
; 4473 :         // _Fn(_New_ptr, _New_size, _Args...)
; 4474 :         if (_New_size > max_size()) {

	mov	ecx, DWORD PTR _this$[ebp]
	call	?max_size@?$basic_string@_UU?$char_traits@_U@std@@V?$allocator@_U@2@@std@@QBEIXZ ; std::basic_string<char32_t,std::char_traits<char32_t>,std::allocator<char32_t> >::max_size
	cmp	DWORD PTR __New_size$[ebp], eax
	jbe	SHORT $LN2@Reallocate

; 4475 :             _Xlen_string(); // result too long

	call	?_Xlen_string@std@@YAXXZ		; std::_Xlen_string
$LN2@Reallocate:

; 4476 :         }
; 4477 : 
; 4478 :         const size_type _Old_capacity = _Mypair._Myval2._Myres;

	mov	eax, DWORD PTR _this$[ebp]
	mov	ecx, DWORD PTR [eax+24]
	mov	DWORD PTR __Old_capacity$[ebp], ecx

; 4479 :         const size_type _New_capacity = _Calculate_growth(_New_size);

	mov	eax, DWORD PTR __New_size$[ebp]
	push	eax
	mov	ecx, DWORD PTR _this$[ebp]
	call	?_Calculate_growth@?$basic_string@_UU?$char_traits@_U@std@@V?$allocator@_U@2@@std@@ABEII@Z ; std::basic_string<char32_t,std::char_traits<char32_t>,std::allocator<char32_t> >::_Calculate_growth
	mov	DWORD PTR __New_capacity$[ebp], eax

; 4480 :         auto& _Al                     = _Getal();

	mov	ecx, DWORD PTR _this$[ebp]
	call	?_Getal@?$basic_string@_UU?$char_traits@_U@std@@V?$allocator@_U@2@@std@@AAEAAV?$allocator@_U@2@XZ ; std::basic_string<char32_t,std::char_traits<char32_t>,std::allocator<char32_t> >::_Getal
	mov	DWORD PTR __Al$[ebp], eax

; 4481 :         const pointer _New_ptr        = _Al.allocate(_New_capacity + 1); // throws

	mov	eax, DWORD PTR __New_capacity$[ebp]
	add	eax, 1
	push	eax
	mov	ecx, DWORD PTR __Al$[ebp]
	call	?allocate@?$allocator@_U@std@@QAEPA_UI@Z ; std::allocator<char32_t>::allocate
	mov	DWORD PTR __New_ptr$[ebp], eax

; 4482 : 
; 4483 : #ifdef __cpp_lib_constexpr_string
; 4484 :         if (_STD is_constant_evaluated()) { // Begin the lifetimes of the objects before copying to avoid UB
; 4485 :             _Traits::assign(_Unfancy(_New_ptr), _New_capacity + 1, _Elem());
; 4486 :         }
; 4487 : #endif // __cpp_lib_constexpr_string
; 4488 :         _Mypair._Myval2._Orphan_all();

	mov	ecx, DWORD PTR _this$[ebp]
	call	?_Orphan_all@_Container_base12@std@@QAEXXZ ; std::_Container_base12::_Orphan_all

; 4489 :         _Mypair._Myval2._Mysize = _New_size;

	mov	eax, DWORD PTR _this$[ebp]
	mov	ecx, DWORD PTR __New_size$[ebp]
	mov	DWORD PTR [eax+20], ecx

; 4490 :         _Mypair._Myval2._Myres  = _New_capacity;

	mov	eax, DWORD PTR _this$[ebp]
	mov	ecx, DWORD PTR __New_capacity$[ebp]
	mov	DWORD PTR [eax+24], ecx

; 4491 :         _Fn(_Unfancy(_New_ptr), _New_size, _Args...);

	mov	eax, DWORD PTR _<_Args_0>$[ebp]
	push	eax
	mov	ecx, DWORD PTR __New_size$[ebp]
	push	ecx
	mov	edx, DWORD PTR __New_ptr$[ebp]
	push	edx
	call	??$_Unfancy@_U@std@@YAPA_UPA_U@Z	; std::_Unfancy<char32_t>
	add	esp, 4
	push	eax
	lea	ecx, DWORD PTR __Fn$[ebp]
	call	??R<lambda_02ffc73a80c062ba6e5e6c9f53d514cc>@@QBE@QA_UIQB_U@Z ; <lambda_02ffc73a80c062ba6e5e6c9f53d514cc>::operator()

; 4492 :         if (_BUF_SIZE <= _Old_capacity) {

	cmp	DWORD PTR __Old_capacity$[ebp], 4
	jb	SHORT $LN3@Reallocate

; 4493 :             _Al.deallocate(_Mypair._Myval2._Bx._Ptr, _Old_capacity + 1);

	mov	eax, DWORD PTR __Old_capacity$[ebp]
	add	eax, 1
	push	eax
	mov	ecx, DWORD PTR _this$[ebp]
	mov	edx, DWORD PTR [ecx+4]
	push	edx
	mov	ecx, DWORD PTR __Al$[ebp]
	call	?deallocate@?$allocator@_U@std@@QAEXQA_UI@Z ; std::allocator<char32_t>::deallocate

; 4494 :             _Mypair._Myval2._Bx._Ptr = _New_ptr;

	mov	eax, DWORD PTR _this$[ebp]
	mov	ecx, DWORD PTR __New_ptr$[ebp]
	mov	DWORD PTR [eax+4], ecx

; 4495 :         } else {

	jmp	SHORT $LN4@Reallocate
$LN3@Reallocate:

; 4496 :             _Construct_in_place(_Mypair._Myval2._Bx._Ptr, _New_ptr);

	lea	eax, DWORD PTR __New_ptr$[ebp]
	push	eax
	mov	ecx, DWORD PTR _this$[ebp]
	add	ecx, 4
	push	ecx
	call	??$_Construct_in_place@PA_UABQA_U@std@@YAXAAPA_UABQA_U@Z ; std::_Construct_in_place<char32_t *,char32_t * const &>
	add	esp, 8
$LN4@Reallocate:

; 4497 :         }
; 4498 : 
; 4499 :         return *this;

	mov	eax, DWORD PTR _this$[ebp]
$LN5@Reallocate:

; 4500 :     }

	push	edx
	mov	ecx, ebp
	push	eax
	lea	edx, DWORD PTR $LN8@Reallocate
	call	@_RTC_CheckStackVars@8
	pop	eax
	pop	edx
	pop	edi
	pop	esi
	pop	ebx
	mov	ecx, DWORD PTR __$ArrayPad$[ebp]
	xor	ecx, ebp
	call	@__security_check_cookie@4
	add	esp, 256				; 00000100H
	cmp	ebp, esp
	call	__RTC_CheckEsp
	mov	esp, ebp
	pop	ebp
	ret	12					; 0000000cH
$LN8@Reallocate:
	DD	1
	DD	$LN7@Reallocate
$LN7@Reallocate:
	DD	-60					; ffffffc4H
	DD	4
	DD	$LN6@Reallocate
$LN6@Reallocate:
	DB	95					; 0000005fH
	DB	78					; 0000004eH
	DB	101					; 00000065H
	DB	119					; 00000077H
	DB	95					; 0000005fH
	DB	112					; 00000070H
	DB	116					; 00000074H
	DB	114					; 00000072H
	DB	0
??$_Reallocate_for@V<lambda_02ffc73a80c062ba6e5e6c9f53d514cc>@@PB_U@?$basic_string@_UU?$char_traits@_U@std@@V?$allocator@_U@2@@std@@AAEAAV01@IV<lambda_02ffc73a80c062ba6e5e6c9f53d514cc>@@PB_U@Z ENDP ; std::basic_string<char32_t,std::char_traits<char32_t>,std::allocator<char32_t> >::_Reallocate_for<<lambda_02ffc73a80c062ba6e5e6c9f53d514cc>,char32_t const *>
_TEXT	ENDS
; Function compile flags: /Odtp /RTCsu /ZI
; File C:\Program Files (x86)\Microsoft Visual Studio\2019\Community\VC\Tools\MSVC\14.29.30133\include\xstring
;	COMDAT ??R<lambda_02ffc73a80c062ba6e5e6c9f53d514cc>@@QBE@QA_UIQB_U@Z
_TEXT	SEGMENT
$T1 = -212						; size = 4
_this$ = -8						; size = 4
__New_ptr$ = 8						; size = 4
__Count$ = 12						; size = 4
__Ptr$ = 16						; size = 4
??R<lambda_02ffc73a80c062ba6e5e6c9f53d514cc>@@QBE@QA_UIQB_U@Z PROC ; <lambda_02ffc73a80c062ba6e5e6c9f53d514cc>::operator(), COMDAT
; _this$ = ecx

; 3222 :             [](_Elem* const _New_ptr, const size_type _Count, const _Elem* const _Ptr) {

	push	ebp
	mov	ebp, esp
	sub	esp, 216				; 000000d8H
	push	ebx
	push	esi
	push	edi
	push	ecx
	lea	edi, DWORD PTR [ebp-24]
	mov	ecx, 6
	mov	eax, -858993460				; ccccccccH
	rep stosd
	pop	ecx
	mov	DWORD PTR _this$[ebp], ecx
	mov	ecx, OFFSET __0D019051_xstring
	call	@__CheckForDebuggerJustMyCode@4

; 3223 :                 _Traits::copy(_New_ptr, _Ptr, _Count);

	mov	eax, DWORD PTR __Count$[ebp]
	push	eax
	mov	ecx, DWORD PTR __Ptr$[ebp]
	push	ecx
	mov	edx, DWORD PTR __New_ptr$[ebp]
	push	edx
	call	?copy@?$_Char_traits@_UI@std@@SAPA_UQA_UQB_UI@Z ; std::_Char_traits<char32_t,unsigned int>::copy
	add	esp, 12					; 0000000cH

; 3224 :                 _Traits::assign(_New_ptr[_Count], _Elem());

	mov	DWORD PTR $T1[ebp], 0
	lea	eax, DWORD PTR $T1[ebp]
	push	eax
	mov	ecx, DWORD PTR __Count$[ebp]
	mov	edx, DWORD PTR __New_ptr$[ebp]
	lea	eax, DWORD PTR [edx+ecx*4]
	push	eax
	call	?assign@?$_Char_traits@_UI@std@@SAXAA_UAB_U@Z ; std::_Char_traits<char32_t,unsigned int>::assign
	add	esp, 8

; 3225 :             },

	pop	edi
	pop	esi
	pop	ebx
	add	esp, 216				; 000000d8H
	cmp	ebp, esp
	call	__RTC_CheckEsp
	mov	esp, ebp
	pop	ebp
	ret	12					; 0000000cH
??R<lambda_02ffc73a80c062ba6e5e6c9f53d514cc>@@QBE@QA_UIQB_U@Z ENDP ; <lambda_02ffc73a80c062ba6e5e6c9f53d514cc>::operator()
_TEXT	ENDS
; Function compile flags: /Odtp /RTCsu /ZI
; File C:\Program Files (x86)\Microsoft Visual Studio\2019\Community\VC\Tools\MSVC\14.29.30133\include\xmemory
;	COMDAT ??$_Destroy_in_place@PA_U@std@@YAXAAPA_U@Z
_TEXT	SEGMENT
__Obj$ = 8						; size = 4
??$_Destroy_in_place@PA_U@std@@YAXAAPA_U@Z PROC		; std::_Destroy_in_place<char32_t *>, COMDAT

; 294  : _CONSTEXPR20_DYNALLOC void _Destroy_in_place(_Ty& _Obj) noexcept {

	push	ebp
	mov	ebp, esp
	sub	esp, 192				; 000000c0H
	push	ebx
	push	esi
	push	edi
	mov	edi, ebp
	xor	ecx, ecx
	mov	eax, -858993460				; ccccccccH
	rep stosd
	mov	ecx, OFFSET __79D216CD_xmemory
	call	@__CheckForDebuggerJustMyCode@4

; 295  :     if constexpr (is_array_v<_Ty>) {
; 296  :         _Destroy_range(_Obj, _Obj + extent_v<_Ty>);
; 297  :     } else {
; 298  :         _Obj.~_Ty();
; 299  :     }
; 300  : }

	pop	edi
	pop	esi
	pop	ebx
	add	esp, 192				; 000000c0H
	cmp	ebp, esp
	call	__RTC_CheckEsp
	mov	esp, ebp
	pop	ebp
	ret	0
??$_Destroy_in_place@PA_U@std@@YAXAAPA_U@Z ENDP		; std::_Destroy_in_place<char32_t *>
_TEXT	ENDS
; Function compile flags: /Odtp /RTCsu /ZI
; File C:\Program Files (x86)\Microsoft Visual Studio\2019\Community\VC\Tools\MSVC\14.29.30133\include\xstddef
;	COMDAT ??$_Unfancy@U_Container_proxy@std@@@std@@YAPAU_Container_proxy@0@PAU10@@Z
_TEXT	SEGMENT
__Ptr$ = 8						; size = 4
??$_Unfancy@U_Container_proxy@std@@@std@@YAPAU_Container_proxy@0@PAU10@@Z PROC ; std::_Unfancy<std::_Container_proxy>, COMDAT

; 265  : _NODISCARD constexpr _Ty* _Unfancy(_Ty* _Ptr) noexcept { // do nothing for plain pointers

	push	ebp
	mov	ebp, esp
	sub	esp, 192				; 000000c0H
	push	ebx
	push	esi
	push	edi
	mov	edi, ebp
	xor	ecx, ecx
	mov	eax, -858993460				; ccccccccH
	rep stosd
	mov	ecx, OFFSET __E458E21C_xstddef
	call	@__CheckForDebuggerJustMyCode@4

; 266  :     return _Ptr;

	mov	eax, DWORD PTR __Ptr$[ebp]

; 267  : }

	pop	edi
	pop	esi
	pop	ebx
	add	esp, 192				; 000000c0H
	cmp	ebp, esp
	call	__RTC_CheckEsp
	mov	esp, ebp
	pop	ebp
	ret	0
??$_Unfancy@U_Container_proxy@std@@@std@@YAPAU_Container_proxy@0@PAU10@@Z ENDP ; std::_Unfancy<std::_Container_proxy>
_TEXT	ENDS
; Function compile flags: /Odtp /RTCsu /ZI
; File C:\Program Files (x86)\Microsoft Visual Studio\2019\Community\VC\Tools\MSVC\14.29.30133\include\xmemory
;	COMDAT ??$?0$$V@?$_Compressed_pair@V?$allocator@D@std@@V?$_String_val@U?$_Simple_types@D@std@@@2@$00@std@@QAE@U_Zero_then_variadic_args_t@1@@Z
_TEXT	SEGMENT
_this$ = -8						; size = 4
___formal$ = 8						; size = 1
??$?0$$V@?$_Compressed_pair@V?$allocator@D@std@@V?$_String_val@U?$_Simple_types@D@std@@@2@$00@std@@QAE@U_Zero_then_variadic_args_t@1@@Z PROC ; std::_Compressed_pair<std::allocator<char>,std::_String_val<std::_Simple_types<char> >,1>::_Compressed_pair<std::allocator<char>,std::_String_val<std::_Simple_types<char> >,1><>, COMDAT
; _this$ = ecx

; 1331 :         : _Ty1(), _Myval2(_STD forward<_Other2>(_Val2)...) {}

	push	ebp
	mov	ebp, esp
	sub	esp, 204				; 000000ccH
	push	ebx
	push	esi
	push	edi
	push	ecx
	lea	edi, DWORD PTR [ebp-12]
	mov	ecx, 3
	mov	eax, -858993460				; ccccccccH
	rep stosd
	pop	ecx
	mov	DWORD PTR _this$[ebp], ecx
	mov	ecx, OFFSET __79D216CD_xmemory
	call	@__CheckForDebuggerJustMyCode@4
	mov	ecx, DWORD PTR _this$[ebp]
	call	??0?$allocator@D@std@@QAE@XZ		; std::allocator<char>::allocator<char>
	mov	ecx, DWORD PTR _this$[ebp]
	call	??0?$_String_val@U?$_Simple_types@D@std@@@std@@QAE@XZ ; std::_String_val<std::_Simple_types<char> >::_String_val<std::_Simple_types<char> >
	mov	eax, DWORD PTR _this$[ebp]
	pop	edi
	pop	esi
	pop	ebx
	add	esp, 204				; 000000ccH
	cmp	ebp, esp
	call	__RTC_CheckEsp
	mov	esp, ebp
	pop	ebp
	ret	4
??$?0$$V@?$_Compressed_pair@V?$allocator@D@std@@V?$_String_val@U?$_Simple_types@D@std@@@2@$00@std@@QAE@U_Zero_then_variadic_args_t@1@@Z ENDP ; std::_Compressed_pair<std::allocator<char>,std::_String_val<std::_Simple_types<char> >,1>::_Compressed_pair<std::allocator<char>,std::_String_val<std::_Simple_types<char> >,1><>
_TEXT	ENDS
; Function compile flags: /Odtp /RTCsu /ZI
; File C:\Program Files (x86)\Microsoft Visual Studio\2019\Community\VC\Tools\MSVC\14.29.30133\include\xmemory
;	COMDAT ??$?0V?$allocator@D@std@@$$V@?$_Compressed_pair@V?$allocator@D@std@@V?$_String_val@U?$_Simple_types@D@std@@@2@$00@std@@QAE@U_One_then_variadic_args_t@1@$$QAV?$allocator@D@1@@Z
_TEXT	SEGMENT
_this$ = -8						; size = 4
___formal$ = 8						; size = 1
__Val1$ = 12						; size = 4
??$?0V?$allocator@D@std@@$$V@?$_Compressed_pair@V?$allocator@D@std@@V?$_String_val@U?$_Simple_types@D@std@@@2@$00@std@@QAE@U_One_then_variadic_args_t@1@$$QAV?$allocator@D@1@@Z PROC ; std::_Compressed_pair<std::allocator<char>,std::_String_val<std::_Simple_types<char> >,1>::_Compressed_pair<std::allocator<char>,std::_String_val<std::_Simple_types<char> >,1><std::allocator<char> >, COMDAT
; _this$ = ecx

; 1336 :         : _Ty1(_STD forward<_Other1>(_Val1)), _Myval2(_STD forward<_Other2>(_Val2)...) {}

	push	ebp
	mov	ebp, esp
	sub	esp, 204				; 000000ccH
	push	ebx
	push	esi
	push	edi
	push	ecx
	lea	edi, DWORD PTR [ebp-12]
	mov	ecx, 3
	mov	eax, -858993460				; ccccccccH
	rep stosd
	pop	ecx
	mov	DWORD PTR _this$[ebp], ecx
	mov	ecx, OFFSET __79D216CD_xmemory
	call	@__CheckForDebuggerJustMyCode@4
	mov	eax, DWORD PTR __Val1$[ebp]
	push	eax
	call	??$forward@V?$allocator@D@std@@@std@@YA$$QAV?$allocator@D@0@AAV10@@Z ; std::forward<std::allocator<char> >
	add	esp, 4
	mov	ecx, DWORD PTR _this$[ebp]
	call	??0?$_String_val@U?$_Simple_types@D@std@@@std@@QAE@XZ ; std::_String_val<std::_Simple_types<char> >::_String_val<std::_Simple_types<char> >
	mov	eax, DWORD PTR _this$[ebp]
	pop	edi
	pop	esi
	pop	ebx
	add	esp, 204				; 000000ccH
	cmp	ebp, esp
	call	__RTC_CheckEsp
	mov	esp, ebp
	pop	ebp
	ret	8
??$?0V?$allocator@D@std@@$$V@?$_Compressed_pair@V?$allocator@D@std@@V?$_String_val@U?$_Simple_types@D@std@@@2@$00@std@@QAE@U_One_then_variadic_args_t@1@$$QAV?$allocator@D@1@@Z ENDP ; std::_Compressed_pair<std::allocator<char>,std::_String_val<std::_Simple_types<char> >,1>::_Compressed_pair<std::allocator<char>,std::_String_val<std::_Simple_types<char> >,1><std::allocator<char> >
_TEXT	ENDS
; Function compile flags: /Odtp /RTCsu /ZI
; File C:\Program Files (x86)\Microsoft Visual Studio\2019\Community\VC\Tools\MSVC\14.29.30133\include\type_traits
;	COMDAT ??$move@AAV?$allocator@D@std@@@std@@YA$$QAV?$allocator@D@0@AAV10@@Z
_TEXT	SEGMENT
__Arg$ = 8						; size = 4
??$move@AAV?$allocator@D@std@@@std@@YA$$QAV?$allocator@D@0@AAV10@@Z PROC ; std::move<std::allocator<char> &>, COMDAT

; 1396 : _NODISCARD constexpr remove_reference_t<_Ty>&& move(_Ty&& _Arg) noexcept { // forward _Arg as movable

	push	ebp
	mov	ebp, esp
	sub	esp, 192				; 000000c0H
	push	ebx
	push	esi
	push	edi
	mov	edi, ebp
	xor	ecx, ecx
	mov	eax, -858993460				; ccccccccH
	rep stosd
	mov	ecx, OFFSET __589FA321_type_traits
	call	@__CheckForDebuggerJustMyCode@4

; 1397 :     return static_cast<remove_reference_t<_Ty>&&>(_Arg);

	mov	eax, DWORD PTR __Arg$[ebp]

; 1398 : }

	pop	edi
	pop	esi
	pop	ebx
	add	esp, 192				; 000000c0H
	cmp	ebp, esp
	call	__RTC_CheckEsp
	mov	esp, ebp
	pop	ebp
	ret	0
??$move@AAV?$allocator@D@std@@@std@@YA$$QAV?$allocator@D@0@AAV10@@Z ENDP ; std::move<std::allocator<char> &>
_TEXT	ENDS
; Function compile flags: /Odtp /RTCsu /ZI
; File C:\Program Files (x86)\Microsoft Visual Studio\2019\Community\VC\Tools\MSVC\14.29.30133\include\xmemory
;	COMDAT ??$?0D@?$allocator@U_Container_proxy@std@@@std@@QAE@ABV?$allocator@D@1@@Z
_TEXT	SEGMENT
_this$ = -8						; size = 4
___formal$ = 8						; size = 4
??$?0D@?$allocator@U_Container_proxy@std@@@std@@QAE@ABV?$allocator@D@1@@Z PROC ; std::allocator<std::_Container_proxy>::allocator<std::_Container_proxy><char>, COMDAT
; _this$ = ecx

; 791  :     constexpr allocator(const allocator<_Other>&) noexcept {}

	push	ebp
	mov	ebp, esp
	sub	esp, 204				; 000000ccH
	push	ebx
	push	esi
	push	edi
	push	ecx
	lea	edi, DWORD PTR [ebp-12]
	mov	ecx, 3
	mov	eax, -858993460				; ccccccccH
	rep stosd
	pop	ecx
	mov	DWORD PTR _this$[ebp], ecx
	mov	ecx, OFFSET __79D216CD_xmemory
	call	@__CheckForDebuggerJustMyCode@4
	mov	eax, DWORD PTR _this$[ebp]
	pop	edi
	pop	esi
	pop	ebx
	add	esp, 204				; 000000ccH
	cmp	ebp, esp
	call	__RTC_CheckEsp
	mov	esp, ebp
	pop	ebp
	ret	4
??$?0D@?$allocator@U_Container_proxy@std@@@std@@QAE@ABV?$allocator@D@1@@Z ENDP ; std::allocator<std::_Container_proxy>::allocator<std::_Container_proxy><char>
_TEXT	ENDS
; Function compile flags: /Odtp /RTCsu /ZI
; File C:\Program Files (x86)\Microsoft Visual Studio\2019\Community\VC\Tools\MSVC\14.29.30133\include\xmemory
;	COMDAT ??$_Convert_size@I@std@@YAII@Z
_TEXT	SEGMENT
__Len$ = 8						; size = 4
??$_Convert_size@I@std@@YAII@Z PROC			; std::_Convert_size<unsigned int>, COMDAT

; 921  : _NODISCARD constexpr _Size_type _Convert_size(const size_t _Len) noexcept(is_same_v<_Size_type, size_t>) {

	push	ebp
	mov	ebp, esp
	sub	esp, 192				; 000000c0H
	push	ebx
	push	esi
	push	edi
	mov	edi, ebp
	xor	ecx, ecx
	mov	eax, -858993460				; ccccccccH
	rep stosd
	mov	ecx, OFFSET __79D216CD_xmemory
	call	@__CheckForDebuggerJustMyCode@4

; 922  :     // convert size_t to _Size_type, avoiding truncation
; 923  :     if constexpr (!is_same_v<_Size_type, size_t>) {
; 924  :         if (_Len > (numeric_limits<_Size_type>::max)()) {
; 925  :             _Xlength_error("size_t too long for _Size_type");
; 926  :         }
; 927  :     }
; 928  : 
; 929  :     return static_cast<_Size_type>(_Len);

	mov	eax, DWORD PTR __Len$[ebp]

; 930  : }

	pop	edi
	pop	esi
	pop	ebx
	add	esp, 192				; 000000c0H
	cmp	ebp, esp
	call	__RTC_CheckEsp
	mov	esp, ebp
	pop	ebp
	ret	0
??$_Convert_size@I@std@@YAII@Z ENDP			; std::_Convert_size<unsigned int>
_TEXT	ENDS
; Function compile flags: /Odtp /RTCsu /ZI
; File C:\Program Files (x86)\Microsoft Visual Studio\2019\Community\VC\Tools\MSVC\14.29.30133\include\xmemory
;	COMDAT ??$?0$$V@?$_Compressed_pair@V?$allocator@_W@std@@V?$_String_val@U?$_Simple_types@_W@std@@@2@$00@std@@QAE@U_Zero_then_variadic_args_t@1@@Z
_TEXT	SEGMENT
_this$ = -8						; size = 4
___formal$ = 8						; size = 1
??$?0$$V@?$_Compressed_pair@V?$allocator@_W@std@@V?$_String_val@U?$_Simple_types@_W@std@@@2@$00@std@@QAE@U_Zero_then_variadic_args_t@1@@Z PROC ; std::_Compressed_pair<std::allocator<wchar_t>,std::_String_val<std::_Simple_types<wchar_t> >,1>::_Compressed_pair<std::allocator<wchar_t>,std::_String_val<std::_Simple_types<wchar_t> >,1><>, COMDAT
; _this$ = ecx

; 1331 :         : _Ty1(), _Myval2(_STD forward<_Other2>(_Val2)...) {}

	push	ebp
	mov	ebp, esp
	sub	esp, 204				; 000000ccH
	push	ebx
	push	esi
	push	edi
	push	ecx
	lea	edi, DWORD PTR [ebp-12]
	mov	ecx, 3
	mov	eax, -858993460				; ccccccccH
	rep stosd
	pop	ecx
	mov	DWORD PTR _this$[ebp], ecx
	mov	ecx, OFFSET __79D216CD_xmemory
	call	@__CheckForDebuggerJustMyCode@4
	mov	ecx, DWORD PTR _this$[ebp]
	call	??0?$allocator@_W@std@@QAE@XZ		; std::allocator<wchar_t>::allocator<wchar_t>
	mov	ecx, DWORD PTR _this$[ebp]
	call	??0?$_String_val@U?$_Simple_types@_W@std@@@std@@QAE@XZ ; std::_String_val<std::_Simple_types<wchar_t> >::_String_val<std::_Simple_types<wchar_t> >
	mov	eax, DWORD PTR _this$[ebp]
	pop	edi
	pop	esi
	pop	ebx
	add	esp, 204				; 000000ccH
	cmp	ebp, esp
	call	__RTC_CheckEsp
	mov	esp, ebp
	pop	ebp
	ret	4
??$?0$$V@?$_Compressed_pair@V?$allocator@_W@std@@V?$_String_val@U?$_Simple_types@_W@std@@@2@$00@std@@QAE@U_Zero_then_variadic_args_t@1@@Z ENDP ; std::_Compressed_pair<std::allocator<wchar_t>,std::_String_val<std::_Simple_types<wchar_t> >,1>::_Compressed_pair<std::allocator<wchar_t>,std::_String_val<std::_Simple_types<wchar_t> >,1><>
_TEXT	ENDS
; Function compile flags: /Odtp /RTCsu /ZI
; File C:\Program Files (x86)\Microsoft Visual Studio\2019\Community\VC\Tools\MSVC\14.29.30133\include\xmemory
;	COMDAT ??$_Alloc_proxy@V?$allocator@U_Container_proxy@std@@@std@@@_Container_base12@std@@QAEX$$QAV?$allocator@U_Container_proxy@std@@@1@@Z
_TEXT	SEGMENT
$T1 = -224						; size = 4
__New_proxy$ = -20					; size = 4
_this$ = -8						; size = 4
__Al$ = 8						; size = 4
??$_Alloc_proxy@V?$allocator@U_Container_proxy@std@@@std@@@_Container_base12@std@@QAEX$$QAV?$allocator@U_Container_proxy@std@@@1@@Z PROC ; std::_Container_base12::_Alloc_proxy<std::allocator<std::_Container_proxy> >, COMDAT
; _this$ = ecx

; 1017 :     _CONSTEXPR20_CONTAINER void _Alloc_proxy(_Alloc&& _Al) {

	push	ebp
	mov	ebp, esp
	sub	esp, 228				; 000000e4H
	push	ebx
	push	esi
	push	edi
	push	ecx
	lea	edi, DWORD PTR [ebp-36]
	mov	ecx, 9
	mov	eax, -858993460				; ccccccccH
	rep stosd
	pop	ecx
	mov	DWORD PTR _this$[ebp], ecx
	mov	ecx, OFFSET __79D216CD_xmemory
	call	@__CheckForDebuggerJustMyCode@4

; 1018 :         _Container_proxy* const _New_proxy = _Unfancy(_Al.allocate(1));

	push	1
	mov	ecx, DWORD PTR __Al$[ebp]
	call	?allocate@?$allocator@U_Container_proxy@std@@@std@@QAEPAU_Container_proxy@2@I@Z ; std::allocator<std::_Container_proxy>::allocate
	push	eax
	call	??$_Unfancy@U_Container_proxy@std@@@std@@YAPAU_Container_proxy@0@PAU10@@Z ; std::_Unfancy<std::_Container_proxy>
	add	esp, 4
	mov	DWORD PTR __New_proxy$[ebp], eax

; 1019 :         _Construct_in_place(*_New_proxy, this);

	mov	eax, DWORD PTR _this$[ebp]
	mov	DWORD PTR $T1[ebp], eax
	lea	ecx, DWORD PTR $T1[ebp]
	push	ecx
	mov	edx, DWORD PTR __New_proxy$[ebp]
	push	edx
	call	??$_Construct_in_place@U_Container_proxy@std@@PAU_Container_base12@2@@std@@YAXAAU_Container_proxy@0@$$QAPAU_Container_base12@0@@Z ; std::_Construct_in_place<std::_Container_proxy,std::_Container_base12 *>
	add	esp, 8

; 1020 :         _Myproxy            = _New_proxy;

	mov	eax, DWORD PTR _this$[ebp]
	mov	ecx, DWORD PTR __New_proxy$[ebp]
	mov	DWORD PTR [eax], ecx

; 1021 :         _New_proxy->_Mycont = this;

	mov	eax, DWORD PTR __New_proxy$[ebp]
	mov	ecx, DWORD PTR _this$[ebp]
	mov	DWORD PTR [eax], ecx

; 1022 :     }

	pop	edi
	pop	esi
	pop	ebx
	add	esp, 228				; 000000e4H
	cmp	ebp, esp
	call	__RTC_CheckEsp
	mov	esp, ebp
	pop	ebp
	ret	4
??$_Alloc_proxy@V?$allocator@U_Container_proxy@std@@@std@@@_Container_base12@std@@QAEX$$QAV?$allocator@U_Container_proxy@std@@@1@@Z ENDP ; std::_Container_base12::_Alloc_proxy<std::allocator<std::_Container_proxy> >
_TEXT	ENDS
; Function compile flags: /Odtp /RTCsu /ZI
; File C:\Program Files (x86)\Microsoft Visual Studio\2019\Community\VC\Tools\MSVC\14.29.30133\include\xmemory
;	COMDAT ??$?0V?$allocator@_W@std@@$$V@?$_Compressed_pair@V?$allocator@_W@std@@V?$_String_val@U?$_Simple_types@_W@std@@@2@$00@std@@QAE@U_One_then_variadic_args_t@1@$$QAV?$allocator@_W@1@@Z
_TEXT	SEGMENT
_this$ = -8						; size = 4
___formal$ = 8						; size = 1
__Val1$ = 12						; size = 4
??$?0V?$allocator@_W@std@@$$V@?$_Compressed_pair@V?$allocator@_W@std@@V?$_String_val@U?$_Simple_types@_W@std@@@2@$00@std@@QAE@U_One_then_variadic_args_t@1@$$QAV?$allocator@_W@1@@Z PROC ; std::_Compressed_pair<std::allocator<wchar_t>,std::_String_val<std::_Simple_types<wchar_t> >,1>::_Compressed_pair<std::allocator<wchar_t>,std::_String_val<std::_Simple_types<wchar_t> >,1><std::allocator<wchar_t> >, COMDAT
; _this$ = ecx

; 1336 :         : _Ty1(_STD forward<_Other1>(_Val1)), _Myval2(_STD forward<_Other2>(_Val2)...) {}

	push	ebp
	mov	ebp, esp
	sub	esp, 204				; 000000ccH
	push	ebx
	push	esi
	push	edi
	push	ecx
	lea	edi, DWORD PTR [ebp-12]
	mov	ecx, 3
	mov	eax, -858993460				; ccccccccH
	rep stosd
	pop	ecx
	mov	DWORD PTR _this$[ebp], ecx
	mov	ecx, OFFSET __79D216CD_xmemory
	call	@__CheckForDebuggerJustMyCode@4
	mov	eax, DWORD PTR __Val1$[ebp]
	push	eax
	call	??$forward@V?$allocator@_W@std@@@std@@YA$$QAV?$allocator@_W@0@AAV10@@Z ; std::forward<std::allocator<wchar_t> >
	add	esp, 4
	mov	ecx, DWORD PTR _this$[ebp]
	call	??0?$_String_val@U?$_Simple_types@_W@std@@@std@@QAE@XZ ; std::_String_val<std::_Simple_types<wchar_t> >::_String_val<std::_Simple_types<wchar_t> >
	mov	eax, DWORD PTR _this$[ebp]
	pop	edi
	pop	esi
	pop	ebx
	add	esp, 204				; 000000ccH
	cmp	ebp, esp
	call	__RTC_CheckEsp
	mov	esp, ebp
	pop	ebp
	ret	8
??$?0V?$allocator@_W@std@@$$V@?$_Compressed_pair@V?$allocator@_W@std@@V?$_String_val@U?$_Simple_types@_W@std@@@2@$00@std@@QAE@U_One_then_variadic_args_t@1@$$QAV?$allocator@_W@1@@Z ENDP ; std::_Compressed_pair<std::allocator<wchar_t>,std::_String_val<std::_Simple_types<wchar_t> >,1>::_Compressed_pair<std::allocator<wchar_t>,std::_String_val<std::_Simple_types<wchar_t> >,1><std::allocator<wchar_t> >
_TEXT	ENDS
; Function compile flags: /Odtp /RTCsu /ZI
; File C:\Program Files (x86)\Microsoft Visual Studio\2019\Community\VC\Tools\MSVC\14.29.30133\include\type_traits
;	COMDAT ??$move@AAV?$allocator@_W@std@@@std@@YA$$QAV?$allocator@_W@0@AAV10@@Z
_TEXT	SEGMENT
__Arg$ = 8						; size = 4
??$move@AAV?$allocator@_W@std@@@std@@YA$$QAV?$allocator@_W@0@AAV10@@Z PROC ; std::move<std::allocator<wchar_t> &>, COMDAT

; 1396 : _NODISCARD constexpr remove_reference_t<_Ty>&& move(_Ty&& _Arg) noexcept { // forward _Arg as movable

	push	ebp
	mov	ebp, esp
	sub	esp, 192				; 000000c0H
	push	ebx
	push	esi
	push	edi
	mov	edi, ebp
	xor	ecx, ecx
	mov	eax, -858993460				; ccccccccH
	rep stosd
	mov	ecx, OFFSET __589FA321_type_traits
	call	@__CheckForDebuggerJustMyCode@4

; 1397 :     return static_cast<remove_reference_t<_Ty>&&>(_Arg);

	mov	eax, DWORD PTR __Arg$[ebp]

; 1398 : }

	pop	edi
	pop	esi
	pop	ebx
	add	esp, 192				; 000000c0H
	cmp	ebp, esp
	call	__RTC_CheckEsp
	mov	esp, ebp
	pop	ebp
	ret	0
??$move@AAV?$allocator@_W@std@@@std@@YA$$QAV?$allocator@_W@0@AAV10@@Z ENDP ; std::move<std::allocator<wchar_t> &>
_TEXT	ENDS
; Function compile flags: /Odtp /RTCsu /ZI
; File C:\Program Files (x86)\Microsoft Visual Studio\2019\Community\VC\Tools\MSVC\14.29.30133\include\xmemory
;	COMDAT ??$?0_W@?$allocator@U_Container_proxy@std@@@std@@QAE@ABV?$allocator@_W@1@@Z
_TEXT	SEGMENT
_this$ = -8						; size = 4
___formal$ = 8						; size = 4
??$?0_W@?$allocator@U_Container_proxy@std@@@std@@QAE@ABV?$allocator@_W@1@@Z PROC ; std::allocator<std::_Container_proxy>::allocator<std::_Container_proxy><wchar_t>, COMDAT
; _this$ = ecx

; 791  :     constexpr allocator(const allocator<_Other>&) noexcept {}

	push	ebp
	mov	ebp, esp
	sub	esp, 204				; 000000ccH
	push	ebx
	push	esi
	push	edi
	push	ecx
	lea	edi, DWORD PTR [ebp-12]
	mov	ecx, 3
	mov	eax, -858993460				; ccccccccH
	rep stosd
	pop	ecx
	mov	DWORD PTR _this$[ebp], ecx
	mov	ecx, OFFSET __79D216CD_xmemory
	call	@__CheckForDebuggerJustMyCode@4
	mov	eax, DWORD PTR _this$[ebp]
	pop	edi
	pop	esi
	pop	ebx
	add	esp, 204				; 000000ccH
	cmp	ebp, esp
	call	__RTC_CheckEsp
	mov	esp, ebp
	pop	ebp
	ret	4
??$?0_W@?$allocator@U_Container_proxy@std@@@std@@QAE@ABV?$allocator@_W@1@@Z ENDP ; std::allocator<std::_Container_proxy>::allocator<std::_Container_proxy><wchar_t>
_TEXT	ENDS
; Function compile flags: /Odtp /RTCsu /ZI
; File C:\Program Files (x86)\Microsoft Visual Studio\2019\Community\VC\Tools\MSVC\14.29.30133\include\xmemory
;	COMDAT ??$?0$$V@?$_Compressed_pair@V?$allocator@_S@std@@V?$_String_val@U?$_Simple_types@_S@std@@@2@$00@std@@QAE@U_Zero_then_variadic_args_t@1@@Z
_TEXT	SEGMENT
_this$ = -8						; size = 4
___formal$ = 8						; size = 1
??$?0$$V@?$_Compressed_pair@V?$allocator@_S@std@@V?$_String_val@U?$_Simple_types@_S@std@@@2@$00@std@@QAE@U_Zero_then_variadic_args_t@1@@Z PROC ; std::_Compressed_pair<std::allocator<char16_t>,std::_String_val<std::_Simple_types<char16_t> >,1>::_Compressed_pair<std::allocator<char16_t>,std::_String_val<std::_Simple_types<char16_t> >,1><>, COMDAT
; _this$ = ecx

; 1331 :         : _Ty1(), _Myval2(_STD forward<_Other2>(_Val2)...) {}

	push	ebp
	mov	ebp, esp
	sub	esp, 204				; 000000ccH
	push	ebx
	push	esi
	push	edi
	push	ecx
	lea	edi, DWORD PTR [ebp-12]
	mov	ecx, 3
	mov	eax, -858993460				; ccccccccH
	rep stosd
	pop	ecx
	mov	DWORD PTR _this$[ebp], ecx
	mov	ecx, OFFSET __79D216CD_xmemory
	call	@__CheckForDebuggerJustMyCode@4
	mov	ecx, DWORD PTR _this$[ebp]
	call	??0?$allocator@_S@std@@QAE@XZ		; std::allocator<char16_t>::allocator<char16_t>
	mov	ecx, DWORD PTR _this$[ebp]
	call	??0?$_String_val@U?$_Simple_types@_S@std@@@std@@QAE@XZ ; std::_String_val<std::_Simple_types<char16_t> >::_String_val<std::_Simple_types<char16_t> >
	mov	eax, DWORD PTR _this$[ebp]
	pop	edi
	pop	esi
	pop	ebx
	add	esp, 204				; 000000ccH
	cmp	ebp, esp
	call	__RTC_CheckEsp
	mov	esp, ebp
	pop	ebp
	ret	4
??$?0$$V@?$_Compressed_pair@V?$allocator@_S@std@@V?$_String_val@U?$_Simple_types@_S@std@@@2@$00@std@@QAE@U_Zero_then_variadic_args_t@1@@Z ENDP ; std::_Compressed_pair<std::allocator<char16_t>,std::_String_val<std::_Simple_types<char16_t> >,1>::_Compressed_pair<std::allocator<char16_t>,std::_String_val<std::_Simple_types<char16_t> >,1><>
_TEXT	ENDS
; Function compile flags: /Odtp /RTCsu /ZI
; File C:\Program Files (x86)\Microsoft Visual Studio\2019\Community\VC\Tools\MSVC\14.29.30133\include\xmemory
;	COMDAT ??$?0_S@?$allocator@U_Container_proxy@std@@@std@@QAE@ABV?$allocator@_S@1@@Z
_TEXT	SEGMENT
_this$ = -8						; size = 4
___formal$ = 8						; size = 4
??$?0_S@?$allocator@U_Container_proxy@std@@@std@@QAE@ABV?$allocator@_S@1@@Z PROC ; std::allocator<std::_Container_proxy>::allocator<std::_Container_proxy><char16_t>, COMDAT
; _this$ = ecx

; 791  :     constexpr allocator(const allocator<_Other>&) noexcept {}

	push	ebp
	mov	ebp, esp
	sub	esp, 204				; 000000ccH
	push	ebx
	push	esi
	push	edi
	push	ecx
	lea	edi, DWORD PTR [ebp-12]
	mov	ecx, 3
	mov	eax, -858993460				; ccccccccH
	rep stosd
	pop	ecx
	mov	DWORD PTR _this$[ebp], ecx
	mov	ecx, OFFSET __79D216CD_xmemory
	call	@__CheckForDebuggerJustMyCode@4
	mov	eax, DWORD PTR _this$[ebp]
	pop	edi
	pop	esi
	pop	ebx
	add	esp, 204				; 000000ccH
	cmp	ebp, esp
	call	__RTC_CheckEsp
	mov	esp, ebp
	pop	ebp
	ret	4
??$?0_S@?$allocator@U_Container_proxy@std@@@std@@QAE@ABV?$allocator@_S@1@@Z ENDP ; std::allocator<std::_Container_proxy>::allocator<std::_Container_proxy><char16_t>
_TEXT	ENDS
; Function compile flags: /Odtp /RTCsu /ZI
; File C:\Program Files (x86)\Microsoft Visual Studio\2019\Community\VC\Tools\MSVC\14.29.30133\include\xmemory
;	COMDAT ??1?$_Container_proxy_ptr12@V?$allocator@U_Container_proxy@std@@@std@@@std@@QAE@XZ
_TEXT	SEGMENT
_this$ = -8						; size = 4
??1?$_Container_proxy_ptr12@V?$allocator@U_Container_proxy@std@@@std@@@std@@QAE@XZ PROC ; std::_Container_proxy_ptr12<std::allocator<std::_Container_proxy> >::~_Container_proxy_ptr12<std::allocator<std::_Container_proxy> >, COMDAT
; _this$ = ecx

; 1295 :     _CONSTEXPR20_CONTAINER ~_Container_proxy_ptr12() {

	push	ebp
	mov	ebp, esp
	sub	esp, 204				; 000000ccH
	push	ebx
	push	esi
	push	edi
	push	ecx
	lea	edi, DWORD PTR [ebp-12]
	mov	ecx, 3
	mov	eax, -858993460				; ccccccccH
	rep stosd
	pop	ecx
	mov	DWORD PTR _this$[ebp], ecx
	mov	ecx, OFFSET __79D216CD_xmemory
	call	@__CheckForDebuggerJustMyCode@4

; 1296 :         if (_Ptr) {

	mov	eax, DWORD PTR _this$[ebp]
	cmp	DWORD PTR [eax], 0
	je	SHORT $LN3@Container_

; 1297 :             _Delete_plain_internal(_Al, _Ptr);

	mov	eax, DWORD PTR _this$[ebp]
	mov	ecx, DWORD PTR [eax]
	push	ecx
	mov	edx, DWORD PTR _this$[ebp]
	mov	eax, DWORD PTR [edx+4]
	push	eax
	call	??$_Delete_plain_internal@V?$allocator@U_Container_proxy@std@@@std@@@std@@YAXAAV?$allocator@U_Container_proxy@std@@@0@QAU_Container_proxy@0@@Z ; std::_Delete_plain_internal<std::allocator<std::_Container_proxy> >
	add	esp, 8
$LN3@Container_:

; 1298 :         }
; 1299 :     }

	pop	edi
	pop	esi
	pop	ebx
	add	esp, 204				; 000000ccH
	cmp	ebp, esp
	call	__RTC_CheckEsp
	mov	esp, ebp
	pop	ebp
	ret	0
??1?$_Container_proxy_ptr12@V?$allocator@U_Container_proxy@std@@@std@@@std@@QAE@XZ ENDP ; std::_Container_proxy_ptr12<std::allocator<std::_Container_proxy> >::~_Container_proxy_ptr12<std::allocator<std::_Container_proxy> >
_TEXT	ENDS
; Function compile flags: /Odtp /RTCsu /ZI
; File C:\Program Files (x86)\Microsoft Visual Studio\2019\Community\VC\Tools\MSVC\14.29.30133\include\xmemory
;	COMDAT ??0?$_Container_proxy_ptr12@V?$allocator@U_Container_proxy@std@@@std@@@std@@QAE@AAV?$allocator@U_Container_proxy@std@@@1@AAU_Container_base12@1@@Z
_TEXT	SEGMENT
$T1 = -212						; size = 4
_this$ = -8						; size = 4
__Al_$ = 8						; size = 4
__Mycont$ = 12						; size = 4
??0?$_Container_proxy_ptr12@V?$allocator@U_Container_proxy@std@@@std@@@std@@QAE@AAV?$allocator@U_Container_proxy@std@@@1@AAU_Container_base12@1@@Z PROC ; std::_Container_proxy_ptr12<std::allocator<std::_Container_proxy> >::_Container_proxy_ptr12<std::allocator<std::_Container_proxy> >, COMDAT
; _this$ = ecx

; 1281 :     _CONSTEXPR20_CONTAINER _Container_proxy_ptr12(_Alloc& _Al_, _Container_base12& _Mycont) : _Al(_Al_) {

	push	ebp
	mov	ebp, esp
	sub	esp, 216				; 000000d8H
	push	ebx
	push	esi
	push	edi
	push	ecx
	lea	edi, DWORD PTR [ebp-24]
	mov	ecx, 6
	mov	eax, -858993460				; ccccccccH
	rep stosd
	pop	ecx
	mov	DWORD PTR _this$[ebp], ecx
	mov	ecx, OFFSET __79D216CD_xmemory
	call	@__CheckForDebuggerJustMyCode@4
	mov	ecx, DWORD PTR _this$[ebp]
	call	??0_Basic_container_proxy_ptr12@std@@IAE@XZ ; std::_Basic_container_proxy_ptr12::_Basic_container_proxy_ptr12
	mov	eax, DWORD PTR _this$[ebp]
	mov	ecx, DWORD PTR __Al_$[ebp]
	mov	DWORD PTR [eax+4], ecx

; 1282 :         // create a new _Container_proxy pointing at _Mycont
; 1283 :         _Ptr = _Unfancy(_Al_.allocate(1));

	push	1
	mov	ecx, DWORD PTR __Al_$[ebp]
	call	?allocate@?$allocator@U_Container_proxy@std@@@std@@QAEPAU_Container_proxy@2@I@Z ; std::allocator<std::_Container_proxy>::allocate
	push	eax
	call	??$_Unfancy@U_Container_proxy@std@@@std@@YAPAU_Container_proxy@0@PAU10@@Z ; std::_Unfancy<std::_Container_proxy>
	add	esp, 4
	mov	ecx, DWORD PTR _this$[ebp]
	mov	DWORD PTR [ecx], eax

; 1284 :         _Construct_in_place(*_Ptr, _STD addressof(_Mycont));

	mov	eax, DWORD PTR __Mycont$[ebp]
	push	eax
	call	??$addressof@U_Container_base12@std@@@std@@YAPAU_Container_base12@0@AAU10@@Z ; std::addressof<std::_Container_base12>
	add	esp, 4
	mov	DWORD PTR $T1[ebp], eax
	lea	ecx, DWORD PTR $T1[ebp]
	push	ecx
	mov	edx, DWORD PTR _this$[ebp]
	mov	eax, DWORD PTR [edx]
	push	eax
	call	??$_Construct_in_place@U_Container_proxy@std@@PAU_Container_base12@2@@std@@YAXAAU_Container_proxy@0@$$QAPAU_Container_base12@0@@Z ; std::_Construct_in_place<std::_Container_proxy,std::_Container_base12 *>
	add	esp, 8

; 1285 :         _Mycont._Myproxy = _Ptr;

	mov	eax, DWORD PTR __Mycont$[ebp]
	mov	ecx, DWORD PTR _this$[ebp]
	mov	edx, DWORD PTR [ecx]
	mov	DWORD PTR [eax], edx

; 1286 :     }

	mov	eax, DWORD PTR _this$[ebp]
	pop	edi
	pop	esi
	pop	ebx
	add	esp, 216				; 000000d8H
	cmp	ebp, esp
	call	__RTC_CheckEsp
	mov	esp, ebp
	pop	ebp
	ret	8
??0?$_Container_proxy_ptr12@V?$allocator@U_Container_proxy@std@@@std@@@std@@QAE@AAV?$allocator@U_Container_proxy@std@@@1@AAU_Container_base12@1@@Z ENDP ; std::_Container_proxy_ptr12<std::allocator<std::_Container_proxy> >::_Container_proxy_ptr12<std::allocator<std::_Container_proxy> >
_TEXT	ENDS
; Function compile flags: /Odtp /RTCsu /ZI
; File C:\Program Files (x86)\Microsoft Visual Studio\2019\Community\VC\Tools\MSVC\14.29.30133\include\xmemory
;	COMDAT ??$?0$$V@?$_Compressed_pair@V?$allocator@_U@std@@V?$_String_val@U?$_Simple_types@_U@std@@@2@$00@std@@QAE@U_Zero_then_variadic_args_t@1@@Z
_TEXT	SEGMENT
_this$ = -8						; size = 4
___formal$ = 8						; size = 1
??$?0$$V@?$_Compressed_pair@V?$allocator@_U@std@@V?$_String_val@U?$_Simple_types@_U@std@@@2@$00@std@@QAE@U_Zero_then_variadic_args_t@1@@Z PROC ; std::_Compressed_pair<std::allocator<char32_t>,std::_String_val<std::_Simple_types<char32_t> >,1>::_Compressed_pair<std::allocator<char32_t>,std::_String_val<std::_Simple_types<char32_t> >,1><>, COMDAT
; _this$ = ecx

; 1331 :         : _Ty1(), _Myval2(_STD forward<_Other2>(_Val2)...) {}

	push	ebp
	mov	ebp, esp
	sub	esp, 204				; 000000ccH
	push	ebx
	push	esi
	push	edi
	push	ecx
	lea	edi, DWORD PTR [ebp-12]
	mov	ecx, 3
	mov	eax, -858993460				; ccccccccH
	rep stosd
	pop	ecx
	mov	DWORD PTR _this$[ebp], ecx
	mov	ecx, OFFSET __79D216CD_xmemory
	call	@__CheckForDebuggerJustMyCode@4
	mov	ecx, DWORD PTR _this$[ebp]
	call	??0?$allocator@_U@std@@QAE@XZ		; std::allocator<char32_t>::allocator<char32_t>
	mov	ecx, DWORD PTR _this$[ebp]
	call	??0?$_String_val@U?$_Simple_types@_U@std@@@std@@QAE@XZ ; std::_String_val<std::_Simple_types<char32_t> >::_String_val<std::_Simple_types<char32_t> >
	mov	eax, DWORD PTR _this$[ebp]
	pop	edi
	pop	esi
	pop	ebx
	add	esp, 204				; 000000ccH
	cmp	ebp, esp
	call	__RTC_CheckEsp
	mov	esp, ebp
	pop	ebp
	ret	4
??$?0$$V@?$_Compressed_pair@V?$allocator@_U@std@@V?$_String_val@U?$_Simple_types@_U@std@@@2@$00@std@@QAE@U_Zero_then_variadic_args_t@1@@Z ENDP ; std::_Compressed_pair<std::allocator<char32_t>,std::_String_val<std::_Simple_types<char32_t> >,1>::_Compressed_pair<std::allocator<char32_t>,std::_String_val<std::_Simple_types<char32_t> >,1><>
_TEXT	ENDS
; Function compile flags: /Odtp /RTCsu /ZI
; File C:\Program Files (x86)\Microsoft Visual Studio\2019\Community\VC\Tools\MSVC\14.29.30133\include\xmemory
;	COMDAT ??$_Delete_plain_internal@V?$allocator@U_Container_proxy@std@@@std@@@std@@YAXAAV?$allocator@U_Container_proxy@std@@@0@QAU_Container_proxy@0@@Z
_TEXT	SEGMENT
__Al$ = 8						; size = 4
__Ptr$ = 12						; size = 4
??$_Delete_plain_internal@V?$allocator@U_Container_proxy@std@@@std@@@std@@YAXAAV?$allocator@U_Container_proxy@std@@@0@QAU_Container_proxy@0@@Z PROC ; std::_Delete_plain_internal<std::allocator<std::_Container_proxy> >, COMDAT

; 945  : _CONSTEXPR20_DYNALLOC void _Delete_plain_internal(_Alloc& _Al, typename _Alloc::value_type* const _Ptr) noexcept {

	push	ebp
	mov	ebp, esp
	sub	esp, 192				; 000000c0H
	push	ebx
	push	esi
	push	edi
	mov	edi, ebp
	xor	ecx, ecx
	mov	eax, -858993460				; ccccccccH
	rep stosd
	mov	ecx, OFFSET __79D216CD_xmemory
	call	@__CheckForDebuggerJustMyCode@4

; 946  :     // destroy *_Ptr in place, then deallocate _Ptr using _Al; used for internal container types the user didn't name
; 947  :     using _Ty = typename _Alloc::value_type;
; 948  :     _Ptr->~_Ty();
; 949  :     _Deallocate_plain(_Al, _Ptr);

	mov	eax, DWORD PTR __Ptr$[ebp]
	push	eax
	mov	ecx, DWORD PTR __Al$[ebp]
	push	ecx
	call	??$_Deallocate_plain@V?$allocator@U_Container_proxy@std@@@std@@@std@@YAXAAV?$allocator@U_Container_proxy@std@@@0@QAU_Container_proxy@0@@Z ; std::_Deallocate_plain<std::allocator<std::_Container_proxy> >
	add	esp, 8

; 950  : }

	pop	edi
	pop	esi
	pop	ebx
	add	esp, 192				; 000000c0H
	cmp	ebp, esp
	call	__RTC_CheckEsp
	mov	esp, ebp
	pop	ebp
	ret	0
??$_Delete_plain_internal@V?$allocator@U_Container_proxy@std@@@std@@@std@@YAXAAV?$allocator@U_Container_proxy@std@@@0@QAU_Container_proxy@0@@Z ENDP ; std::_Delete_plain_internal<std::allocator<std::_Container_proxy> >
_TEXT	ENDS
; Function compile flags: /Odtp /RTCsu /ZI
; File C:\Program Files (x86)\Microsoft Visual Studio\2019\Community\VC\Tools\MSVC\14.29.30133\include\xmemory
;	COMDAT ??$?0_U@?$allocator@U_Container_proxy@std@@@std@@QAE@ABV?$allocator@_U@1@@Z
_TEXT	SEGMENT
_this$ = -8						; size = 4
___formal$ = 8						; size = 4
??$?0_U@?$allocator@U_Container_proxy@std@@@std@@QAE@ABV?$allocator@_U@1@@Z PROC ; std::allocator<std::_Container_proxy>::allocator<std::_Container_proxy><char32_t>, COMDAT
; _this$ = ecx

; 791  :     constexpr allocator(const allocator<_Other>&) noexcept {}

	push	ebp
	mov	ebp, esp
	sub	esp, 204				; 000000ccH
	push	ebx
	push	esi
	push	edi
	push	ecx
	lea	edi, DWORD PTR [ebp-12]
	mov	ecx, 3
	mov	eax, -858993460				; ccccccccH
	rep stosd
	pop	ecx
	mov	DWORD PTR _this$[ebp], ecx
	mov	ecx, OFFSET __79D216CD_xmemory
	call	@__CheckForDebuggerJustMyCode@4
	mov	eax, DWORD PTR _this$[ebp]
	pop	edi
	pop	esi
	pop	ebx
	add	esp, 204				; 000000ccH
	cmp	ebp, esp
	call	__RTC_CheckEsp
	mov	esp, ebp
	pop	ebp
	ret	4
??$?0_U@?$allocator@U_Container_proxy@std@@@std@@QAE@ABV?$allocator@_U@1@@Z ENDP ; std::allocator<std::_Container_proxy>::allocator<std::_Container_proxy><char32_t>
_TEXT	ENDS
; Function compile flags: /Odtp /RTCsu /ZI
; File C:\Program Files (x86)\Microsoft Visual Studio\2019\Community\VC\Tools\MSVC\14.29.30133\include\xmemory
;	COMDAT ?allocate@?$allocator@U_Container_proxy@std@@@std@@QAEPAU_Container_proxy@2@I@Z
_TEXT	SEGMENT
_this$ = -8						; size = 4
__Count$ = 8						; size = 4
?allocate@?$allocator@U_Container_proxy@std@@@std@@QAEPAU_Container_proxy@2@I@Z PROC ; std::allocator<std::_Container_proxy>::allocate, COMDAT
; _this$ = ecx

; 800  :     _NODISCARD _CONSTEXPR20_DYNALLOC __declspec(allocator) _Ty* allocate(_CRT_GUARDOVERFLOW const size_t _Count) {

	push	ebp
	mov	ebp, esp
	sub	esp, 204				; 000000ccH
	push	ebx
	push	esi
	push	edi
	push	ecx
	lea	edi, DWORD PTR [ebp-12]
	mov	ecx, 3
	mov	eax, -858993460				; ccccccccH
	rep stosd
	pop	ecx
	mov	DWORD PTR _this$[ebp], ecx
	mov	ecx, OFFSET __79D216CD_xmemory
	call	@__CheckForDebuggerJustMyCode@4

; 801  :         return static_cast<_Ty*>(_Allocate<_New_alignof<_Ty>>(_Get_size_of_n<sizeof(_Ty)>(_Count)));

	mov	eax, DWORD PTR __Count$[ebp]
	push	eax
	call	??$_Get_size_of_n@$07@std@@YAII@Z	; std::_Get_size_of_n<8>
	add	esp, 4
	push	eax
	call	??$_Allocate@$07U_Default_allocate_traits@std@@$0A@@std@@YAPAXI@Z ; std::_Allocate<8,std::_Default_allocate_traits,0>
	add	esp, 4

; 802  :     }

	pop	edi
	pop	esi
	pop	ebx
	add	esp, 204				; 000000ccH
	cmp	ebp, esp
	call	__RTC_CheckEsp
	mov	esp, ebp
	pop	ebp
	ret	4
?allocate@?$allocator@U_Container_proxy@std@@@std@@QAEPAU_Container_proxy@2@I@Z ENDP ; std::allocator<std::_Container_proxy>::allocate
_TEXT	ENDS
; Function compile flags: /Odtp /RTCsu /ZI
; File C:\Program Files (x86)\Microsoft Visual Studio\2019\Community\VC\Tools\MSVC\14.29.30133\include\utility
;	COMDAT ??$min@I@std@@YAABIABI0@Z
_TEXT	SEGMENT
tv65 = -208						; size = 4
$T1 = -200						; size = 4
__Left$ = 8						; size = 4
__Right$ = 12						; size = 4
??$min@I@std@@YAABIABI0@Z PROC				; std::min<unsigned int>, COMDAT

; 64   :     const _Ty& _Left, const _Ty& _Right) noexcept(noexcept(_Right < _Left)) /* strengthened */ {

	push	ebp
	mov	ebp, esp
	sub	esp, 208				; 000000d0H
	push	ebx
	push	esi
	push	edi
	lea	edi, DWORD PTR [ebp-16]
	mov	ecx, 4
	mov	eax, -858993460				; ccccccccH
	rep stosd
	mov	ecx, OFFSET __1347750E_utility
	call	@__CheckForDebuggerJustMyCode@4

; 65   :     // return smaller of _Left and _Right
; 66   :     return _Right < _Left ? _Right : _Left;

	mov	eax, DWORD PTR __Right$[ebp]
	mov	ecx, DWORD PTR __Left$[ebp]
	mov	edx, DWORD PTR [eax]
	cmp	edx, DWORD PTR [ecx]
	jae	SHORT $LN3@min
	mov	eax, DWORD PTR __Right$[ebp]
	mov	DWORD PTR tv65[ebp], eax
	jmp	SHORT $LN4@min
$LN3@min:
	mov	ecx, DWORD PTR __Left$[ebp]
	mov	DWORD PTR tv65[ebp], ecx
$LN4@min:
	mov	edx, DWORD PTR tv65[ebp]
	mov	DWORD PTR $T1[ebp], edx
	mov	eax, DWORD PTR $T1[ebp]

; 67   : }

	pop	edi
	pop	esi
	pop	ebx
	add	esp, 208				; 000000d0H
	cmp	ebp, esp
	call	__RTC_CheckEsp
	mov	esp, ebp
	pop	ebp
	ret	0
??$min@I@std@@YAABIABI0@Z ENDP				; std::min<unsigned int>
_TEXT	ENDS
; Function compile flags: /Odtp /RTCsu /ZI
; File C:\Program Files (x86)\Microsoft Visual Studio\2019\Community\VC\Tools\MSVC\14.29.30133\include\type_traits
;	COMDAT ??$move@AAV?$basic_string@DU?$char_traits@D@std@@V?$allocator@D@2@@std@@@std@@YA$$QAV?$basic_string@DU?$char_traits@D@std@@V?$allocator@D@2@@0@AAV10@@Z
_TEXT	SEGMENT
__Arg$ = 8						; size = 4
??$move@AAV?$basic_string@DU?$char_traits@D@std@@V?$allocator@D@2@@std@@@std@@YA$$QAV?$basic_string@DU?$char_traits@D@std@@V?$allocator@D@2@@0@AAV10@@Z PROC ; std::move<std::basic_string<char,std::char_traits<char>,std::allocator<char> > &>, COMDAT

; 1396 : _NODISCARD constexpr remove_reference_t<_Ty>&& move(_Ty&& _Arg) noexcept { // forward _Arg as movable

	push	ebp
	mov	ebp, esp
	sub	esp, 192				; 000000c0H
	push	ebx
	push	esi
	push	edi
	mov	edi, ebp
	xor	ecx, ecx
	mov	eax, -858993460				; ccccccccH
	rep stosd
	mov	ecx, OFFSET __589FA321_type_traits
	call	@__CheckForDebuggerJustMyCode@4

; 1397 :     return static_cast<remove_reference_t<_Ty>&&>(_Arg);

	mov	eax, DWORD PTR __Arg$[ebp]

; 1398 : }

	pop	edi
	pop	esi
	pop	ebx
	add	esp, 192				; 000000c0H
	cmp	ebp, esp
	call	__RTC_CheckEsp
	mov	esp, ebp
	pop	ebp
	ret	0
??$move@AAV?$basic_string@DU?$char_traits@D@std@@V?$allocator@D@2@@std@@@std@@YA$$QAV?$basic_string@DU?$char_traits@D@std@@V?$allocator@D@2@@0@AAV10@@Z ENDP ; std::move<std::basic_string<char,std::char_traits<char>,std::allocator<char> > &>
_TEXT	ENDS
; Function compile flags: /Odtp /RTCsu /ZI
; File C:\Program Files (x86)\Microsoft Visual Studio\2019\Community\VC\Tools\MSVC\14.29.30133\include\type_traits
;	COMDAT ??$move@AAV?$basic_string@_WU?$char_traits@_W@std@@V?$allocator@_W@2@@std@@@std@@YA$$QAV?$basic_string@_WU?$char_traits@_W@std@@V?$allocator@_W@2@@0@AAV10@@Z
_TEXT	SEGMENT
__Arg$ = 8						; size = 4
??$move@AAV?$basic_string@_WU?$char_traits@_W@std@@V?$allocator@_W@2@@std@@@std@@YA$$QAV?$basic_string@_WU?$char_traits@_W@std@@V?$allocator@_W@2@@0@AAV10@@Z PROC ; std::move<std::basic_string<wchar_t,std::char_traits<wchar_t>,std::allocator<wchar_t> > &>, COMDAT

; 1396 : _NODISCARD constexpr remove_reference_t<_Ty>&& move(_Ty&& _Arg) noexcept { // forward _Arg as movable

	push	ebp
	mov	ebp, esp
	sub	esp, 192				; 000000c0H
	push	ebx
	push	esi
	push	edi
	mov	edi, ebp
	xor	ecx, ecx
	mov	eax, -858993460				; ccccccccH
	rep stosd
	mov	ecx, OFFSET __589FA321_type_traits
	call	@__CheckForDebuggerJustMyCode@4

; 1397 :     return static_cast<remove_reference_t<_Ty>&&>(_Arg);

	mov	eax, DWORD PTR __Arg$[ebp]

; 1398 : }

	pop	edi
	pop	esi
	pop	ebx
	add	esp, 192				; 000000c0H
	cmp	ebp, esp
	call	__RTC_CheckEsp
	mov	esp, ebp
	pop	ebp
	ret	0
??$move@AAV?$basic_string@_WU?$char_traits@_W@std@@V?$allocator@_W@2@@std@@@std@@YA$$QAV?$basic_string@_WU?$char_traits@_W@std@@V?$allocator@_W@2@@0@AAV10@@Z ENDP ; std::move<std::basic_string<wchar_t,std::char_traits<wchar_t>,std::allocator<wchar_t> > &>
_TEXT	ENDS
; Function compile flags: /Odtp /RTCsu /ZI
; File C:\Program Files (x86)\Microsoft Visual Studio\2019\Community\VC\Tools\MSVC\14.29.30133\include\ostream
;	COMDAT ??$?6U?$char_traits@D@std@@@std@@YAAAV?$basic_ostream@DU?$char_traits@D@std@@@0@AAV10@PBD@Z
_TEXT	SEGMENT
tv135 = -356						; size = 8
tv343 = -348						; size = 8
tv291 = -344						; size = 4
tv288 = -344						; size = 8
tv286 = -344						; size = 4
tv329 = -340						; size = 8
tv290 = -340						; size = 4
tv285 = -340						; size = 4
tv287 = -336						; size = 4
tv137 = -336						; size = 4
tv289 = -333						; size = 1
tv284 = -333						; size = 1
$T2 = -328						; size = 4
$T3 = -316						; size = 4
$T4 = -304						; size = 4
$T5 = -292						; size = 4
$T6 = -280						; size = 4
__Ok$ = -76						; size = 8
__Pad$ = -60						; size = 8
__Count$ = -44						; size = 8
__State$ = -28						; size = 4
__$ArrayPad$ = -20					; size = 4
__$EHRec$ = -16						; size = 16
__Ostr$ = 8						; size = 4
__Val$ = 12						; size = 4
??$?6U?$char_traits@D@std@@@std@@YAAAV?$basic_ostream@DU?$char_traits@D@std@@@0@AAV10@PBD@Z PROC ; std::operator<<<std::char_traits<char> >, COMDAT

; 731  :     const char* _Val) { // insert NTBS into char stream

	push	ebp
	mov	ebp, esp
	push	-1
	push	__ehhandler$??$?6U?$char_traits@D@std@@@std@@YAAAV?$basic_ostream@DU?$char_traits@D@std@@@0@AAV10@PBD@Z
	mov	eax, DWORD PTR fs:0
	push	eax
	push	ecx
	sub	esp, 340				; 00000154H
	push	ebx
	push	esi
	push	edi
	lea	edi, DWORD PTR [ebp-164]
	mov	ecx, 37					; 00000025H
	mov	eax, -858993460				; ccccccccH
	rep stosd
	mov	eax, DWORD PTR ___security_cookie
	xor	eax, ebp
	mov	DWORD PTR __$ArrayPad$[ebp], eax
	push	eax
	lea	eax, DWORD PTR __$EHRec$[ebp+4]
	mov	DWORD PTR fs:0, eax
	mov	DWORD PTR __$EHRec$[ebp], esp
	mov	ecx, OFFSET __C12F3EA4_ostream
	call	@__CheckForDebuggerJustMyCode@4

; 732  :     using _Elem = char;
; 733  :     using _Myos = basic_ostream<_Elem, _Traits>;
; 734  : 
; 735  :     ios_base::iostate _State = ios_base::goodbit;

	mov	DWORD PTR __State$[ebp], 0

; 736  :     streamsize _Count        = static_cast<streamsize>(_Traits::length(_Val));

	mov	eax, DWORD PTR __Val$[ebp]
	push	eax
	call	?length@?$_Narrow_char_traits@DH@std@@SAIQBD@Z ; std::_Narrow_char_traits<char,int>::length
	add	esp, 4
	xor	ecx, ecx
	mov	DWORD PTR __Count$[ebp], eax
	mov	DWORD PTR __Count$[ebp+4], ecx

; 737  :     streamsize _Pad          = _Ostr.width() <= 0 || _Ostr.width() <= _Count ? 0 : _Ostr.width() - _Count;

	mov	eax, DWORD PTR __Ostr$[ebp]
	mov	ecx, DWORD PTR [eax]
	mov	edx, DWORD PTR __Ostr$[ebp]
	add	edx, DWORD PTR [ecx+4]
	mov	esi, esp
	mov	ecx, edx
	call	DWORD PTR __imp_?width@ios_base@std@@QBE_JXZ
	cmp	esi, esp
	call	__RTC_CheckEsp
	mov	DWORD PTR tv329[ebp], eax
	mov	DWORD PTR tv329[ebp+4], edx
	cmp	DWORD PTR tv329[ebp+4], 0
	jl	SHORT $LN17@operator
	jg	SHORT $LN24@operator
	cmp	DWORD PTR tv329[ebp], 0
	jbe	SHORT $LN17@operator
$LN24@operator:
	mov	eax, DWORD PTR __Ostr$[ebp]
	mov	ecx, DWORD PTR [eax]
	mov	edx, DWORD PTR __Ostr$[ebp]
	add	edx, DWORD PTR [ecx+4]
	mov	esi, esp
	mov	ecx, edx
	call	DWORD PTR __imp_?width@ios_base@std@@QBE_JXZ
	cmp	esi, esp
	call	__RTC_CheckEsp
	mov	DWORD PTR tv343[ebp], eax
	mov	DWORD PTR tv343[ebp+4], edx
	mov	eax, DWORD PTR tv343[ebp+4]
	cmp	eax, DWORD PTR __Count$[ebp+4]
	jl	SHORT $LN17@operator
	jg	SHORT $LN25@operator
	mov	ecx, DWORD PTR tv343[ebp]
	cmp	ecx, DWORD PTR __Count$[ebp]
	jbe	SHORT $LN17@operator
$LN25@operator:
	mov	edx, DWORD PTR __Ostr$[ebp]
	mov	eax, DWORD PTR [edx]
	mov	ecx, DWORD PTR __Ostr$[ebp]
	add	ecx, DWORD PTR [eax+4]
	mov	esi, esp
	call	DWORD PTR __imp_?width@ios_base@std@@QBE_JXZ
	cmp	esi, esp
	call	__RTC_CheckEsp
	sub	eax, DWORD PTR __Count$[ebp]
	sbb	edx, DWORD PTR __Count$[ebp+4]
	mov	DWORD PTR tv135[ebp], eax
	mov	DWORD PTR tv135[ebp+4], edx
	jmp	SHORT $LN18@operator
$LN17@operator:
	xorps	xmm0, xmm0
	movlpd	QWORD PTR tv135[ebp], xmm0
$LN18@operator:
	mov	ecx, DWORD PTR tv135[ebp]
	mov	edx, DWORD PTR tv135[ebp+4]
	mov	DWORD PTR __Pad$[ebp], ecx
	mov	DWORD PTR __Pad$[ebp+4], edx

; 738  :     const typename _Myos::sentry _Ok(_Ostr);

	mov	eax, DWORD PTR __Ostr$[ebp]
	push	eax
	lea	ecx, DWORD PTR __Ok$[ebp]
	call	??0sentry@?$basic_ostream@DU?$char_traits@D@std@@@std@@QAE@AAV12@@Z ; std::basic_ostream<char,std::char_traits<char> >::sentry::sentry
	mov	DWORD PTR __$EHRec$[ebp+12], 0

; 739  : 
; 740  :     if (!_Ok) {

	lea	ecx, DWORD PTR __Ok$[ebp]
	call	??Bsentry@?$basic_ostream@DU?$char_traits@D@std@@@std@@QBE_NXZ ; std::basic_ostream<char,std::char_traits<char> >::sentry::operator bool
	movzx	eax, al
	test	eax, eax
	jne	SHORT $LN8@operator

; 741  :         _State |= ios_base::badbit;

	mov	eax, DWORD PTR __State$[ebp]
	or	eax, 4
	mov	DWORD PTR __State$[ebp], eax

; 742  :     } else { // state okay, insert

	jmp	$LN9@operator
$LN8@operator:

; 743  :         _TRY_IO_BEGIN

	mov	BYTE PTR __$EHRec$[ebp+12], 1

; 744  :         if ((_Ostr.flags() & ios_base::adjustfield) != ios_base::left) {

	mov	eax, DWORD PTR __Ostr$[ebp]
	mov	ecx, DWORD PTR [eax]
	mov	edx, DWORD PTR __Ostr$[ebp]
	add	edx, DWORD PTR [ecx+4]
	mov	esi, esp
	mov	ecx, edx
	call	DWORD PTR __imp_?flags@ios_base@std@@QBEHXZ
	cmp	esi, esp
	call	__RTC_CheckEsp
	mov	DWORD PTR tv137[ebp], eax
	mov	eax, DWORD PTR tv137[ebp]
	and	eax, 448				; 000001c0H
	cmp	eax, 64					; 00000040H
	je	$LN11@operator

; 745  :             for (; 0 < _Pad; --_Pad) { // pad on left

	jmp	SHORT $LN4@operator
$LN2@operator:
	mov	eax, DWORD PTR __Pad$[ebp]
	sub	eax, 1
	mov	ecx, DWORD PTR __Pad$[ebp+4]
	sbb	ecx, 0
	mov	DWORD PTR __Pad$[ebp], eax
	mov	DWORD PTR __Pad$[ebp+4], ecx
$LN4@operator:
	cmp	DWORD PTR __Pad$[ebp+4], 0
	jl	$LN11@operator
	jg	SHORT $LN26@operator
	cmp	DWORD PTR __Pad$[ebp], 0
	jbe	$LN11@operator
$LN26@operator:

; 746  :                 if (_Traits::eq_int_type(_Traits::eof(), _Ostr.rdbuf()->sputc(_Ostr.fill()))) {

	mov	eax, DWORD PTR __Ostr$[ebp]
	mov	ecx, DWORD PTR [eax]
	mov	edx, DWORD PTR __Ostr$[ebp]
	add	edx, DWORD PTR [ecx+4]
	mov	esi, esp
	mov	ecx, edx
	call	DWORD PTR __imp_?fill@?$basic_ios@DU?$char_traits@D@std@@@std@@QBEDXZ
	cmp	esi, esp
	call	__RTC_CheckEsp
	mov	BYTE PTR tv284[ebp], al
	mov	eax, DWORD PTR __Ostr$[ebp]
	mov	ecx, DWORD PTR [eax]
	mov	edx, DWORD PTR __Ostr$[ebp]
	add	edx, DWORD PTR [ecx+4]
	mov	esi, esp
	mov	ecx, edx
	call	DWORD PTR __imp_?rdbuf@?$basic_ios@DU?$char_traits@D@std@@@std@@QBEPAV?$basic_streambuf@DU?$char_traits@D@std@@@2@XZ
	cmp	esi, esp
	call	__RTC_CheckEsp
	mov	DWORD PTR tv285[ebp], eax
	mov	esi, esp
	movzx	eax, BYTE PTR tv284[ebp]
	push	eax
	mov	ecx, DWORD PTR tv285[ebp]
	call	DWORD PTR __imp_?sputc@?$basic_streambuf@DU?$char_traits@D@std@@@std@@QAEHD@Z
	cmp	esi, esp
	call	__RTC_CheckEsp
	mov	DWORD PTR tv286[ebp], eax
	mov	ecx, DWORD PTR tv286[ebp]
	mov	DWORD PTR $T6[ebp], ecx
	call	?eof@?$_Narrow_char_traits@DH@std@@SAHXZ ; std::_Narrow_char_traits<char,int>::eof
	mov	DWORD PTR $T5[ebp], eax
	lea	edx, DWORD PTR $T6[ebp]
	push	edx
	lea	eax, DWORD PTR $T5[ebp]
	push	eax
	call	?eq_int_type@?$_Narrow_char_traits@DH@std@@SA_NABH0@Z ; std::_Narrow_char_traits<char,int>::eq_int_type
	add	esp, 8
	movzx	ecx, al
	test	ecx, ecx
	je	SHORT $LN12@operator

; 747  :                     _State |= ios_base::badbit; // insertion failed, quit

	mov	eax, DWORD PTR __State$[ebp]
	or	eax, 4
	mov	DWORD PTR __State$[ebp], eax

; 748  :                     break;

	jmp	SHORT $LN11@operator
$LN12@operator:

; 749  :                 }
; 750  :             }

	jmp	$LN2@operator
$LN11@operator:

; 751  :         }
; 752  : 
; 753  :         if (_State == ios_base::goodbit && _Ostr.rdbuf()->sputn(_Val, _Count) != _Count) {

	cmp	DWORD PTR __State$[ebp], 0
	jne	SHORT $LN13@operator
	mov	eax, DWORD PTR __Ostr$[ebp]
	mov	ecx, DWORD PTR [eax]
	mov	edx, DWORD PTR __Ostr$[ebp]
	add	edx, DWORD PTR [ecx+4]
	mov	esi, esp
	mov	ecx, edx
	call	DWORD PTR __imp_?rdbuf@?$basic_ios@DU?$char_traits@D@std@@@std@@QBEPAV?$basic_streambuf@DU?$char_traits@D@std@@@2@XZ
	cmp	esi, esp
	call	__RTC_CheckEsp
	mov	DWORD PTR tv287[ebp], eax
	mov	esi, esp
	mov	eax, DWORD PTR __Count$[ebp+4]
	push	eax
	mov	ecx, DWORD PTR __Count$[ebp]
	push	ecx
	mov	edx, DWORD PTR __Val$[ebp]
	push	edx
	mov	ecx, DWORD PTR tv287[ebp]
	call	DWORD PTR __imp_?sputn@?$basic_streambuf@DU?$char_traits@D@std@@@std@@QAE_JPBD_J@Z
	cmp	esi, esp
	call	__RTC_CheckEsp
	mov	DWORD PTR tv288[ebp], eax
	mov	DWORD PTR tv288[ebp+4], edx
	mov	eax, DWORD PTR tv288[ebp]
	cmp	eax, DWORD PTR __Count$[ebp]
	jne	SHORT $LN27@operator
	mov	ecx, DWORD PTR tv288[ebp+4]
	cmp	ecx, DWORD PTR __Count$[ebp+4]
	je	SHORT $LN13@operator
$LN27@operator:

; 754  :             _State |= ios_base::badbit;

	mov	eax, DWORD PTR __State$[ebp]
	or	eax, 4
	mov	DWORD PTR __State$[ebp], eax
$LN13@operator:

; 755  :         }
; 756  : 
; 757  :         if (_State == ios_base::goodbit) {

	cmp	DWORD PTR __State$[ebp], 0
	jne	$LN14@operator

; 758  :             for (; 0 < _Pad; --_Pad) { // pad on right

	jmp	SHORT $LN7@operator
$LN5@operator:
	mov	eax, DWORD PTR __Pad$[ebp]
	sub	eax, 1
	mov	ecx, DWORD PTR __Pad$[ebp+4]
	sbb	ecx, 0
	mov	DWORD PTR __Pad$[ebp], eax
	mov	DWORD PTR __Pad$[ebp+4], ecx
$LN7@operator:
	cmp	DWORD PTR __Pad$[ebp+4], 0
	jl	$LN14@operator
	jg	SHORT $LN28@operator
	cmp	DWORD PTR __Pad$[ebp], 0
	jbe	$LN14@operator
$LN28@operator:

; 759  :                 if (_Traits::eq_int_type(_Traits::eof(), _Ostr.rdbuf()->sputc(_Ostr.fill()))) {

	mov	eax, DWORD PTR __Ostr$[ebp]
	mov	ecx, DWORD PTR [eax]
	mov	edx, DWORD PTR __Ostr$[ebp]
	add	edx, DWORD PTR [ecx+4]
	mov	esi, esp
	mov	ecx, edx
	call	DWORD PTR __imp_?fill@?$basic_ios@DU?$char_traits@D@std@@@std@@QBEDXZ
	cmp	esi, esp
	call	__RTC_CheckEsp
	mov	BYTE PTR tv289[ebp], al
	mov	eax, DWORD PTR __Ostr$[ebp]
	mov	ecx, DWORD PTR [eax]
	mov	edx, DWORD PTR __Ostr$[ebp]
	add	edx, DWORD PTR [ecx+4]
	mov	esi, esp
	mov	ecx, edx
	call	DWORD PTR __imp_?rdbuf@?$basic_ios@DU?$char_traits@D@std@@@std@@QBEPAV?$basic_streambuf@DU?$char_traits@D@std@@@2@XZ
	cmp	esi, esp
	call	__RTC_CheckEsp
	mov	DWORD PTR tv290[ebp], eax
	mov	esi, esp
	movzx	eax, BYTE PTR tv289[ebp]
	push	eax
	mov	ecx, DWORD PTR tv290[ebp]
	call	DWORD PTR __imp_?sputc@?$basic_streambuf@DU?$char_traits@D@std@@@std@@QAEHD@Z
	cmp	esi, esp
	call	__RTC_CheckEsp
	mov	DWORD PTR tv291[ebp], eax
	mov	ecx, DWORD PTR tv291[ebp]
	mov	DWORD PTR $T4[ebp], ecx
	call	?eof@?$_Narrow_char_traits@DH@std@@SAHXZ ; std::_Narrow_char_traits<char,int>::eof
	mov	DWORD PTR $T3[ebp], eax
	lea	edx, DWORD PTR $T4[ebp]
	push	edx
	lea	eax, DWORD PTR $T3[ebp]
	push	eax
	call	?eq_int_type@?$_Narrow_char_traits@DH@std@@SA_NABH0@Z ; std::_Narrow_char_traits<char,int>::eq_int_type
	add	esp, 8
	movzx	ecx, al
	test	ecx, ecx
	je	SHORT $LN15@operator

; 760  :                     _State |= ios_base::badbit; // insertion failed, quit

	mov	eax, DWORD PTR __State$[ebp]
	or	eax, 4
	mov	DWORD PTR __State$[ebp], eax

; 761  :                     break;

	jmp	SHORT $LN14@operator
$LN15@operator:

; 762  :                 }
; 763  :             }

	jmp	$LN5@operator
$LN14@operator:

; 764  :         }
; 765  : 
; 766  :         _Ostr.width(0);

	mov	esi, esp
	push	0
	push	0
	mov	eax, DWORD PTR __Ostr$[ebp]
	mov	ecx, DWORD PTR [eax]
	mov	edx, DWORD PTR __Ostr$[ebp]
	add	edx, DWORD PTR [ecx+4]
	mov	ecx, edx
	call	DWORD PTR __imp_?width@ios_base@std@@QAE_J_J@Z
	cmp	esi, esp
	call	__RTC_CheckEsp
	jmp	SHORT $LN19@operator
__catch$??$?6U?$char_traits@D@std@@@std@@YAAAV?$basic_ostream@DU?$char_traits@D@std@@@0@AAV10@PBD@Z$0:

; 767  :         _CATCH_IO_(ios_base, _Ostr)

	mov	esi, esp
	push	1
	push	4
	mov	eax, DWORD PTR __Ostr$[ebp]
	mov	ecx, DWORD PTR [eax]
	mov	edx, DWORD PTR __Ostr$[ebp]
	add	edx, DWORD PTR [ecx+4]
	mov	ecx, edx
	call	DWORD PTR __imp_?setstate@?$basic_ios@DU?$char_traits@D@std@@@std@@QAEXH_N@Z
	cmp	esi, esp
	call	__RTC_CheckEsp
	mov	eax, $LN23@operator
	ret	0
$LN19@operator:
	mov	DWORD PTR __$EHRec$[ebp+12], 0
	jmp	SHORT $LN9@operator
$LN23@operator:
	mov	DWORD PTR __$EHRec$[ebp+12], 0
$LN9@operator:

; 768  :     }
; 769  : 
; 770  :     _Ostr.setstate(_State);

	mov	esi, esp
	push	0
	mov	eax, DWORD PTR __State$[ebp]
	push	eax
	mov	ecx, DWORD PTR __Ostr$[ebp]
	mov	edx, DWORD PTR [ecx]
	mov	ecx, DWORD PTR __Ostr$[ebp]
	add	ecx, DWORD PTR [edx+4]
	call	DWORD PTR __imp_?setstate@?$basic_ios@DU?$char_traits@D@std@@@std@@QAEXH_N@Z
	cmp	esi, esp
	call	__RTC_CheckEsp

; 771  :     return _Ostr;

	mov	eax, DWORD PTR __Ostr$[ebp]
	mov	DWORD PTR $T2[ebp], eax
	mov	DWORD PTR __$EHRec$[ebp+12], -1
	lea	ecx, DWORD PTR __Ok$[ebp]
	call	??1sentry@?$basic_ostream@DU?$char_traits@D@std@@@std@@QAE@XZ ; std::basic_ostream<char,std::char_traits<char> >::sentry::~sentry
	mov	eax, DWORD PTR $T2[ebp]

; 772  : }

	push	edx
	mov	ecx, ebp
	push	eax
	lea	edx, DWORD PTR $LN32@operator
	call	@_RTC_CheckStackVars@8
	pop	eax
	pop	edx
	mov	ecx, DWORD PTR __$EHRec$[ebp+4]
	mov	DWORD PTR fs:0, ecx
	pop	ecx
	pop	edi
	pop	esi
	pop	ebx
	mov	ecx, DWORD PTR __$ArrayPad$[ebp]
	xor	ecx, ebp
	call	@__security_check_cookie@4
	add	esp, 356				; 00000164H
	cmp	ebp, esp
	call	__RTC_CheckEsp
	mov	esp, ebp
	pop	ebp
	ret	0
	npad	2
$LN32@operator:
	DD	1
	DD	$LN31@operator
$LN31@operator:
	DD	-76					; ffffffb4H
	DD	8
	DD	$LN29@operator
$LN29@operator:
	DB	95					; 0000005fH
	DB	79					; 0000004fH
	DB	107					; 0000006bH
	DB	0
_TEXT	ENDS
;	COMDAT text$x
text$x	SEGMENT
__unwindfunclet$??$?6U?$char_traits@D@std@@@std@@YAAAV?$basic_ostream@DU?$char_traits@D@std@@@0@AAV10@PBD@Z$2:
	lea	ecx, DWORD PTR __Ok$[ebp]
	jmp	??1sentry@?$basic_ostream@DU?$char_traits@D@std@@@std@@QAE@XZ ; std::basic_ostream<char,std::char_traits<char> >::sentry::~sentry
	int	3
	int	3
	int	3
	int	3
	int	3
__ehhandler$??$?6U?$char_traits@D@std@@@std@@YAAAV?$basic_ostream@DU?$char_traits@D@std@@@0@AAV10@PBD@Z:
	npad	1
	npad	1
	mov	edx, DWORD PTR [esp+8]
	lea	eax, DWORD PTR [edx+12]
	mov	ecx, DWORD PTR [edx-360]
	xor	ecx, eax
	call	@__security_check_cookie@4
	mov	ecx, DWORD PTR [edx-8]
	xor	ecx, eax
	call	@__security_check_cookie@4
	mov	eax, OFFSET __ehfuncinfo$??$?6U?$char_traits@D@std@@@std@@YAAAV?$basic_ostream@DU?$char_traits@D@std@@@0@AAV10@PBD@Z
	jmp	___CxxFrameHandler3
text$x	ENDS
??$?6U?$char_traits@D@std@@@std@@YAAAV?$basic_ostream@DU?$char_traits@D@std@@@0@AAV10@PBD@Z ENDP ; std::operator<<<std::char_traits<char> >
; Function compile flags: /Odtp /RTCsu /ZI
; File C:\Program Files (x86)\Microsoft Visual Studio\2019\Community\VC\Tools\MSVC\14.29.30133\include\ostream
;	COMDAT ??$?6U?$char_traits@D@std@@@std@@YAAAV?$basic_ostream@DU?$char_traits@D@std@@@0@AAV10@D@Z
_TEXT	SEGMENT
tv128 = -356						; size = 8
tv280 = -352						; size = 4
tv275 = -352						; size = 4
tv314 = -348						; size = 8
tv279 = -348						; size = 4
tv277 = -348						; size = 4
tv274 = -348						; size = 4
tv276 = -344						; size = 4
tv65 = -344						; size = 4
tv278 = -341						; size = 1
tv273 = -341						; size = 1
$T2 = -336						; size = 4
$T3 = -324						; size = 4
$T4 = -312						; size = 4
$T5 = -300						; size = 4
$T6 = -288						; size = 4
$T7 = -276						; size = 4
$T8 = -264						; size = 4
__Pad$9 = -60						; size = 8
__Ok$ = -44						; size = 8
__State$ = -28						; size = 4
__$ArrayPad$ = -20					; size = 4
__$EHRec$ = -16						; size = 16
__Ostr$ = 8						; size = 4
__Ch$ = 12						; size = 1
??$?6U?$char_traits@D@std@@@std@@YAAAV?$basic_ostream@DU?$char_traits@D@std@@@0@AAV10@D@Z PROC ; std::operator<<<std::char_traits<char> >, COMDAT

; 776  :     basic_ostream<char, _Traits>& _Ostr, char _Ch) { // insert a char into char stream

	push	ebp
	mov	ebp, esp
	push	-1
	push	__ehhandler$??$?6U?$char_traits@D@std@@@std@@YAAAV?$basic_ostream@DU?$char_traits@D@std@@@0@AAV10@D@Z
	mov	eax, DWORD PTR fs:0
	push	eax
	push	ecx
	sub	esp, 340				; 00000154H
	push	ebx
	push	esi
	push	edi
	lea	edi, DWORD PTR [ebp-164]
	mov	ecx, 37					; 00000025H
	mov	eax, -858993460				; ccccccccH
	rep stosd
	mov	eax, DWORD PTR ___security_cookie
	xor	eax, ebp
	mov	DWORD PTR __$ArrayPad$[ebp], eax
	push	eax
	lea	eax, DWORD PTR __$EHRec$[ebp+4]
	mov	DWORD PTR fs:0, eax
	mov	DWORD PTR __$EHRec$[ebp], esp
	mov	ecx, OFFSET __C12F3EA4_ostream
	call	@__CheckForDebuggerJustMyCode@4

; 777  :     using _Elem = char;
; 778  :     using _Myos = basic_ostream<_Elem, _Traits>;
; 779  : 
; 780  :     ios_base::iostate _State = ios_base::goodbit;

	mov	DWORD PTR __State$[ebp], 0

; 781  :     const typename _Myos::sentry _Ok(_Ostr);

	mov	eax, DWORD PTR __Ostr$[ebp]
	push	eax
	lea	ecx, DWORD PTR __Ok$[ebp]
	call	??0sentry@?$basic_ostream@DU?$char_traits@D@std@@@std@@QAE@AAV12@@Z ; std::basic_ostream<char,std::char_traits<char> >::sentry::sentry
	mov	DWORD PTR __$EHRec$[ebp+12], 0

; 782  : 
; 783  :     if (_Ok) { // state okay, insert

	lea	ecx, DWORD PTR __Ok$[ebp]
	call	??Bsentry@?$basic_ostream@DU?$char_traits@D@std@@@std@@QBE_NXZ ; std::basic_ostream<char,std::char_traits<char> >::sentry::operator bool
	movzx	eax, al
	test	eax, eax
	je	$LN8@operator

; 784  :         streamsize _Pad = _Ostr.width() <= 1 ? 0 : _Ostr.width() - 1;

	mov	eax, DWORD PTR __Ostr$[ebp]
	mov	ecx, DWORD PTR [eax]
	mov	edx, DWORD PTR __Ostr$[ebp]
	add	edx, DWORD PTR [ecx+4]
	mov	esi, esp
	mov	ecx, edx
	call	DWORD PTR __imp_?width@ios_base@std@@QBE_JXZ
	cmp	esi, esp
	call	__RTC_CheckEsp
	mov	DWORD PTR tv314[ebp], eax
	mov	DWORD PTR tv314[ebp+4], edx
	cmp	DWORD PTR tv314[ebp+4], 0
	jg	SHORT $LN15@operator
	jl	SHORT $LN22@operator
	cmp	DWORD PTR tv314[ebp], 1
	ja	SHORT $LN15@operator
$LN22@operator:
	xorps	xmm0, xmm0
	movlpd	QWORD PTR tv128[ebp], xmm0
	jmp	SHORT $LN16@operator
$LN15@operator:
	mov	eax, DWORD PTR __Ostr$[ebp]
	mov	ecx, DWORD PTR [eax]
	mov	edx, DWORD PTR __Ostr$[ebp]
	add	edx, DWORD PTR [ecx+4]
	mov	esi, esp
	mov	ecx, edx
	call	DWORD PTR __imp_?width@ios_base@std@@QBE_JXZ
	cmp	esi, esp
	call	__RTC_CheckEsp
	sub	eax, 1
	sbb	edx, 0
	mov	DWORD PTR tv128[ebp], eax
	mov	DWORD PTR tv128[ebp+4], edx
$LN16@operator:
	mov	eax, DWORD PTR tv128[ebp]
	mov	ecx, DWORD PTR tv128[ebp+4]
	mov	DWORD PTR __Pad$9[ebp], eax
	mov	DWORD PTR __Pad$9[ebp+4], ecx

; 785  : 
; 786  :         _TRY_IO_BEGIN

	mov	BYTE PTR __$EHRec$[ebp+12], 1

; 787  :         if ((_Ostr.flags() & ios_base::adjustfield) != ios_base::left) {

	mov	eax, DWORD PTR __Ostr$[ebp]
	mov	ecx, DWORD PTR [eax]
	mov	edx, DWORD PTR __Ostr$[ebp]
	add	edx, DWORD PTR [ecx+4]
	mov	esi, esp
	mov	ecx, edx
	call	DWORD PTR __imp_?flags@ios_base@std@@QBEHXZ
	cmp	esi, esp
	call	__RTC_CheckEsp
	mov	DWORD PTR tv65[ebp], eax
	mov	eax, DWORD PTR tv65[ebp]
	and	eax, 448				; 000001c0H
	cmp	eax, 64					; 00000040H
	je	$LN10@operator

; 788  :             for (; _State == ios_base::goodbit && 0 < _Pad; --_Pad) { // pad on left

	jmp	SHORT $LN4@operator
$LN2@operator:
	mov	eax, DWORD PTR __Pad$9[ebp]
	sub	eax, 1
	mov	ecx, DWORD PTR __Pad$9[ebp+4]
	sbb	ecx, 0
	mov	DWORD PTR __Pad$9[ebp], eax
	mov	DWORD PTR __Pad$9[ebp+4], ecx
$LN4@operator:
	cmp	DWORD PTR __State$[ebp], 0
	jne	$LN10@operator
	cmp	DWORD PTR __Pad$9[ebp+4], 0
	jl	$LN10@operator
	jg	SHORT $LN23@operator
	cmp	DWORD PTR __Pad$9[ebp], 0
	jbe	$LN10@operator
$LN23@operator:

; 789  :                 if (_Traits::eq_int_type(_Traits::eof(), _Ostr.rdbuf()->sputc(_Ostr.fill()))) {

	mov	eax, DWORD PTR __Ostr$[ebp]
	mov	ecx, DWORD PTR [eax]
	mov	edx, DWORD PTR __Ostr$[ebp]
	add	edx, DWORD PTR [ecx+4]
	mov	esi, esp
	mov	ecx, edx
	call	DWORD PTR __imp_?fill@?$basic_ios@DU?$char_traits@D@std@@@std@@QBEDXZ
	cmp	esi, esp
	call	__RTC_CheckEsp
	mov	BYTE PTR tv273[ebp], al
	mov	eax, DWORD PTR __Ostr$[ebp]
	mov	ecx, DWORD PTR [eax]
	mov	edx, DWORD PTR __Ostr$[ebp]
	add	edx, DWORD PTR [ecx+4]
	mov	esi, esp
	mov	ecx, edx
	call	DWORD PTR __imp_?rdbuf@?$basic_ios@DU?$char_traits@D@std@@@std@@QBEPAV?$basic_streambuf@DU?$char_traits@D@std@@@2@XZ
	cmp	esi, esp
	call	__RTC_CheckEsp
	mov	DWORD PTR tv274[ebp], eax
	mov	esi, esp
	movzx	eax, BYTE PTR tv273[ebp]
	push	eax
	mov	ecx, DWORD PTR tv274[ebp]
	call	DWORD PTR __imp_?sputc@?$basic_streambuf@DU?$char_traits@D@std@@@std@@QAEHD@Z
	cmp	esi, esp
	call	__RTC_CheckEsp
	mov	DWORD PTR tv275[ebp], eax
	mov	ecx, DWORD PTR tv275[ebp]
	mov	DWORD PTR $T8[ebp], ecx
	call	?eof@?$_Narrow_char_traits@DH@std@@SAHXZ ; std::_Narrow_char_traits<char,int>::eof
	mov	DWORD PTR $T7[ebp], eax
	lea	edx, DWORD PTR $T8[ebp]
	push	edx
	lea	eax, DWORD PTR $T7[ebp]
	push	eax
	call	?eq_int_type@?$_Narrow_char_traits@DH@std@@SA_NABH0@Z ; std::_Narrow_char_traits<char,int>::eq_int_type
	add	esp, 8
	movzx	ecx, al
	test	ecx, ecx
	je	SHORT $LN11@operator

; 790  :                     _State |= ios_base::badbit;

	mov	eax, DWORD PTR __State$[ebp]
	or	eax, 4
	mov	DWORD PTR __State$[ebp], eax
$LN11@operator:

; 791  :                 }
; 792  :             }

	jmp	$LN2@operator
$LN10@operator:

; 793  :         }
; 794  : 
; 795  :         if (_State == ios_base::goodbit && _Traits::eq_int_type(_Traits::eof(), _Ostr.rdbuf()->sputc(_Ch))) {

	cmp	DWORD PTR __State$[ebp], 0
	jne	SHORT $LN12@operator
	mov	eax, DWORD PTR __Ostr$[ebp]
	mov	ecx, DWORD PTR [eax]
	mov	edx, DWORD PTR __Ostr$[ebp]
	add	edx, DWORD PTR [ecx+4]
	mov	esi, esp
	mov	ecx, edx
	call	DWORD PTR __imp_?rdbuf@?$basic_ios@DU?$char_traits@D@std@@@std@@QBEPAV?$basic_streambuf@DU?$char_traits@D@std@@@2@XZ
	cmp	esi, esp
	call	__RTC_CheckEsp
	mov	DWORD PTR tv276[ebp], eax
	mov	esi, esp
	movzx	eax, BYTE PTR __Ch$[ebp]
	push	eax
	mov	ecx, DWORD PTR tv276[ebp]
	call	DWORD PTR __imp_?sputc@?$basic_streambuf@DU?$char_traits@D@std@@@std@@QAEHD@Z
	cmp	esi, esp
	call	__RTC_CheckEsp
	mov	DWORD PTR tv277[ebp], eax
	mov	ecx, DWORD PTR tv277[ebp]
	mov	DWORD PTR $T6[ebp], ecx
	call	?eof@?$_Narrow_char_traits@DH@std@@SAHXZ ; std::_Narrow_char_traits<char,int>::eof
	mov	DWORD PTR $T5[ebp], eax
	lea	edx, DWORD PTR $T6[ebp]
	push	edx
	lea	eax, DWORD PTR $T5[ebp]
	push	eax
	call	?eq_int_type@?$_Narrow_char_traits@DH@std@@SA_NABH0@Z ; std::_Narrow_char_traits<char,int>::eq_int_type
	add	esp, 8
	movzx	ecx, al
	test	ecx, ecx
	je	SHORT $LN12@operator

; 796  :             _State |= ios_base::badbit;

	mov	eax, DWORD PTR __State$[ebp]
	or	eax, 4
	mov	DWORD PTR __State$[ebp], eax
$LN12@operator:

; 797  :         }
; 798  : 
; 799  :         for (; _State == ios_base::goodbit && 0 < _Pad; --_Pad) { // pad on right

	jmp	SHORT $LN7@operator
$LN5@operator:
	mov	eax, DWORD PTR __Pad$9[ebp]
	sub	eax, 1
	mov	ecx, DWORD PTR __Pad$9[ebp+4]
	sbb	ecx, 0
	mov	DWORD PTR __Pad$9[ebp], eax
	mov	DWORD PTR __Pad$9[ebp+4], ecx
$LN7@operator:
	cmp	DWORD PTR __State$[ebp], 0
	jne	$LN6@operator
	cmp	DWORD PTR __Pad$9[ebp+4], 0
	jl	$LN6@operator
	jg	SHORT $LN24@operator
	cmp	DWORD PTR __Pad$9[ebp], 0
	jbe	$LN6@operator
$LN24@operator:

; 800  :             if (_Traits::eq_int_type(_Traits::eof(), _Ostr.rdbuf()->sputc(_Ostr.fill()))) {

	mov	eax, DWORD PTR __Ostr$[ebp]
	mov	ecx, DWORD PTR [eax]
	mov	edx, DWORD PTR __Ostr$[ebp]
	add	edx, DWORD PTR [ecx+4]
	mov	esi, esp
	mov	ecx, edx
	call	DWORD PTR __imp_?fill@?$basic_ios@DU?$char_traits@D@std@@@std@@QBEDXZ
	cmp	esi, esp
	call	__RTC_CheckEsp
	mov	BYTE PTR tv278[ebp], al
	mov	eax, DWORD PTR __Ostr$[ebp]
	mov	ecx, DWORD PTR [eax]
	mov	edx, DWORD PTR __Ostr$[ebp]
	add	edx, DWORD PTR [ecx+4]
	mov	esi, esp
	mov	ecx, edx
	call	DWORD PTR __imp_?rdbuf@?$basic_ios@DU?$char_traits@D@std@@@std@@QBEPAV?$basic_streambuf@DU?$char_traits@D@std@@@2@XZ
	cmp	esi, esp
	call	__RTC_CheckEsp
	mov	DWORD PTR tv279[ebp], eax
	mov	esi, esp
	movzx	eax, BYTE PTR tv278[ebp]
	push	eax
	mov	ecx, DWORD PTR tv279[ebp]
	call	DWORD PTR __imp_?sputc@?$basic_streambuf@DU?$char_traits@D@std@@@std@@QAEHD@Z
	cmp	esi, esp
	call	__RTC_CheckEsp
	mov	DWORD PTR tv280[ebp], eax
	mov	ecx, DWORD PTR tv280[ebp]
	mov	DWORD PTR $T4[ebp], ecx
	call	?eof@?$_Narrow_char_traits@DH@std@@SAHXZ ; std::_Narrow_char_traits<char,int>::eof
	mov	DWORD PTR $T3[ebp], eax
	lea	edx, DWORD PTR $T4[ebp]
	push	edx
	lea	eax, DWORD PTR $T3[ebp]
	push	eax
	call	?eq_int_type@?$_Narrow_char_traits@DH@std@@SA_NABH0@Z ; std::_Narrow_char_traits<char,int>::eq_int_type
	add	esp, 8
	movzx	ecx, al
	test	ecx, ecx
	je	SHORT $LN13@operator

; 801  :                 _State |= ios_base::badbit;

	mov	eax, DWORD PTR __State$[ebp]
	or	eax, 4
	mov	DWORD PTR __State$[ebp], eax
$LN13@operator:

; 802  :             }
; 803  :         }

	jmp	$LN5@operator
$LN6@operator:
	jmp	SHORT $LN17@operator
__catch$??$?6U?$char_traits@D@std@@@std@@YAAAV?$basic_ostream@DU?$char_traits@D@std@@@0@AAV10@D@Z$0:

; 804  :         _CATCH_IO_(ios_base, _Ostr)

	mov	esi, esp
	push	1
	push	4
	mov	eax, DWORD PTR __Ostr$[ebp]
	mov	ecx, DWORD PTR [eax]
	mov	edx, DWORD PTR __Ostr$[ebp]
	add	edx, DWORD PTR [ecx+4]
	mov	ecx, edx
	call	DWORD PTR __imp_?setstate@?$basic_ios@DU?$char_traits@D@std@@@std@@QAEXH_N@Z
	cmp	esi, esp
	call	__RTC_CheckEsp
	mov	eax, $LN21@operator
	ret	0
$LN17@operator:
	mov	DWORD PTR __$EHRec$[ebp+12], 0
	jmp	SHORT $LN8@operator
$LN21@operator:
	mov	DWORD PTR __$EHRec$[ebp+12], 0
$LN8@operator:

; 805  :     }
; 806  : 
; 807  :     _Ostr.width(0);

	mov	esi, esp
	push	0
	push	0
	mov	eax, DWORD PTR __Ostr$[ebp]
	mov	ecx, DWORD PTR [eax]
	mov	edx, DWORD PTR __Ostr$[ebp]
	add	edx, DWORD PTR [ecx+4]
	mov	ecx, edx
	call	DWORD PTR __imp_?width@ios_base@std@@QAE_J_J@Z
	cmp	esi, esp
	call	__RTC_CheckEsp

; 808  :     _Ostr.setstate(_State);

	mov	esi, esp
	push	0
	mov	eax, DWORD PTR __State$[ebp]
	push	eax
	mov	ecx, DWORD PTR __Ostr$[ebp]
	mov	edx, DWORD PTR [ecx]
	mov	ecx, DWORD PTR __Ostr$[ebp]
	add	ecx, DWORD PTR [edx+4]
	call	DWORD PTR __imp_?setstate@?$basic_ios@DU?$char_traits@D@std@@@std@@QAEXH_N@Z
	cmp	esi, esp
	call	__RTC_CheckEsp

; 809  :     return _Ostr;

	mov	eax, DWORD PTR __Ostr$[ebp]
	mov	DWORD PTR $T2[ebp], eax
	mov	DWORD PTR __$EHRec$[ebp+12], -1
	lea	ecx, DWORD PTR __Ok$[ebp]
	call	??1sentry@?$basic_ostream@DU?$char_traits@D@std@@@std@@QAE@XZ ; std::basic_ostream<char,std::char_traits<char> >::sentry::~sentry
	mov	eax, DWORD PTR $T2[ebp]

; 810  : }

	push	edx
	mov	ecx, ebp
	push	eax
	lea	edx, DWORD PTR $LN28@operator
	call	@_RTC_CheckStackVars@8
	pop	eax
	pop	edx
	mov	ecx, DWORD PTR __$EHRec$[ebp+4]
	mov	DWORD PTR fs:0, ecx
	pop	ecx
	pop	edi
	pop	esi
	pop	ebx
	mov	ecx, DWORD PTR __$ArrayPad$[ebp]
	xor	ecx, ebp
	call	@__security_check_cookie@4
	add	esp, 356				; 00000164H
	cmp	ebp, esp
	call	__RTC_CheckEsp
	mov	esp, ebp
	pop	ebp
	ret	0
	npad	3
$LN28@operator:
	DD	1
	DD	$LN27@operator
$LN27@operator:
	DD	-44					; ffffffd4H
	DD	8
	DD	$LN25@operator
$LN25@operator:
	DB	95					; 0000005fH
	DB	79					; 0000004fH
	DB	107					; 0000006bH
	DB	0
_TEXT	ENDS
;	COMDAT text$x
text$x	SEGMENT
__unwindfunclet$??$?6U?$char_traits@D@std@@@std@@YAAAV?$basic_ostream@DU?$char_traits@D@std@@@0@AAV10@D@Z$2:
	lea	ecx, DWORD PTR __Ok$[ebp]
	jmp	??1sentry@?$basic_ostream@DU?$char_traits@D@std@@@std@@QAE@XZ ; std::basic_ostream<char,std::char_traits<char> >::sentry::~sentry
	int	3
	int	3
	int	3
	int	3
	int	3
__ehhandler$??$?6U?$char_traits@D@std@@@std@@YAAAV?$basic_ostream@DU?$char_traits@D@std@@@0@AAV10@D@Z:
	npad	1
	npad	1
	mov	edx, DWORD PTR [esp+8]
	lea	eax, DWORD PTR [edx+12]
	mov	ecx, DWORD PTR [edx-360]
	xor	ecx, eax
	call	@__security_check_cookie@4
	mov	ecx, DWORD PTR [edx-8]
	xor	ecx, eax
	call	@__security_check_cookie@4
	mov	eax, OFFSET __ehfuncinfo$??$?6U?$char_traits@D@std@@@std@@YAAAV?$basic_ostream@DU?$char_traits@D@std@@@0@AAV10@D@Z
	jmp	___CxxFrameHandler3
text$x	ENDS
??$?6U?$char_traits@D@std@@@std@@YAAAV?$basic_ostream@DU?$char_traits@D@std@@@0@AAV10@D@Z ENDP ; std::operator<<<std::char_traits<char> >
; Function compile flags: /Odtp /RTCsu /ZI
; File C:\Program Files (x86)\Microsoft Visual Studio\2019\Community\VC\Tools\MSVC\14.29.30133\include\ostream
;	COMDAT ??$endl@_WU?$char_traits@_W@std@@@std@@YAAAV?$basic_ostream@_WU?$char_traits@_W@std@@@0@AAV10@@Z
_TEXT	SEGMENT
__Ostr$ = 8						; size = 4
??$endl@_WU?$char_traits@_W@std@@@std@@YAAAV?$basic_ostream@_WU?$char_traits@_W@std@@@0@AAV10@@Z PROC ; std::endl<wchar_t,std::char_traits<wchar_t> >, COMDAT

; 974  :     basic_ostream<_Elem, _Traits>& _Ostr) { // insert newline and flush stream

	push	ebp
	mov	ebp, esp
	sub	esp, 192				; 000000c0H
	push	ebx
	push	esi
	push	edi
	mov	edi, ebp
	xor	ecx, ecx
	mov	eax, -858993460				; ccccccccH
	rep stosd
	mov	ecx, OFFSET __C12F3EA4_ostream
	call	@__CheckForDebuggerJustMyCode@4

; 975  :     _Ostr.put(_Ostr.widen('\n'));

	mov	esi, esp
	push	10					; 0000000aH
	mov	eax, DWORD PTR __Ostr$[ebp]
	mov	ecx, DWORD PTR [eax]
	mov	edx, DWORD PTR __Ostr$[ebp]
	add	edx, DWORD PTR [ecx+4]
	mov	ecx, edx
	call	DWORD PTR __imp_?widen@?$basic_ios@_WU?$char_traits@_W@std@@@std@@QBE_WD@Z
	cmp	esi, esp
	call	__RTC_CheckEsp
	mov	esi, esp
	movzx	eax, ax
	push	eax
	mov	ecx, DWORD PTR __Ostr$[ebp]
	call	DWORD PTR __imp_?put@?$basic_ostream@_WU?$char_traits@_W@std@@@std@@QAEAAV12@_W@Z
	cmp	esi, esp
	call	__RTC_CheckEsp

; 976  :     _Ostr.flush();

	mov	esi, esp
	mov	ecx, DWORD PTR __Ostr$[ebp]
	call	DWORD PTR __imp_?flush@?$basic_ostream@_WU?$char_traits@_W@std@@@std@@QAEAAV12@XZ
	cmp	esi, esp
	call	__RTC_CheckEsp

; 977  :     return _Ostr;

	mov	eax, DWORD PTR __Ostr$[ebp]

; 978  : }

	pop	edi
	pop	esi
	pop	ebx
	add	esp, 192				; 000000c0H
	cmp	ebp, esp
	call	__RTC_CheckEsp
	mov	esp, ebp
	pop	ebp
	ret	0
??$endl@_WU?$char_traits@_W@std@@@std@@YAAAV?$basic_ostream@_WU?$char_traits@_W@std@@@0@AAV10@@Z ENDP ; std::endl<wchar_t,std::char_traits<wchar_t> >
_TEXT	ENDS
; Function compile flags: /Odtp /RTCsu /ZI
; File C:\Program Files (x86)\Microsoft Visual Studio\2019\Community\VC\Tools\MSVC\14.29.30133\include\xstring
;	COMDAT ??$?6_WU?$char_traits@_W@std@@V?$allocator@_W@1@@std@@YAAAV?$basic_ostream@_WU?$char_traits@_W@std@@@0@AAV10@ABV?$basic_string@_WU?$char_traits@_W@std@@V?$allocator@_W@2@@0@@Z
_TEXT	SEGMENT
__Ostr$ = 8						; size = 4
__Str$ = 12						; size = 4
??$?6_WU?$char_traits@_W@std@@V?$allocator@_W@1@@std@@YAAAV?$basic_ostream@_WU?$char_traits@_W@std@@@0@AAV10@ABV?$basic_string@_WU?$char_traits@_W@std@@V?$allocator@_W@2@@0@@Z PROC ; std::operator<<<wchar_t,std::char_traits<wchar_t>,std::allocator<wchar_t> >, COMDAT

; 4946 :     basic_ostream<_Elem, _Traits>& _Ostr, const basic_string<_Elem, _Traits, _Alloc>& _Str) {

	push	ebp
	mov	ebp, esp
	sub	esp, 192				; 000000c0H
	push	ebx
	push	esi
	push	edi
	mov	edi, ebp
	xor	ecx, ecx
	mov	eax, -858993460				; ccccccccH
	rep stosd
	mov	ecx, OFFSET __0D019051_xstring
	call	@__CheckForDebuggerJustMyCode@4

; 4947 :     return _Insert_string(_Ostr, _Str.data(), _Str.size());

	mov	ecx, DWORD PTR __Str$[ebp]
	call	?size@?$basic_string@_WU?$char_traits@_W@std@@V?$allocator@_W@2@@std@@QBEIXZ ; std::basic_string<wchar_t,std::char_traits<wchar_t>,std::allocator<wchar_t> >::size
	push	eax
	mov	ecx, DWORD PTR __Str$[ebp]
	call	?data@?$basic_string@_WU?$char_traits@_W@std@@V?$allocator@_W@2@@std@@QBEPB_WXZ ; std::basic_string<wchar_t,std::char_traits<wchar_t>,std::allocator<wchar_t> >::data
	push	eax
	mov	eax, DWORD PTR __Ostr$[ebp]
	push	eax
	call	??$_Insert_string@_WU?$char_traits@_W@std@@I@std@@YAAAV?$basic_ostream@_WU?$char_traits@_W@std@@@0@AAV10@QB_WI@Z ; std::_Insert_string<wchar_t,std::char_traits<wchar_t>,unsigned int>
	add	esp, 12					; 0000000cH

; 4948 : }

	pop	edi
	pop	esi
	pop	ebx
	add	esp, 192				; 000000c0H
	cmp	ebp, esp
	call	__RTC_CheckEsp
	mov	esp, ebp
	pop	ebp
	ret	0
??$?6_WU?$char_traits@_W@std@@V?$allocator@_W@1@@std@@YAAAV?$basic_ostream@_WU?$char_traits@_W@std@@@0@AAV10@ABV?$basic_string@_WU?$char_traits@_W@std@@V?$allocator@_W@2@@0@@Z ENDP ; std::operator<<<wchar_t,std::char_traits<wchar_t>,std::allocator<wchar_t> >
_TEXT	ENDS
; Function compile flags: /Odtp /RTCsu /ZI
; File C:\Program Files (x86)\Microsoft Visual Studio\2019\Community\VC\Tools\MSVC\14.29.30133\include\ostream
;	COMDAT ??$endl@DU?$char_traits@D@std@@@std@@YAAAV?$basic_ostream@DU?$char_traits@D@std@@@0@AAV10@@Z
_TEXT	SEGMENT
__Ostr$ = 8						; size = 4
??$endl@DU?$char_traits@D@std@@@std@@YAAAV?$basic_ostream@DU?$char_traits@D@std@@@0@AAV10@@Z PROC ; std::endl<char,std::char_traits<char> >, COMDAT

; 974  :     basic_ostream<_Elem, _Traits>& _Ostr) { // insert newline and flush stream

	push	ebp
	mov	ebp, esp
	sub	esp, 192				; 000000c0H
	push	ebx
	push	esi
	push	edi
	mov	edi, ebp
	xor	ecx, ecx
	mov	eax, -858993460				; ccccccccH
	rep stosd
	mov	ecx, OFFSET __C12F3EA4_ostream
	call	@__CheckForDebuggerJustMyCode@4

; 975  :     _Ostr.put(_Ostr.widen('\n'));

	mov	esi, esp
	push	10					; 0000000aH
	mov	eax, DWORD PTR __Ostr$[ebp]
	mov	ecx, DWORD PTR [eax]
	mov	edx, DWORD PTR __Ostr$[ebp]
	add	edx, DWORD PTR [ecx+4]
	mov	ecx, edx
	call	DWORD PTR __imp_?widen@?$basic_ios@DU?$char_traits@D@std@@@std@@QBEDD@Z
	cmp	esi, esp
	call	__RTC_CheckEsp
	mov	esi, esp
	movzx	eax, al
	push	eax
	mov	ecx, DWORD PTR __Ostr$[ebp]
	call	DWORD PTR __imp_?put@?$basic_ostream@DU?$char_traits@D@std@@@std@@QAEAAV12@D@Z
	cmp	esi, esp
	call	__RTC_CheckEsp

; 976  :     _Ostr.flush();

	mov	esi, esp
	mov	ecx, DWORD PTR __Ostr$[ebp]
	call	DWORD PTR __imp_?flush@?$basic_ostream@DU?$char_traits@D@std@@@std@@QAEAAV12@XZ
	cmp	esi, esp
	call	__RTC_CheckEsp

; 977  :     return _Ostr;

	mov	eax, DWORD PTR __Ostr$[ebp]

; 978  : }

	pop	edi
	pop	esi
	pop	ebx
	add	esp, 192				; 000000c0H
	cmp	ebp, esp
	call	__RTC_CheckEsp
	mov	esp, ebp
	pop	ebp
	ret	0
??$endl@DU?$char_traits@D@std@@@std@@YAAAV?$basic_ostream@DU?$char_traits@D@std@@@0@AAV10@@Z ENDP ; std::endl<char,std::char_traits<char> >
_TEXT	ENDS
; Function compile flags: /Odtp /RTCsu /ZI
; File C:\Program Files (x86)\Microsoft Visual Studio\2019\Community\VC\Tools\MSVC\14.29.30133\include\xstring
;	COMDAT ??$?6DU?$char_traits@D@std@@V?$allocator@D@1@@std@@YAAAV?$basic_ostream@DU?$char_traits@D@std@@@0@AAV10@ABV?$basic_string@DU?$char_traits@D@std@@V?$allocator@D@2@@0@@Z
_TEXT	SEGMENT
__Ostr$ = 8						; size = 4
__Str$ = 12						; size = 4
??$?6DU?$char_traits@D@std@@V?$allocator@D@1@@std@@YAAAV?$basic_ostream@DU?$char_traits@D@std@@@0@AAV10@ABV?$basic_string@DU?$char_traits@D@std@@V?$allocator@D@2@@0@@Z PROC ; std::operator<<<char,std::char_traits<char>,std::allocator<char> >, COMDAT

; 4946 :     basic_ostream<_Elem, _Traits>& _Ostr, const basic_string<_Elem, _Traits, _Alloc>& _Str) {

	push	ebp
	mov	ebp, esp
	sub	esp, 192				; 000000c0H
	push	ebx
	push	esi
	push	edi
	mov	edi, ebp
	xor	ecx, ecx
	mov	eax, -858993460				; ccccccccH
	rep stosd
	mov	ecx, OFFSET __0D019051_xstring
	call	@__CheckForDebuggerJustMyCode@4

; 4947 :     return _Insert_string(_Ostr, _Str.data(), _Str.size());

	mov	ecx, DWORD PTR __Str$[ebp]
	call	?size@?$basic_string@DU?$char_traits@D@std@@V?$allocator@D@2@@std@@QBEIXZ ; std::basic_string<char,std::char_traits<char>,std::allocator<char> >::size
	push	eax
	mov	ecx, DWORD PTR __Str$[ebp]
	call	?data@?$basic_string@DU?$char_traits@D@std@@V?$allocator@D@2@@std@@QBEPBDXZ ; std::basic_string<char,std::char_traits<char>,std::allocator<char> >::data
	push	eax
	mov	eax, DWORD PTR __Ostr$[ebp]
	push	eax
	call	??$_Insert_string@DU?$char_traits@D@std@@I@std@@YAAAV?$basic_ostream@DU?$char_traits@D@std@@@0@AAV10@QBDI@Z ; std::_Insert_string<char,std::char_traits<char>,unsigned int>
	add	esp, 12					; 0000000cH

; 4948 : }

	pop	edi
	pop	esi
	pop	ebx
	add	esp, 192				; 000000c0H
	cmp	ebp, esp
	call	__RTC_CheckEsp
	mov	esp, ebp
	pop	ebp
	ret	0
??$?6DU?$char_traits@D@std@@V?$allocator@D@1@@std@@YAAAV?$basic_ostream@DU?$char_traits@D@std@@@0@AAV10@ABV?$basic_string@DU?$char_traits@D@std@@V?$allocator@D@2@@0@@Z ENDP ; std::operator<<<char,std::char_traits<char>,std::allocator<char> >
_TEXT	ENDS
; Function compile flags: /Odtp /RTCsu /ZI
; File C:\Program Files (x86)\Microsoft Visual Studio\2019\Community\VC\Tools\MSVC\14.29.30133\include\xstring
;	COMDAT ??$?H_UU?$char_traits@_U@std@@V?$allocator@_U@1@@std@@YA?AV?$basic_string@_UU?$char_traits@_U@std@@V?$allocator@_U@2@@0@$$QAV10@QB_U@Z
_TEXT	SEGMENT
$T1 = -200						; size = 4
___$ReturnUdt$ = 8					; size = 4
__Left$ = 12						; size = 4
__Right$ = 16						; size = 4
??$?H_UU?$char_traits@_U@std@@V?$allocator@_U@1@@std@@YA?AV?$basic_string@_UU?$char_traits@_U@std@@V?$allocator@_U@2@@0@$$QAV10@QB_U@Z PROC ; std::operator+<char32_t,std::char_traits<char32_t>,std::allocator<char32_t> >, COMDAT

; 4749 :     basic_string<_Elem, _Traits, _Alloc>&& _Left, _In_z_ const _Elem* const _Right) {

	push	ebp
	mov	ebp, esp
	sub	esp, 204				; 000000ccH
	push	ebx
	push	esi
	push	edi
	lea	edi, DWORD PTR [ebp-12]
	mov	ecx, 3
	mov	eax, -858993460				; ccccccccH
	rep stosd
	mov	DWORD PTR $T1[ebp], 0
	mov	ecx, OFFSET __0D019051_xstring
	call	@__CheckForDebuggerJustMyCode@4

; 4750 :     return _STD move(_Left.append(_Right));

	mov	eax, DWORD PTR __Right$[ebp]
	push	eax
	mov	ecx, DWORD PTR __Left$[ebp]
	call	?append@?$basic_string@_UU?$char_traits@_U@std@@V?$allocator@_U@2@@std@@QAEAAV12@QB_U@Z ; std::basic_string<char32_t,std::char_traits<char32_t>,std::allocator<char32_t> >::append
	push	eax
	call	??$move@AAV?$basic_string@_UU?$char_traits@_U@std@@V?$allocator@_U@2@@std@@@std@@YA$$QAV?$basic_string@_UU?$char_traits@_U@std@@V?$allocator@_U@2@@0@AAV10@@Z ; std::move<std::basic_string<char32_t,std::char_traits<char32_t>,std::allocator<char32_t> > &>
	add	esp, 4
	push	eax
	mov	ecx, DWORD PTR ___$ReturnUdt$[ebp]
	call	??0?$basic_string@_UU?$char_traits@_U@std@@V?$allocator@_U@2@@std@@QAE@$$QAV01@@Z ; std::basic_string<char32_t,std::char_traits<char32_t>,std::allocator<char32_t> >::basic_string<char32_t,std::char_traits<char32_t>,std::allocator<char32_t> >
	mov	ecx, DWORD PTR $T1[ebp]
	or	ecx, 1
	mov	DWORD PTR $T1[ebp], ecx
	mov	eax, DWORD PTR ___$ReturnUdt$[ebp]

; 4751 : }

	pop	edi
	pop	esi
	pop	ebx
	add	esp, 204				; 000000ccH
	cmp	ebp, esp
	call	__RTC_CheckEsp
	mov	esp, ebp
	pop	ebp
	ret	0
??$?H_UU?$char_traits@_U@std@@V?$allocator@_U@1@@std@@YA?AV?$basic_string@_UU?$char_traits@_U@std@@V?$allocator@_U@2@@0@$$QAV10@QB_U@Z ENDP ; std::operator+<char32_t,std::char_traits<char32_t>,std::allocator<char32_t> >
_TEXT	ENDS
; Function compile flags: /Odtp /RTCsu /ZI
; File C:\Program Files (x86)\Microsoft Visual Studio\2019\Community\VC\Tools\MSVC\14.29.30133\include\xstring
;	COMDAT ??$?H_SU?$char_traits@_S@std@@V?$allocator@_S@1@@std@@YA?AV?$basic_string@_SU?$char_traits@_S@std@@V?$allocator@_S@2@@0@$$QAV10@QB_S@Z
_TEXT	SEGMENT
$T1 = -200						; size = 4
___$ReturnUdt$ = 8					; size = 4
__Left$ = 12						; size = 4
__Right$ = 16						; size = 4
??$?H_SU?$char_traits@_S@std@@V?$allocator@_S@1@@std@@YA?AV?$basic_string@_SU?$char_traits@_S@std@@V?$allocator@_S@2@@0@$$QAV10@QB_S@Z PROC ; std::operator+<char16_t,std::char_traits<char16_t>,std::allocator<char16_t> >, COMDAT

; 4749 :     basic_string<_Elem, _Traits, _Alloc>&& _Left, _In_z_ const _Elem* const _Right) {

	push	ebp
	mov	ebp, esp
	sub	esp, 204				; 000000ccH
	push	ebx
	push	esi
	push	edi
	lea	edi, DWORD PTR [ebp-12]
	mov	ecx, 3
	mov	eax, -858993460				; ccccccccH
	rep stosd
	mov	DWORD PTR $T1[ebp], 0
	mov	ecx, OFFSET __0D019051_xstring
	call	@__CheckForDebuggerJustMyCode@4

; 4750 :     return _STD move(_Left.append(_Right));

	mov	eax, DWORD PTR __Right$[ebp]
	push	eax
	mov	ecx, DWORD PTR __Left$[ebp]
	call	?append@?$basic_string@_SU?$char_traits@_S@std@@V?$allocator@_S@2@@std@@QAEAAV12@QB_S@Z ; std::basic_string<char16_t,std::char_traits<char16_t>,std::allocator<char16_t> >::append
	push	eax
	call	??$move@AAV?$basic_string@_SU?$char_traits@_S@std@@V?$allocator@_S@2@@std@@@std@@YA$$QAV?$basic_string@_SU?$char_traits@_S@std@@V?$allocator@_S@2@@0@AAV10@@Z ; std::move<std::basic_string<char16_t,std::char_traits<char16_t>,std::allocator<char16_t> > &>
	add	esp, 4
	push	eax
	mov	ecx, DWORD PTR ___$ReturnUdt$[ebp]
	call	??0?$basic_string@_SU?$char_traits@_S@std@@V?$allocator@_S@2@@std@@QAE@$$QAV01@@Z ; std::basic_string<char16_t,std::char_traits<char16_t>,std::allocator<char16_t> >::basic_string<char16_t,std::char_traits<char16_t>,std::allocator<char16_t> >
	mov	ecx, DWORD PTR $T1[ebp]
	or	ecx, 1
	mov	DWORD PTR $T1[ebp], ecx
	mov	eax, DWORD PTR ___$ReturnUdt$[ebp]

; 4751 : }

	pop	edi
	pop	esi
	pop	ebx
	add	esp, 204				; 000000ccH
	cmp	ebp, esp
	call	__RTC_CheckEsp
	mov	esp, ebp
	pop	ebp
	ret	0
??$?H_SU?$char_traits@_S@std@@V?$allocator@_S@1@@std@@YA?AV?$basic_string@_SU?$char_traits@_S@std@@V?$allocator@_S@2@@0@$$QAV10@QB_S@Z ENDP ; std::operator+<char16_t,std::char_traits<char16_t>,std::allocator<char16_t> >
_TEXT	ENDS
; Function compile flags: /Odtp /RTCsu /ZI
; File C:\Program Files (x86)\Microsoft Visual Studio\2019\Community\VC\Tools\MSVC\14.29.30133\include\xstring
;	COMDAT ??$?H_WU?$char_traits@_W@std@@V?$allocator@_W@1@@std@@YA?AV?$basic_string@_WU?$char_traits@_W@std@@V?$allocator@_W@2@@0@$$QAV10@QB_W@Z
_TEXT	SEGMENT
$T1 = -200						; size = 4
___$ReturnUdt$ = 8					; size = 4
__Left$ = 12						; size = 4
__Right$ = 16						; size = 4
??$?H_WU?$char_traits@_W@std@@V?$allocator@_W@1@@std@@YA?AV?$basic_string@_WU?$char_traits@_W@std@@V?$allocator@_W@2@@0@$$QAV10@QB_W@Z PROC ; std::operator+<wchar_t,std::char_traits<wchar_t>,std::allocator<wchar_t> >, COMDAT

; 4749 :     basic_string<_Elem, _Traits, _Alloc>&& _Left, _In_z_ const _Elem* const _Right) {

	push	ebp
	mov	ebp, esp
	sub	esp, 204				; 000000ccH
	push	ebx
	push	esi
	push	edi
	lea	edi, DWORD PTR [ebp-12]
	mov	ecx, 3
	mov	eax, -858993460				; ccccccccH
	rep stosd
	mov	DWORD PTR $T1[ebp], 0
	mov	ecx, OFFSET __0D019051_xstring
	call	@__CheckForDebuggerJustMyCode@4

; 4750 :     return _STD move(_Left.append(_Right));

	mov	eax, DWORD PTR __Right$[ebp]
	push	eax
	mov	ecx, DWORD PTR __Left$[ebp]
	call	?append@?$basic_string@_WU?$char_traits@_W@std@@V?$allocator@_W@2@@std@@QAEAAV12@QB_W@Z ; std::basic_string<wchar_t,std::char_traits<wchar_t>,std::allocator<wchar_t> >::append
	push	eax
	call	??$move@AAV?$basic_string@_WU?$char_traits@_W@std@@V?$allocator@_W@2@@std@@@std@@YA$$QAV?$basic_string@_WU?$char_traits@_W@std@@V?$allocator@_W@2@@0@AAV10@@Z ; std::move<std::basic_string<wchar_t,std::char_traits<wchar_t>,std::allocator<wchar_t> > &>
	add	esp, 4
	push	eax
	mov	ecx, DWORD PTR ___$ReturnUdt$[ebp]
	call	??0?$basic_string@_WU?$char_traits@_W@std@@V?$allocator@_W@2@@std@@QAE@$$QAV01@@Z ; std::basic_string<wchar_t,std::char_traits<wchar_t>,std::allocator<wchar_t> >::basic_string<wchar_t,std::char_traits<wchar_t>,std::allocator<wchar_t> >
	mov	ecx, DWORD PTR $T1[ebp]
	or	ecx, 1
	mov	DWORD PTR $T1[ebp], ecx
	mov	eax, DWORD PTR ___$ReturnUdt$[ebp]

; 4751 : }

	pop	edi
	pop	esi
	pop	ebx
	add	esp, 204				; 000000ccH
	cmp	ebp, esp
	call	__RTC_CheckEsp
	mov	esp, ebp
	pop	ebp
	ret	0
??$?H_WU?$char_traits@_W@std@@V?$allocator@_W@1@@std@@YA?AV?$basic_string@_WU?$char_traits@_W@std@@V?$allocator@_W@2@@0@$$QAV10@QB_W@Z ENDP ; std::operator+<wchar_t,std::char_traits<wchar_t>,std::allocator<wchar_t> >
_TEXT	ENDS
; Function compile flags: /Odtp /RTCsu /ZI
; File C:\Program Files (x86)\Microsoft Visual Studio\2019\Community\VC\Tools\MSVC\14.29.30133\include\xstring
;	COMDAT ??$?HDU?$char_traits@D@std@@V?$allocator@D@1@@std@@YA?AV?$basic_string@DU?$char_traits@D@std@@V?$allocator@D@2@@0@$$QAV10@QBD@Z
_TEXT	SEGMENT
$T1 = -200						; size = 4
___$ReturnUdt$ = 8					; size = 4
__Left$ = 12						; size = 4
__Right$ = 16						; size = 4
??$?HDU?$char_traits@D@std@@V?$allocator@D@1@@std@@YA?AV?$basic_string@DU?$char_traits@D@std@@V?$allocator@D@2@@0@$$QAV10@QBD@Z PROC ; std::operator+<char,std::char_traits<char>,std::allocator<char> >, COMDAT

; 4749 :     basic_string<_Elem, _Traits, _Alloc>&& _Left, _In_z_ const _Elem* const _Right) {

	push	ebp
	mov	ebp, esp
	sub	esp, 204				; 000000ccH
	push	ebx
	push	esi
	push	edi
	lea	edi, DWORD PTR [ebp-12]
	mov	ecx, 3
	mov	eax, -858993460				; ccccccccH
	rep stosd
	mov	DWORD PTR $T1[ebp], 0
	mov	ecx, OFFSET __0D019051_xstring
	call	@__CheckForDebuggerJustMyCode@4

; 4750 :     return _STD move(_Left.append(_Right));

	mov	eax, DWORD PTR __Right$[ebp]
	push	eax
	mov	ecx, DWORD PTR __Left$[ebp]
	call	?append@?$basic_string@DU?$char_traits@D@std@@V?$allocator@D@2@@std@@QAEAAV12@QBD@Z ; std::basic_string<char,std::char_traits<char>,std::allocator<char> >::append
	push	eax
	call	??$move@AAV?$basic_string@DU?$char_traits@D@std@@V?$allocator@D@2@@std@@@std@@YA$$QAV?$basic_string@DU?$char_traits@D@std@@V?$allocator@D@2@@0@AAV10@@Z ; std::move<std::basic_string<char,std::char_traits<char>,std::allocator<char> > &>
	add	esp, 4
	push	eax
	mov	ecx, DWORD PTR ___$ReturnUdt$[ebp]
	call	??0?$basic_string@DU?$char_traits@D@std@@V?$allocator@D@2@@std@@QAE@$$QAV01@@Z ; std::basic_string<char,std::char_traits<char>,std::allocator<char> >::basic_string<char,std::char_traits<char>,std::allocator<char> >
	mov	ecx, DWORD PTR $T1[ebp]
	or	ecx, 1
	mov	DWORD PTR $T1[ebp], ecx
	mov	eax, DWORD PTR ___$ReturnUdt$[ebp]

; 4751 : }

	pop	edi
	pop	esi
	pop	ebx
	add	esp, 204				; 000000ccH
	cmp	ebp, esp
	call	__RTC_CheckEsp
	mov	esp, ebp
	pop	ebp
	ret	0
??$?HDU?$char_traits@D@std@@V?$allocator@D@1@@std@@YA?AV?$basic_string@DU?$char_traits@D@std@@V?$allocator@D@2@@0@$$QAV10@QBD@Z ENDP ; std::operator+<char,std::char_traits<char>,std::allocator<char> >
_TEXT	ENDS
; Function compile flags: /Odtp /RTCsu /ZI
; File C:\dev\StringLiterals\StringLiterals\src\main.cpp
;	COMDAT _main
_TEXT	SEGMENT
tv234 = -912						; size = 4
tv231 = -912						; size = 4
tv228 = -912						; size = 4
tv225 = -912						; size = 4
tv222 = -912						; size = 4
tv155 = -908						; size = 4
tv129 = -908						; size = 4
tv86 = -908						; size = 4
tv75 = -908						; size = 4
tv64 = -908						; size = 4
$T2 = -900						; size = 8
$T3 = -884						; size = 8
$T4 = -868						; size = 28
$T5 = -832						; size = 28
$T6 = -796						; size = 28
$T7 = -760						; size = 28
_name4$ = -340						; size = 4
_name3$ = -328						; size = 4
_name2$ = -316						; size = 4
_name$ = -304						; size = 4
_Name$ = -292						; size = 6
_c$8 = -276						; size = 4
_<end>$L1$9 = -264					; size = 4
_<begin>$L1$10 = -252					; size = 4
_<range>$L1$11 = -240					; size = 4
_c$12 = -228						; size = 4
_<end>$L0$13 = -216					; size = 4
_<begin>$L0$14 = -204					; size = 4
_<range>$L0$15 = -192					; size = 4
_ex$ = -180						; size = 4
_example$ = -168					; size = 4
_name03$ = -156						; size = 28
_name02$ = -120						; size = 28
_name01$ = -84						; size = 28
_name00$ = -48						; size = 28
__$ArrayPad$ = -16					; size = 4
__$EHRec$ = -12						; size = 12
_main	PROC						; COMDAT

; 9    : {

	push	ebp
	mov	ebp, esp
	push	-1
	push	__ehhandler$_main
	mov	eax, DWORD PTR fs:0
	push	eax
	sub	esp, 900				; 00000384H
	push	ebx
	push	esi
	push	edi
	lea	edi, DWORD PTR [ebp-528]
	mov	ecx, 129				; 00000081H
	mov	eax, -858993460				; ccccccccH
	rep stosd
	mov	eax, DWORD PTR ___security_cookie
	xor	eax, ebp
	mov	DWORD PTR __$ArrayPad$[ebp], eax
	push	eax
	lea	eax, DWORD PTR __$EHRec$[ebp]
	mov	DWORD PTR fs:0, eax
	mov	ecx, OFFSET __B0E46530_main@cpp
	call	@__CheckForDebuggerJustMyCode@4

; 10   : 	using namespace std::string_literals;
; 11   : 	//
; 12   : 	std::string name00 = u8"Ethan"s + "00";

	push	OFFSET ??_C@_02PLJDPFIO@00@
	push	5
	push	OFFSET ??_C@_05FBADLLFO@Ethan@
	lea	eax, DWORD PTR $T7[ebp]
	push	eax
	call	??__Ks@string_literals@literals@std@@YA?AV?$basic_string@DU?$char_traits@D@std@@V?$allocator@D@2@@3@PBDI@Z ; std::literals::string_literals::operator "" s
	add	esp, 12					; 0000000cH
	mov	DWORD PTR tv155[ebp], eax
	mov	ecx, DWORD PTR tv155[ebp]
	mov	DWORD PTR tv222[ebp], ecx
	mov	DWORD PTR __$EHRec$[ebp+8], 0
	mov	edx, DWORD PTR tv222[ebp]
	push	edx
	lea	eax, DWORD PTR _name00$[ebp]
	push	eax
	call	??$?HDU?$char_traits@D@std@@V?$allocator@D@1@@std@@YA?AV?$basic_string@DU?$char_traits@D@std@@V?$allocator@D@2@@0@$$QAV10@QBD@Z ; std::operator+<char,std::char_traits<char>,std::allocator<char> >
	add	esp, 12					; 0000000cH
	mov	BYTE PTR __$EHRec$[ebp+8], 2
	lea	ecx, DWORD PTR $T7[ebp]
	call	??1?$basic_string@DU?$char_traits@D@std@@V?$allocator@D@2@@std@@QAE@XZ ; std::basic_string<char,std::char_traits<char>,std::allocator<char> >::~basic_string<char,std::char_traits<char>,std::allocator<char> >

; 13   : 	std::wstring name01 = L"Ethan"s + L"01";

	push	OFFSET ??_C@_15CNAMGDF@?$AA0?$AA1@
	push	5
	push	OFFSET ??_C@_1M@MIBHDLFD@?$AAE?$AAt?$AAh?$AAa?$AAn@
	lea	eax, DWORD PTR $T6[ebp]
	push	eax
	call	??__Ks@string_literals@literals@std@@YA?AV?$basic_string@_WU?$char_traits@_W@std@@V?$allocator@_W@2@@3@PB_WI@Z ; std::literals::string_literals::operator "" s
	add	esp, 12					; 0000000cH
	mov	DWORD PTR tv64[ebp], eax
	mov	ecx, DWORD PTR tv64[ebp]
	mov	DWORD PTR tv225[ebp], ecx
	mov	BYTE PTR __$EHRec$[ebp+8], 3
	mov	edx, DWORD PTR tv225[ebp]
	push	edx
	lea	eax, DWORD PTR _name01$[ebp]
	push	eax
	call	??$?H_WU?$char_traits@_W@std@@V?$allocator@_W@1@@std@@YA?AV?$basic_string@_WU?$char_traits@_W@std@@V?$allocator@_W@2@@0@$$QAV10@QB_W@Z ; std::operator+<wchar_t,std::char_traits<wchar_t>,std::allocator<wchar_t> >
	add	esp, 12					; 0000000cH
	mov	BYTE PTR __$EHRec$[ebp+8], 5
	lea	ecx, DWORD PTR $T6[ebp]
	call	??1?$basic_string@_WU?$char_traits@_W@std@@V?$allocator@_W@2@@std@@QAE@XZ ; std::basic_string<wchar_t,std::char_traits<wchar_t>,std::allocator<wchar_t> >::~basic_string<wchar_t,std::char_traits<wchar_t>,std::allocator<wchar_t> >

; 14   : 	std::u16string name02 = u"Ethan"s + u"02";

	push	OFFSET ??_C@_15BAGFGJNL@?$AA0?$AA2@
	push	5
	push	OFFSET ??_C@_1M@MIBHDLFD@?$AAE?$AAt?$AAh?$AAa?$AAn@
	lea	eax, DWORD PTR $T5[ebp]
	push	eax
	call	??__Ks@string_literals@literals@std@@YA?AV?$basic_string@_SU?$char_traits@_S@std@@V?$allocator@_S@2@@3@PB_SI@Z ; std::literals::string_literals::operator "" s
	add	esp, 12					; 0000000cH
	mov	DWORD PTR tv75[ebp], eax
	mov	ecx, DWORD PTR tv75[ebp]
	mov	DWORD PTR tv228[ebp], ecx
	mov	BYTE PTR __$EHRec$[ebp+8], 6
	mov	edx, DWORD PTR tv228[ebp]
	push	edx
	lea	eax, DWORD PTR _name02$[ebp]
	push	eax
	call	??$?H_SU?$char_traits@_S@std@@V?$allocator@_S@1@@std@@YA?AV?$basic_string@_SU?$char_traits@_S@std@@V?$allocator@_S@2@@0@$$QAV10@QB_S@Z ; std::operator+<char16_t,std::char_traits<char16_t>,std::allocator<char16_t> >
	add	esp, 12					; 0000000cH
	mov	BYTE PTR __$EHRec$[ebp+8], 8
	lea	ecx, DWORD PTR $T5[ebp]
	call	??1?$basic_string@_SU?$char_traits@_S@std@@V?$allocator@_S@2@@std@@QAE@XZ ; std::basic_string<char16_t,std::char_traits<char16_t>,std::allocator<char16_t> >::~basic_string<char16_t,std::char_traits<char16_t>,std::allocator<char16_t> >

; 15   : 	std::u32string name03 = U"Ethan"s + U"03";

	push	OFFSET ??_C@_2M@JLEBFLAK@?$AA?$AA?$AA0?$AA?$AA?$AA3@
	push	5
	push	OFFSET ??_C@_2BI@CPCKAEFF@?$AA?$AA?$AAE?$AA?$AA?$AAt?$AA?$AA?$AAh?$AA?$AA?$AAa?$AA?$AA?$AAn@
	lea	eax, DWORD PTR $T4[ebp]
	push	eax
	call	??__Ks@string_literals@literals@std@@YA?AV?$basic_string@_UU?$char_traits@_U@std@@V?$allocator@_U@2@@3@PB_UI@Z ; std::literals::string_literals::operator "" s
	add	esp, 12					; 0000000cH
	mov	DWORD PTR tv86[ebp], eax
	mov	ecx, DWORD PTR tv86[ebp]
	mov	DWORD PTR tv231[ebp], ecx
	mov	BYTE PTR __$EHRec$[ebp+8], 9
	mov	edx, DWORD PTR tv231[ebp]
	push	edx
	lea	eax, DWORD PTR _name03$[ebp]
	push	eax
	call	??$?H_UU?$char_traits@_U@std@@V?$allocator@_U@1@@std@@YA?AV?$basic_string@_UU?$char_traits@_U@std@@V?$allocator@_U@2@@0@$$QAV10@QB_U@Z ; std::operator+<char32_t,std::char_traits<char32_t>,std::allocator<char32_t> >
	add	esp, 12					; 0000000cH
	mov	BYTE PTR __$EHRec$[ebp+8], 11		; 0000000bH
	lea	ecx, DWORD PTR $T4[ebp]
	call	??1?$basic_string@_UU?$char_traits@_U@std@@V?$allocator@_U@2@@std@@QAE@XZ ; std::basic_string<char32_t,std::char_traits<char32_t>,std::allocator<char32_t> >::~basic_string<char32_t,std::char_traits<char32_t>,std::allocator<char32_t> >

; 16   : 
; 17   : 	const char* example = R"(Line1

	mov	DWORD PTR _example$[ebp], OFFSET ??_C@_0BC@GBLLDDOB@Line1?6Line2?6Line3@

; 18   : Line2
; 19   : Line3)";
; 20   : 
; 21   : 	const char* ex = "line1\n"

	mov	DWORD PTR _ex$[ebp], OFFSET ??_C@_0BD@HHMEIFCK@line1?6line2?6line3?6@

; 22   : 		"line2\n"
; 23   : 		"line3\n";
; 24   : 
; 25   : 	std::cout << name00 << std::endl;

	mov	esi, esp
	push	OFFSET ??$endl@DU?$char_traits@D@std@@@std@@YAAAV?$basic_ostream@DU?$char_traits@D@std@@@0@AAV10@@Z ; std::endl<char,std::char_traits<char> >
	lea	eax, DWORD PTR _name00$[ebp]
	push	eax
	mov	ecx, DWORD PTR __imp_?cout@std@@3V?$basic_ostream@DU?$char_traits@D@std@@@1@A
	push	ecx
	call	??$?6DU?$char_traits@D@std@@V?$allocator@D@1@@std@@YAAAV?$basic_ostream@DU?$char_traits@D@std@@@0@AAV10@ABV?$basic_string@DU?$char_traits@D@std@@V?$allocator@D@2@@0@@Z ; std::operator<<<char,std::char_traits<char>,std::allocator<char> >
	add	esp, 8
	mov	ecx, eax
	call	DWORD PTR __imp_??6?$basic_ostream@DU?$char_traits@D@std@@@std@@QAEAAV01@P6AAAV01@AAV01@@Z@Z
	cmp	esi, esp
	call	__RTC_CheckEsp

; 26   : 
; 27   : 	wcout.imbue(locale("chs"));

	push	63					; 0000003fH
	push	OFFSET ??_C@_03LFPOMIKD@chs@
	lea	ecx, DWORD PTR $T3[ebp]
	call	??0locale@std@@QAE@PBDH@Z		; std::locale::locale
	mov	DWORD PTR tv129[ebp], eax
	mov	eax, DWORD PTR tv129[ebp]
	mov	DWORD PTR tv234[ebp], eax
	mov	BYTE PTR __$EHRec$[ebp+8], 12		; 0000000cH
	mov	esi, esp
	mov	ecx, DWORD PTR tv234[ebp]
	push	ecx
	lea	edx, DWORD PTR $T2[ebp]
	push	edx
	mov	eax, DWORD PTR __imp_?wcout@std@@3V?$basic_ostream@_WU?$char_traits@_W@std@@@1@A
	mov	ecx, DWORD PTR [eax]
	mov	edx, DWORD PTR __imp_?wcout@std@@3V?$basic_ostream@_WU?$char_traits@_W@std@@@1@A
	add	edx, DWORD PTR [ecx+4]
	mov	ecx, edx
	call	DWORD PTR __imp_?imbue@?$basic_ios@_WU?$char_traits@_W@std@@@std@@QAE?AVlocale@2@ABV32@@Z
	cmp	esi, esp
	call	__RTC_CheckEsp
	lea	ecx, DWORD PTR $T2[ebp]
	call	??1locale@std@@QAE@XZ			; std::locale::~locale
	mov	BYTE PTR __$EHRec$[ebp+8], 11		; 0000000bH
	lea	ecx, DWORD PTR $T3[ebp]
	call	??1locale@std@@QAE@XZ			; std::locale::~locale

; 28   : 	wcout << name01 << endl;

	mov	esi, esp
	push	OFFSET ??$endl@_WU?$char_traits@_W@std@@@std@@YAAAV?$basic_ostream@_WU?$char_traits@_W@std@@@0@AAV10@@Z ; std::endl<wchar_t,std::char_traits<wchar_t> >
	lea	eax, DWORD PTR _name01$[ebp]
	push	eax
	mov	ecx, DWORD PTR __imp_?wcout@std@@3V?$basic_ostream@_WU?$char_traits@_W@std@@@1@A
	push	ecx
	call	??$?6_WU?$char_traits@_W@std@@V?$allocator@_W@1@@std@@YAAAV?$basic_ostream@_WU?$char_traits@_W@std@@@0@AAV10@ABV?$basic_string@_WU?$char_traits@_W@std@@V?$allocator@_W@2@@0@@Z ; std::operator<<<wchar_t,std::char_traits<wchar_t>,std::allocator<wchar_t> >
	add	esp, 8
	mov	ecx, eax
	call	DWORD PTR __imp_??6?$basic_ostream@_WU?$char_traits@_W@std@@@std@@QAEAAV01@P6AAAV01@AAV01@@Z@Z
	cmp	esi, esp
	call	__RTC_CheckEsp

; 29   : 	
; 30   : 	for (const auto& c : name02)

	lea	eax, DWORD PTR _name02$[ebp]
	mov	DWORD PTR _<range>$L0$15[ebp], eax
	mov	ecx, DWORD PTR _<range>$L0$15[ebp]
	call	?_Unchecked_begin@?$basic_string@_SU?$char_traits@_S@std@@V?$allocator@_S@2@@std@@QAEPA_SXZ ; std::basic_string<char16_t,std::char_traits<char16_t>,std::allocator<char16_t> >::_Unchecked_begin
	mov	DWORD PTR _<begin>$L0$14[ebp], eax
	mov	ecx, DWORD PTR _<range>$L0$15[ebp]
	call	?_Unchecked_end@?$basic_string@_SU?$char_traits@_S@std@@V?$allocator@_S@2@@std@@QAEPA_SXZ ; std::basic_string<char16_t,std::char_traits<char16_t>,std::allocator<char16_t> >::_Unchecked_end
	mov	DWORD PTR _<end>$L0$13[ebp], eax
	jmp	SHORT $LN4@main
$LN2@main:
	mov	eax, DWORD PTR _<begin>$L0$14[ebp]
	add	eax, 2
	mov	DWORD PTR _<begin>$L0$14[ebp], eax
$LN4@main:
	mov	eax, DWORD PTR _<begin>$L0$14[ebp]
	cmp	eax, DWORD PTR _<end>$L0$13[ebp]
	je	SHORT $LN3@main
	mov	eax, DWORD PTR _<begin>$L0$14[ebp]
	mov	DWORD PTR _c$12[ebp], eax

; 31   : 		std::cout << static_cast<char>(c);

	mov	eax, DWORD PTR _c$12[ebp]
	movzx	ecx, BYTE PTR [eax]
	push	ecx
	mov	edx, DWORD PTR __imp_?cout@std@@3V?$basic_ostream@DU?$char_traits@D@std@@@1@A
	push	edx
	call	??$?6U?$char_traits@D@std@@@std@@YAAAV?$basic_ostream@DU?$char_traits@D@std@@@0@AAV10@D@Z ; std::operator<<<std::char_traits<char> >
	add	esp, 8
	jmp	SHORT $LN2@main
$LN3@main:

; 32   : 	std::cout << "\0" << std::endl;

	mov	esi, esp
	push	OFFSET ??$endl@DU?$char_traits@D@std@@@std@@YAAAV?$basic_ostream@DU?$char_traits@D@std@@@0@AAV10@@Z ; std::endl<char,std::char_traits<char> >
	push	OFFSET ??_C@_01LOCGONAA@?$AA@
	mov	eax, DWORD PTR __imp_?cout@std@@3V?$basic_ostream@DU?$char_traits@D@std@@@1@A
	push	eax
	call	??$?6U?$char_traits@D@std@@@std@@YAAAV?$basic_ostream@DU?$char_traits@D@std@@@0@AAV10@PBD@Z ; std::operator<<<std::char_traits<char> >
	add	esp, 8
	mov	ecx, eax
	call	DWORD PTR __imp_??6?$basic_ostream@DU?$char_traits@D@std@@@std@@QAEAAV01@P6AAAV01@AAV01@@Z@Z
	cmp	esi, esp
	call	__RTC_CheckEsp

; 33   : 
; 34   : 	for (const auto& c : name03)

	lea	eax, DWORD PTR _name03$[ebp]
	mov	DWORD PTR _<range>$L1$11[ebp], eax
	mov	ecx, DWORD PTR _<range>$L1$11[ebp]
	call	?_Unchecked_begin@?$basic_string@_UU?$char_traits@_U@std@@V?$allocator@_U@2@@std@@QAEPA_UXZ ; std::basic_string<char32_t,std::char_traits<char32_t>,std::allocator<char32_t> >::_Unchecked_begin
	mov	DWORD PTR _<begin>$L1$10[ebp], eax
	mov	ecx, DWORD PTR _<range>$L1$11[ebp]
	call	?_Unchecked_end@?$basic_string@_UU?$char_traits@_U@std@@V?$allocator@_U@2@@std@@QAEPA_UXZ ; std::basic_string<char32_t,std::char_traits<char32_t>,std::allocator<char32_t> >::_Unchecked_end
	mov	DWORD PTR _<end>$L1$9[ebp], eax
	jmp	SHORT $LN7@main
$LN5@main:
	mov	eax, DWORD PTR _<begin>$L1$10[ebp]
	add	eax, 4
	mov	DWORD PTR _<begin>$L1$10[ebp], eax
$LN7@main:
	mov	eax, DWORD PTR _<begin>$L1$10[ebp]
	cmp	eax, DWORD PTR _<end>$L1$9[ebp]
	je	SHORT $LN6@main
	mov	eax, DWORD PTR _<begin>$L1$10[ebp]
	mov	DWORD PTR _c$8[ebp], eax

; 35   : 		std::cout << static_cast<char>(c);

	mov	eax, DWORD PTR _c$8[ebp]
	movzx	ecx, BYTE PTR [eax]
	push	ecx
	mov	edx, DWORD PTR __imp_?cout@std@@3V?$basic_ostream@DU?$char_traits@D@std@@@1@A
	push	edx
	call	??$?6U?$char_traits@D@std@@@std@@YAAAV?$basic_ostream@DU?$char_traits@D@std@@@0@AAV10@D@Z ; std::operator<<<std::char_traits<char> >
	add	esp, 8
	jmp	SHORT $LN5@main
$LN6@main:

; 36   : 	std::cout << "\0" << std::endl;

	mov	esi, esp
	push	OFFSET ??$endl@DU?$char_traits@D@std@@@std@@YAAAV?$basic_ostream@DU?$char_traits@D@std@@@0@AAV10@@Z ; std::endl<char,std::char_traits<char> >
	push	OFFSET ??_C@_01LOCGONAA@?$AA@
	mov	eax, DWORD PTR __imp_?cout@std@@3V?$basic_ostream@DU?$char_traits@D@std@@@1@A
	push	eax
	call	??$?6U?$char_traits@D@std@@@std@@YAAAV?$basic_ostream@DU?$char_traits@D@std@@@0@AAV10@PBD@Z ; std::operator<<<std::char_traits<char> >
	add	esp, 8
	mov	ecx, eax
	call	DWORD PTR __imp_??6?$basic_ostream@DU?$char_traits@D@std@@@std@@QAEAAV01@P6AAAV01@AAV01@@Z@Z
	cmp	esi, esp
	call	__RTC_CheckEsp

; 37   : 
; 38   : 	std::cout << example << std::endl;

	mov	esi, esp
	push	OFFSET ??$endl@DU?$char_traits@D@std@@@std@@YAAAV?$basic_ostream@DU?$char_traits@D@std@@@0@AAV10@@Z ; std::endl<char,std::char_traits<char> >
	mov	eax, DWORD PTR _example$[ebp]
	push	eax
	mov	ecx, DWORD PTR __imp_?cout@std@@3V?$basic_ostream@DU?$char_traits@D@std@@@1@A
	push	ecx
	call	??$?6U?$char_traits@D@std@@@std@@YAAAV?$basic_ostream@DU?$char_traits@D@std@@@0@AAV10@PBD@Z ; std::operator<<<std::char_traits<char> >
	add	esp, 8
	mov	ecx, eax
	call	DWORD PTR __imp_??6?$basic_ostream@DU?$char_traits@D@std@@@std@@QAEAAV01@P6AAAV01@AAV01@@Z@Z
	cmp	esi, esp
	call	__RTC_CheckEsp

; 39   : 	std::cout << ex << std::endl;

	mov	esi, esp
	push	OFFSET ??$endl@DU?$char_traits@D@std@@@std@@YAAAV?$basic_ostream@DU?$char_traits@D@std@@@0@AAV10@@Z ; std::endl<char,std::char_traits<char> >
	mov	eax, DWORD PTR _ex$[ebp]
	push	eax
	mov	ecx, DWORD PTR __imp_?cout@std@@3V?$basic_ostream@DU?$char_traits@D@std@@@1@A
	push	ecx
	call	??$?6U?$char_traits@D@std@@@std@@YAAAV?$basic_ostream@DU?$char_traits@D@std@@@0@AAV10@PBD@Z ; std::operator<<<std::char_traits<char> >
	add	esp, 8
	mov	ecx, eax
	call	DWORD PTR __imp_??6?$basic_ostream@DU?$char_traits@D@std@@@std@@QAEAAV01@P6AAAV01@AAV01@@Z@Z
	cmp	esi, esp
	call	__RTC_CheckEsp

; 40   : 
; 41   : 	char Name[] = u8"Ethan";	//

	mov	eax, DWORD PTR ??_C@_05FBADLLFO@Ethan@
	mov	DWORD PTR _Name$[ebp], eax
	mov	cx, WORD PTR ??_C@_05FBADLLFO@Ethan@+4
	mov	WORD PTR _Name$[ebp+4], cx

; 42   : 	const char* name = Name;

	lea	eax, DWORD PTR _Name$[ebp]
	mov	DWORD PTR _name$[ebp], eax

; 43   : 
; 44   : 	//
; 45   : 	const wchar_t* name2 = L"Ethan";	//

	mov	DWORD PTR _name2$[ebp], OFFSET ??_C@_1M@MIBHDLFD@?$AAE?$AAt?$AAh?$AAa?$AAn@

; 46   : 
; 47   : 	const char16_t* name3 = u"Etahn";	//16

	mov	DWORD PTR _name3$[ebp], OFFSET ??_C@_1M@PAFHHBLA@?$AAE?$AAt?$AAa?$AAh?$AAn@

; 48   : 	const char32_t* name4 = U"Etahn";	//32

	mov	DWORD PTR _name4$[ebp], OFFSET ??_C@_2BI@GPPIDABK@?$AA?$AA?$AAE?$AA?$AA?$AAt?$AA?$AA?$AAa?$AA?$AA?$AAh?$AA?$AA?$AAn@

; 49   : 
; 50   : 	std::cout << "name:" << name << std::endl;

	mov	esi, esp
	push	OFFSET ??$endl@DU?$char_traits@D@std@@@std@@YAAAV?$basic_ostream@DU?$char_traits@D@std@@@0@AAV10@@Z ; std::endl<char,std::char_traits<char> >
	mov	eax, DWORD PTR _name$[ebp]
	push	eax
	push	OFFSET ??_C@_05HKGIJGOH@name?3@
	mov	ecx, DWORD PTR __imp_?cout@std@@3V?$basic_ostream@DU?$char_traits@D@std@@@1@A
	push	ecx
	call	??$?6U?$char_traits@D@std@@@std@@YAAAV?$basic_ostream@DU?$char_traits@D@std@@@0@AAV10@PBD@Z ; std::operator<<<std::char_traits<char> >
	add	esp, 8
	push	eax
	call	??$?6U?$char_traits@D@std@@@std@@YAAAV?$basic_ostream@DU?$char_traits@D@std@@@0@AAV10@PBD@Z ; std::operator<<<std::char_traits<char> >
	add	esp, 8
	mov	ecx, eax
	call	DWORD PTR __imp_??6?$basic_ostream@DU?$char_traits@D@std@@@std@@QAEAAV01@P6AAAV01@AAV01@@Z@Z
	cmp	esi, esp
	call	__RTC_CheckEsp

; 51   : 	
; 52   : 	std::cin.get();

	mov	esi, esp
	mov	ecx, DWORD PTR __imp_?cin@std@@3V?$basic_istream@DU?$char_traits@D@std@@@1@A
	call	DWORD PTR __imp_?get@?$basic_istream@DU?$char_traits@D@std@@@std@@QAEHXZ
	cmp	esi, esp
	call	__RTC_CheckEsp

; 53   : }

	mov	BYTE PTR __$EHRec$[ebp+8], 8
	lea	ecx, DWORD PTR _name03$[ebp]
	call	??1?$basic_string@_UU?$char_traits@_U@std@@V?$allocator@_U@2@@std@@QAE@XZ ; std::basic_string<char32_t,std::char_traits<char32_t>,std::allocator<char32_t> >::~basic_string<char32_t,std::char_traits<char32_t>,std::allocator<char32_t> >
	mov	BYTE PTR __$EHRec$[ebp+8], 5
	lea	ecx, DWORD PTR _name02$[ebp]
	call	??1?$basic_string@_SU?$char_traits@_S@std@@V?$allocator@_S@2@@std@@QAE@XZ ; std::basic_string<char16_t,std::char_traits<char16_t>,std::allocator<char16_t> >::~basic_string<char16_t,std::char_traits<char16_t>,std::allocator<char16_t> >
	mov	BYTE PTR __$EHRec$[ebp+8], 2
	lea	ecx, DWORD PTR _name01$[ebp]
	call	??1?$basic_string@_WU?$char_traits@_W@std@@V?$allocator@_W@2@@std@@QAE@XZ ; std::basic_string<wchar_t,std::char_traits<wchar_t>,std::allocator<wchar_t> >::~basic_string<wchar_t,std::char_traits<wchar_t>,std::allocator<wchar_t> >
	mov	DWORD PTR __$EHRec$[ebp+8], -1
	lea	ecx, DWORD PTR _name00$[ebp]
	call	??1?$basic_string@DU?$char_traits@D@std@@V?$allocator@D@2@@std@@QAE@XZ ; std::basic_string<char,std::char_traits<char>,std::allocator<char> >::~basic_string<char,std::char_traits<char>,std::allocator<char> >
	xor	eax, eax
	push	edx
	mov	ecx, ebp
	push	eax
	lea	edx, DWORD PTR $LN26@main
	call	@_RTC_CheckStackVars@8
	pop	eax
	pop	edx
	mov	ecx, DWORD PTR __$EHRec$[ebp]
	mov	DWORD PTR fs:0, ecx
	pop	ecx
	pop	edi
	pop	esi
	pop	ebx
	mov	ecx, DWORD PTR __$ArrayPad$[ebp]
	xor	ecx, ebp
	call	@__security_check_cookie@4
	add	esp, 912				; 00000390H
	cmp	ebp, esp
	call	__RTC_CheckEsp
	mov	esp, ebp
	pop	ebp
	ret	0
	npad	2
$LN26@main:
	DD	5
	DD	$LN25@main
$LN25@main:
	DD	-48					; ffffffd0H
	DD	28					; 0000001cH
	DD	$LN19@main
	DD	-84					; ffffffacH
	DD	28					; 0000001cH
	DD	$LN20@main
	DD	-120					; ffffff88H
	DD	28					; 0000001cH
	DD	$LN21@main
	DD	-156					; ffffff64H
	DD	28					; 0000001cH
	DD	$LN22@main
	DD	-292					; fffffedcH
	DD	6
	DD	$LN23@main
$LN23@main:
	DB	78					; 0000004eH
	DB	97					; 00000061H
	DB	109					; 0000006dH
	DB	101					; 00000065H
	DB	0
$LN22@main:
	DB	110					; 0000006eH
	DB	97					; 00000061H
	DB	109					; 0000006dH
	DB	101					; 00000065H
	DB	48					; 00000030H
	DB	51					; 00000033H
	DB	0
$LN21@main:
	DB	110					; 0000006eH
	DB	97					; 00000061H
	DB	109					; 0000006dH
	DB	101					; 00000065H
	DB	48					; 00000030H
	DB	50					; 00000032H
	DB	0
$LN20@main:
	DB	110					; 0000006eH
	DB	97					; 00000061H
	DB	109					; 0000006dH
	DB	101					; 00000065H
	DB	48					; 00000030H
	DB	49					; 00000031H
	DB	0
$LN19@main:
	DB	110					; 0000006eH
	DB	97					; 00000061H
	DB	109					; 0000006dH
	DB	101					; 00000065H
	DB	48					; 00000030H
	DB	48					; 00000030H
	DB	0
_TEXT	ENDS
;	COMDAT text$x
text$x	SEGMENT
__unwindfunclet$_main$0:
	lea	ecx, DWORD PTR $T7[ebp]
	jmp	??1?$basic_string@DU?$char_traits@D@std@@V?$allocator@D@2@@std@@QAE@XZ ; std::basic_string<char,std::char_traits<char>,std::allocator<char> >::~basic_string<char,std::char_traits<char>,std::allocator<char> >
__unwindfunclet$_main$1:
	lea	ecx, DWORD PTR _name00$[ebp]
	jmp	??1?$basic_string@DU?$char_traits@D@std@@V?$allocator@D@2@@std@@QAE@XZ ; std::basic_string<char,std::char_traits<char>,std::allocator<char> >::~basic_string<char,std::char_traits<char>,std::allocator<char> >
__unwindfunclet$_main$2:
	lea	ecx, DWORD PTR $T6[ebp]
	jmp	??1?$basic_string@_WU?$char_traits@_W@std@@V?$allocator@_W@2@@std@@QAE@XZ ; std::basic_string<wchar_t,std::char_traits<wchar_t>,std::allocator<wchar_t> >::~basic_string<wchar_t,std::char_traits<wchar_t>,std::allocator<wchar_t> >
__unwindfunclet$_main$3:
	lea	ecx, DWORD PTR _name01$[ebp]
	jmp	??1?$basic_string@_WU?$char_traits@_W@std@@V?$allocator@_W@2@@std@@QAE@XZ ; std::basic_string<wchar_t,std::char_traits<wchar_t>,std::allocator<wchar_t> >::~basic_string<wchar_t,std::char_traits<wchar_t>,std::allocator<wchar_t> >
__unwindfunclet$_main$4:
	lea	ecx, DWORD PTR $T5[ebp]
	jmp	??1?$basic_string@_SU?$char_traits@_S@std@@V?$allocator@_S@2@@std@@QAE@XZ ; std::basic_string<char16_t,std::char_traits<char16_t>,std::allocator<char16_t> >::~basic_string<char16_t,std::char_traits<char16_t>,std::allocator<char16_t> >
__unwindfunclet$_main$5:
	lea	ecx, DWORD PTR _name02$[ebp]
	jmp	??1?$basic_string@_SU?$char_traits@_S@std@@V?$allocator@_S@2@@std@@QAE@XZ ; std::basic_string<char16_t,std::char_traits<char16_t>,std::allocator<char16_t> >::~basic_string<char16_t,std::char_traits<char16_t>,std::allocator<char16_t> >
__unwindfunclet$_main$6:
	lea	ecx, DWORD PTR $T4[ebp]
	jmp	??1?$basic_string@_UU?$char_traits@_U@std@@V?$allocator@_U@2@@std@@QAE@XZ ; std::basic_string<char32_t,std::char_traits<char32_t>,std::allocator<char32_t> >::~basic_string<char32_t,std::char_traits<char32_t>,std::allocator<char32_t> >
__unwindfunclet$_main$7:
	lea	ecx, DWORD PTR _name03$[ebp]
	jmp	??1?$basic_string@_UU?$char_traits@_U@std@@V?$allocator@_U@2@@std@@QAE@XZ ; std::basic_string<char32_t,std::char_traits<char32_t>,std::allocator<char32_t> >::~basic_string<char32_t,std::char_traits<char32_t>,std::allocator<char32_t> >
__unwindfunclet$_main$8:
	lea	ecx, DWORD PTR $T3[ebp]
	jmp	??1locale@std@@QAE@XZ			; std::locale::~locale
	int	3
	int	3
	int	3
	int	3
	int	3
__ehhandler$_main:
	npad	1
	npad	1
	mov	edx, DWORD PTR [esp+8]
	lea	eax, DWORD PTR [edx+12]
	mov	ecx, DWORD PTR [edx-916]
	xor	ecx, eax
	call	@__security_check_cookie@4
	mov	ecx, DWORD PTR [edx-4]
	xor	ecx, eax
	call	@__security_check_cookie@4
	mov	eax, OFFSET __ehfuncinfo$_main
	jmp	___CxxFrameHandler3
text$x	ENDS
_main	ENDP
; Function compile flags: /Odtp /RTCsu /ZI
; File C:\Program Files (x86)\Microsoft Visual Studio\2019\Community\VC\Tools\MSVC\14.29.30133\include\xloctime
;	COMDAT ??$_Getvals@_W@?$time_get@_WV?$istreambuf_iterator@_WU?$char_traits@_W@std@@@std@@@std@@IAEX_WABV_Locinfo@1@@Z
_TEXT	SEGMENT
$T1 = -252						; size = 44
_this$ = -8						; size = 4
___formal$ = 8						; size = 2
__Lobj$ = 12						; size = 4
??$_Getvals@_W@?$time_get@_WV?$istreambuf_iterator@_WU?$char_traits@_W@std@@@std@@@std@@IAEX_WABV_Locinfo@1@@Z PROC ; std::time_get<wchar_t,std::istreambuf_iterator<wchar_t,std::char_traits<wchar_t> > >::_Getvals<wchar_t>, COMDAT
; _this$ = ecx

; 171  :     void __CLR_OR_THIS_CALL _Getvals(_Elem2, const _Locinfo& _Lobj) { // get values

	push	ebp
	mov	ebp, esp
	sub	esp, 256				; 00000100H
	push	ebx
	push	esi
	push	edi
	push	ecx
	lea	edi, DWORD PTR [ebp-64]
	mov	ecx, 16					; 00000010H
	mov	eax, -858993460				; ccccccccH
	rep stosd
	pop	ecx
	mov	DWORD PTR _this$[ebp], ecx
	mov	ecx, OFFSET __D96D2425_xloctime
	call	@__CheckForDebuggerJustMyCode@4

; 172  :         _Cvt = _Lobj._Getcvt();

	mov	esi, esp
	lea	eax, DWORD PTR $T1[ebp]
	push	eax
	mov	ecx, DWORD PTR __Lobj$[ebp]
	call	DWORD PTR __imp_?_Getcvt@_Locinfo@std@@QBE?AU_Cvtvec@@XZ
	cmp	esi, esp
	call	__RTC_CheckEsp
	mov	edi, DWORD PTR _this$[ebp]
	add	edi, 24					; 00000018H
	mov	ecx, 11					; 0000000bH
	mov	esi, eax
	rep movsd

; 173  : 
; 174  :         if (is_same_v<_Elem2, wchar_t>) {

	mov	eax, 1
	test	eax, eax
	je	SHORT $LN2@Getvals

; 175  :             _Days = reinterpret_cast<const _Elem*>(_Maklocwcs(reinterpret_cast<const wchar_t*>(_Lobj._W_Getdays())));

	mov	esi, esp
	mov	ecx, DWORD PTR __Lobj$[ebp]
	call	DWORD PTR __imp_?_W_Getdays@_Locinfo@std@@QBEPBGXZ
	cmp	esi, esp
	call	__RTC_CheckEsp
	push	eax
	call	?_Maklocwcs@std@@YAPA_WPB_W@Z		; std::_Maklocwcs
	add	esp, 4
	mov	ecx, DWORD PTR _this$[ebp]
	mov	DWORD PTR [ecx+8], eax

; 176  :             _Months =

	mov	esi, esp
	mov	ecx, DWORD PTR __Lobj$[ebp]
	call	DWORD PTR __imp_?_W_Getmonths@_Locinfo@std@@QBEPBGXZ
	cmp	esi, esp
	call	__RTC_CheckEsp
	push	eax
	call	?_Maklocwcs@std@@YAPA_WPB_W@Z		; std::_Maklocwcs
	add	esp, 4
	mov	ecx, DWORD PTR _this$[ebp]
	mov	DWORD PTR [ecx+12], eax

; 177  :                 reinterpret_cast<const _Elem*>(_Maklocwcs(reinterpret_cast<const wchar_t*>(_Lobj._W_Getmonths())));
; 178  :             _Ampm = reinterpret_cast<const _Elem*>(_Maklocwcs(L":AM:am:PM:pm"));

	push	OFFSET ??_C@_1BK@MHIKGOKE@?$AA?3?$AAA?$AAM?$AA?3?$AAa?$AAm?$AA?3?$AAP?$AAM?$AA?3?$AAp?$AAm@
	call	?_Maklocwcs@std@@YAPA_WPB_W@Z		; std::_Maklocwcs
	add	esp, 4
	mov	ecx, DWORD PTR _this$[ebp]
	mov	DWORD PTR [ecx+16], eax

; 179  :         } else {

	jmp	SHORT $LN1@Getvals
$LN2@Getvals:

; 180  :             _Days   = _Maklocstr(_Lobj._Getdays(), static_cast<_Elem*>(nullptr), _Cvt);

	mov	eax, DWORD PTR _this$[ebp]
	add	eax, 24					; 00000018H
	push	eax
	push	0
	mov	esi, esp
	mov	ecx, DWORD PTR __Lobj$[ebp]
	call	DWORD PTR __imp_?_Getdays@_Locinfo@std@@QBEPBDXZ
	cmp	esi, esp
	call	__RTC_CheckEsp
	push	eax
	call	??$_Maklocstr@_W@std@@YAPA_WPBDPA_WABU_Cvtvec@@@Z ; std::_Maklocstr<wchar_t>
	add	esp, 12					; 0000000cH
	mov	ecx, DWORD PTR _this$[ebp]
	mov	DWORD PTR [ecx+8], eax

; 181  :             _Months = _Maklocstr(_Lobj._Getmonths(), static_cast<_Elem*>(nullptr), _Cvt);

	mov	eax, DWORD PTR _this$[ebp]
	add	eax, 24					; 00000018H
	push	eax
	push	0
	mov	esi, esp
	mov	ecx, DWORD PTR __Lobj$[ebp]
	call	DWORD PTR __imp_?_Getmonths@_Locinfo@std@@QBEPBDXZ
	cmp	esi, esp
	call	__RTC_CheckEsp
	push	eax
	call	??$_Maklocstr@_W@std@@YAPA_WPBDPA_WABU_Cvtvec@@@Z ; std::_Maklocstr<wchar_t>
	add	esp, 12					; 0000000cH
	mov	ecx, DWORD PTR _this$[ebp]
	mov	DWORD PTR [ecx+12], eax

; 182  :             _Ampm   = _Maklocstr(":AM:am:PM:pm", static_cast<_Elem*>(nullptr), _Cvt);

	mov	eax, DWORD PTR _this$[ebp]
	add	eax, 24					; 00000018H
	push	eax
	push	0
	push	OFFSET ??_C@_0N@LPFKKEBD@?3AM?3am?3PM?3pm@
	call	??$_Maklocstr@_W@std@@YAPA_WPBDPA_WABU_Cvtvec@@@Z ; std::_Maklocstr<wchar_t>
	add	esp, 12					; 0000000cH
	mov	ecx, DWORD PTR _this$[ebp]
	mov	DWORD PTR [ecx+16], eax
$LN1@Getvals:

; 183  :         }
; 184  :     }

	pop	edi
	pop	esi
	pop	ebx
	add	esp, 256				; 00000100H
	cmp	ebp, esp
	call	__RTC_CheckEsp
	mov	esp, ebp
	pop	ebp
	ret	8
??$_Getvals@_W@?$time_get@_WV?$istreambuf_iterator@_WU?$char_traits@_W@std@@@std@@@std@@IAEX_WABV_Locinfo@1@@Z ENDP ; std::time_get<wchar_t,std::istreambuf_iterator<wchar_t,std::char_traits<wchar_t> > >::_Getvals<wchar_t>
_TEXT	ENDS
; Function compile flags: /Odtp /RTCsu /ZI
; File C:\Program Files (x86)\Microsoft Visual Studio\2019\Community\VC\Tools\MSVC\14.29.30133\include\xloctime
;	COMDAT ??$_Getvals@_W@?$time_get@DV?$istreambuf_iterator@DU?$char_traits@D@std@@@std@@@std@@IAEX_WABV_Locinfo@1@@Z
_TEXT	SEGMENT
$T1 = -252						; size = 44
_this$ = -8						; size = 4
___formal$ = 8						; size = 2
__Lobj$ = 12						; size = 4
??$_Getvals@_W@?$time_get@DV?$istreambuf_iterator@DU?$char_traits@D@std@@@std@@@std@@IAEX_WABV_Locinfo@1@@Z PROC ; std::time_get<char,std::istreambuf_iterator<char,std::char_traits<char> > >::_Getvals<wchar_t>, COMDAT
; _this$ = ecx

; 171  :     void __CLR_OR_THIS_CALL _Getvals(_Elem2, const _Locinfo& _Lobj) { // get values

	push	ebp
	mov	ebp, esp
	sub	esp, 256				; 00000100H
	push	ebx
	push	esi
	push	edi
	push	ecx
	lea	edi, DWORD PTR [ebp-64]
	mov	ecx, 16					; 00000010H
	mov	eax, -858993460				; ccccccccH
	rep stosd
	pop	ecx
	mov	DWORD PTR _this$[ebp], ecx
	mov	ecx, OFFSET __D96D2425_xloctime
	call	@__CheckForDebuggerJustMyCode@4

; 172  :         _Cvt = _Lobj._Getcvt();

	mov	esi, esp
	lea	eax, DWORD PTR $T1[ebp]
	push	eax
	mov	ecx, DWORD PTR __Lobj$[ebp]
	call	DWORD PTR __imp_?_Getcvt@_Locinfo@std@@QBE?AU_Cvtvec@@XZ
	cmp	esi, esp
	call	__RTC_CheckEsp
	mov	edi, DWORD PTR _this$[ebp]
	add	edi, 24					; 00000018H
	mov	ecx, 11					; 0000000bH
	mov	esi, eax
	rep movsd

; 173  : 
; 174  :         if (is_same_v<_Elem2, wchar_t>) {

	mov	eax, 1
	test	eax, eax
	je	SHORT $LN2@Getvals

; 175  :             _Days = reinterpret_cast<const _Elem*>(_Maklocwcs(reinterpret_cast<const wchar_t*>(_Lobj._W_Getdays())));

	mov	esi, esp
	mov	ecx, DWORD PTR __Lobj$[ebp]
	call	DWORD PTR __imp_?_W_Getdays@_Locinfo@std@@QBEPBGXZ
	cmp	esi, esp
	call	__RTC_CheckEsp
	push	eax
	call	?_Maklocwcs@std@@YAPA_WPB_W@Z		; std::_Maklocwcs
	add	esp, 4
	mov	ecx, DWORD PTR _this$[ebp]
	mov	DWORD PTR [ecx+8], eax

; 176  :             _Months =

	mov	esi, esp
	mov	ecx, DWORD PTR __Lobj$[ebp]
	call	DWORD PTR __imp_?_W_Getmonths@_Locinfo@std@@QBEPBGXZ
	cmp	esi, esp
	call	__RTC_CheckEsp
	push	eax
	call	?_Maklocwcs@std@@YAPA_WPB_W@Z		; std::_Maklocwcs
	add	esp, 4
	mov	ecx, DWORD PTR _this$[ebp]
	mov	DWORD PTR [ecx+12], eax

; 177  :                 reinterpret_cast<const _Elem*>(_Maklocwcs(reinterpret_cast<const wchar_t*>(_Lobj._W_Getmonths())));
; 178  :             _Ampm = reinterpret_cast<const _Elem*>(_Maklocwcs(L":AM:am:PM:pm"));

	push	OFFSET ??_C@_1BK@MHIKGOKE@?$AA?3?$AAA?$AAM?$AA?3?$AAa?$AAm?$AA?3?$AAP?$AAM?$AA?3?$AAp?$AAm@
	call	?_Maklocwcs@std@@YAPA_WPB_W@Z		; std::_Maklocwcs
	add	esp, 4
	mov	ecx, DWORD PTR _this$[ebp]
	mov	DWORD PTR [ecx+16], eax

; 179  :         } else {

	jmp	SHORT $LN1@Getvals
$LN2@Getvals:

; 180  :             _Days   = _Maklocstr(_Lobj._Getdays(), static_cast<_Elem*>(nullptr), _Cvt);

	mov	eax, DWORD PTR _this$[ebp]
	add	eax, 24					; 00000018H
	push	eax
	push	0
	mov	esi, esp
	mov	ecx, DWORD PTR __Lobj$[ebp]
	call	DWORD PTR __imp_?_Getdays@_Locinfo@std@@QBEPBDXZ
	cmp	esi, esp
	call	__RTC_CheckEsp
	push	eax
	call	??$_Maklocstr@D@std@@YAPADPBDPADABU_Cvtvec@@@Z ; std::_Maklocstr<char>
	add	esp, 12					; 0000000cH
	mov	ecx, DWORD PTR _this$[ebp]
	mov	DWORD PTR [ecx+8], eax

; 181  :             _Months = _Maklocstr(_Lobj._Getmonths(), static_cast<_Elem*>(nullptr), _Cvt);

	mov	eax, DWORD PTR _this$[ebp]
	add	eax, 24					; 00000018H
	push	eax
	push	0
	mov	esi, esp
	mov	ecx, DWORD PTR __Lobj$[ebp]
	call	DWORD PTR __imp_?_Getmonths@_Locinfo@std@@QBEPBDXZ
	cmp	esi, esp
	call	__RTC_CheckEsp
	push	eax
	call	??$_Maklocstr@D@std@@YAPADPBDPADABU_Cvtvec@@@Z ; std::_Maklocstr<char>
	add	esp, 12					; 0000000cH
	mov	ecx, DWORD PTR _this$[ebp]
	mov	DWORD PTR [ecx+12], eax

; 182  :             _Ampm   = _Maklocstr(":AM:am:PM:pm", static_cast<_Elem*>(nullptr), _Cvt);

	mov	eax, DWORD PTR _this$[ebp]
	add	eax, 24					; 00000018H
	push	eax
	push	0
	push	OFFSET ??_C@_0N@LPFKKEBD@?3AM?3am?3PM?3pm@
	call	??$_Maklocstr@D@std@@YAPADPBDPADABU_Cvtvec@@@Z ; std::_Maklocstr<char>
	add	esp, 12					; 0000000cH
	mov	ecx, DWORD PTR _this$[ebp]
	mov	DWORD PTR [ecx+16], eax
$LN1@Getvals:

; 183  :         }
; 184  :     }

	pop	edi
	pop	esi
	pop	ebx
	add	esp, 256				; 00000100H
	cmp	ebp, esp
	call	__RTC_CheckEsp
	mov	esp, ebp
	pop	ebp
	ret	8
??$_Getvals@_W@?$time_get@DV?$istreambuf_iterator@DU?$char_traits@D@std@@@std@@@std@@IAEX_WABV_Locinfo@1@@Z ENDP ; std::time_get<char,std::istreambuf_iterator<char,std::char_traits<char> > >::_Getvals<wchar_t>
_TEXT	ENDS
; Function compile flags: /Odtp /RTCsu /ZI
; File C:\Program Files (x86)\Microsoft Visual Studio\2019\Community\VC\Tools\MSVC\14.29.30133\include\xlocale
;	COMDAT ??$_Maklocstr@D@std@@YAPADPBDPADABU_Cvtvec@@@Z
_TEXT	SEGMENT
__Ptrnext$1 = -32					; size = 4
__Ptrdest$ = -20					; size = 4
__Count$ = -8						; size = 4
__Ptr$ = 8						; size = 4
___formal$ = 12						; size = 4
___formal$ = 16						; size = 4
??$_Maklocstr@D@std@@YAPADPBDPADABU_Cvtvec@@@Z PROC	; std::_Maklocstr<char>, COMDAT

; 513  : _Elem* __CRTDECL _Maklocstr(const char* _Ptr, _Elem*, const _Locinfo::_Cvtvec&) {

	push	ebp
	mov	ebp, esp
	sub	esp, 228				; 000000e4H
	push	ebx
	push	esi
	push	edi
	lea	edi, DWORD PTR [ebp-36]
	mov	ecx, 9
	mov	eax, -858993460				; ccccccccH
	rep stosd
	mov	ecx, OFFSET __D23FE460_xlocale
	call	@__CheckForDebuggerJustMyCode@4

; 514  :     // convert C string to _Elem sequence using _Cvtvec
; 515  :     size_t _Count = _CSTD strlen(_Ptr) + 1;

	mov	eax, DWORD PTR __Ptr$[ebp]
	push	eax
	call	_strlen
	add	esp, 4
	add	eax, 1
	mov	DWORD PTR __Count$[ebp], eax

; 516  : 
; 517  :     _Elem* _Ptrdest = static_cast<_Elem*>(_calloc_dbg(_Count, sizeof(_Elem), _CRT_BLOCK, __FILE__, __LINE__));

	mov	esi, esp
	push	517					; 00000205H
	push	OFFSET ??_C@_0GI@GFIAKDGM@C?3?2Program?5Files?5?$CIx86?$CJ?2Microsof@
	push	2
	push	1
	mov	eax, DWORD PTR __Count$[ebp]
	push	eax
	call	DWORD PTR __imp___calloc_dbg
	add	esp, 20					; 00000014H
	cmp	esi, esp
	call	__RTC_CheckEsp
	mov	DWORD PTR __Ptrdest$[ebp], eax

; 518  : 
; 519  :     if (!_Ptrdest) {

	cmp	DWORD PTR __Ptrdest$[ebp], 0
	jne	SHORT $LN5@Maklocstr

; 520  :         _Xbad_alloc();

	call	?_Xbad_alloc@std@@YAXXZ			; std::_Xbad_alloc
$LN5@Maklocstr:

; 521  :     }
; 522  : 
; 523  :     for (_Elem* _Ptrnext = _Ptrdest; 0 < _Count; --_Count, ++_Ptrnext, ++_Ptr) {

	mov	eax, DWORD PTR __Ptrdest$[ebp]
	mov	DWORD PTR __Ptrnext$1[ebp], eax
	jmp	SHORT $LN4@Maklocstr
$LN2@Maklocstr:
	mov	eax, DWORD PTR __Count$[ebp]
	sub	eax, 1
	mov	DWORD PTR __Count$[ebp], eax
	mov	ecx, DWORD PTR __Ptrnext$1[ebp]
	add	ecx, 1
	mov	DWORD PTR __Ptrnext$1[ebp], ecx
	mov	edx, DWORD PTR __Ptr$[ebp]
	add	edx, 1
	mov	DWORD PTR __Ptr$[ebp], edx
$LN4@Maklocstr:
	cmp	DWORD PTR __Count$[ebp], 0
	jbe	SHORT $LN3@Maklocstr

; 524  :         *_Ptrnext = static_cast<_Elem>(static_cast<unsigned char>(*_Ptr));

	mov	eax, DWORD PTR __Ptrnext$1[ebp]
	mov	ecx, DWORD PTR __Ptr$[ebp]
	mov	dl, BYTE PTR [ecx]
	mov	BYTE PTR [eax], dl

; 525  :     }

	jmp	SHORT $LN2@Maklocstr
$LN3@Maklocstr:

; 526  : 
; 527  :     return _Ptrdest;

	mov	eax, DWORD PTR __Ptrdest$[ebp]
$LN6@Maklocstr:

; 528  : }

	pop	edi
	pop	esi
	pop	ebx
	add	esp, 228				; 000000e4H
	cmp	ebp, esp
	call	__RTC_CheckEsp
	mov	esp, ebp
	pop	ebp
	ret	0
??$_Maklocstr@D@std@@YAPADPBDPADABU_Cvtvec@@@Z ENDP	; std::_Maklocstr<char>
_TEXT	ENDS
; Function compile flags: /Odtp /RTCsu /ZI
; File C:\Program Files (x86)\Microsoft Visual Studio\2019\Community\VC\Tools\MSVC\14.29.30133\include\xlocnum
;	COMDAT ?_Maklocwcs@std@@YAPA_WPB_W@Z
_TEXT	SEGMENT
__Ptrdest$ = -20					; size = 4
__Count$ = -8						; size = 4
__Ptr$ = 8						; size = 4
?_Maklocwcs@std@@YAPA_WPB_W@Z PROC			; std::_Maklocwcs, COMDAT

; 85   : inline wchar_t* _Maklocwcs(const wchar_t* _Ptr) { // copy NTWCS to allocated storage

	push	ebp
	mov	ebp, esp
	sub	esp, 216				; 000000d8H
	push	ebx
	push	esi
	push	edi
	lea	edi, DWORD PTR [ebp-24]
	mov	ecx, 6
	mov	eax, -858993460				; ccccccccH
	rep stosd
	mov	ecx, OFFSET __4CB88277_xlocnum
	call	@__CheckForDebuggerJustMyCode@4

; 86   :     const size_t _Count = _CSTD wcslen(_Ptr) + 1;

	mov	esi, esp
	mov	eax, DWORD PTR __Ptr$[ebp]
	push	eax
	call	DWORD PTR __imp__wcslen
	add	esp, 4
	cmp	esi, esp
	call	__RTC_CheckEsp
	add	eax, 1
	mov	DWORD PTR __Count$[ebp], eax

; 87   : 
; 88   :     wchar_t* _Ptrdest = static_cast<wchar_t*>(_calloc_dbg(_Count, sizeof(wchar_t), _CRT_BLOCK, __FILE__, __LINE__));

	mov	eax, DWORD PTR ?__LINE__Var@?0??_Maklocwcs@std@@YAPA_WPB_W@Z@4JA
	add	eax, 3
	mov	esi, esp
	push	eax
	push	OFFSET ??_C@_0GI@OGMNKBMN@C?3?2Program?5Files?5?$CIx86?$CJ?2Microsof@
	push	2
	push	2
	mov	ecx, DWORD PTR __Count$[ebp]
	push	ecx
	call	DWORD PTR __imp___calloc_dbg
	add	esp, 20					; 00000014H
	cmp	esi, esp
	call	__RTC_CheckEsp
	mov	DWORD PTR __Ptrdest$[ebp], eax

; 89   : 
; 90   :     if (!_Ptrdest) {

	cmp	DWORD PTR __Ptrdest$[ebp], 0
	jne	SHORT $LN2@Maklocwcs

; 91   :         _Xbad_alloc();

	call	?_Xbad_alloc@std@@YAXXZ			; std::_Xbad_alloc
$LN2@Maklocwcs:

; 92   :     }
; 93   : 
; 94   :     _CSTD wmemcpy(_Ptrdest, _Ptr, _Count);

	mov	eax, DWORD PTR __Count$[ebp]
	push	eax
	mov	ecx, DWORD PTR __Ptr$[ebp]
	push	ecx
	mov	edx, DWORD PTR __Ptrdest$[ebp]
	push	edx
	call	_wmemcpy
	add	esp, 12					; 0000000cH

; 95   :     return _Ptrdest;

	mov	eax, DWORD PTR __Ptrdest$[ebp]
$LN3@Maklocwcs:

; 96   : }

	pop	edi
	pop	esi
	pop	ebx
	add	esp, 216				; 000000d8H
	cmp	ebp, esp
	call	__RTC_CheckEsp
	mov	esp, ebp
	pop	ebp
	ret	0
?_Maklocwcs@std@@YAPA_WPB_W@Z ENDP			; std::_Maklocwcs
_TEXT	ENDS
; Function compile flags: /Odtp /RTCsu /ZI
; File C:\Program Files (x86)\Microsoft Visual Studio\2019\Community\VC\Tools\MSVC\14.29.30133\include\xlocale
;	COMDAT ??$_Maklocstr@_W@std@@YAPA_WPBDPA_WABU_Cvtvec@@@Z
_TEXT	SEGMENT
__Mbst2$ = -128						; size = 8
__Ptrnext$ = -112					; size = 4
__Ptrdest$ = -100					; size = 4
__Mbst1$ = -88						; size = 8
__Wc$ = -72						; size = 2
__Bytes$ = -60						; size = 4
__Ptr1$ = -48						; size = 4
__Wchars$ = -36						; size = 4
__Count1$ = -24						; size = 4
__Count$ = -12						; size = 4
__$ArrayPad$ = -4					; size = 4
__Ptr$ = 8						; size = 4
___formal$ = 12						; size = 4
__Cvt$ = 16						; size = 4
??$_Maklocstr@_W@std@@YAPA_WPBDPA_WABU_Cvtvec@@@Z PROC	; std::_Maklocstr<wchar_t>, COMDAT

; 531  : inline wchar_t* __CRTDECL _Maklocstr(const char* _Ptr, wchar_t*, const _Locinfo::_Cvtvec& _Cvt) {

	push	ebp
	mov	ebp, esp
	sub	esp, 324				; 00000144H
	push	ebx
	push	esi
	push	edi
	lea	edi, DWORD PTR [ebp-132]
	mov	ecx, 33					; 00000021H
	mov	eax, -858993460				; ccccccccH
	rep stosd
	mov	eax, DWORD PTR ___security_cookie
	xor	eax, ebp
	mov	DWORD PTR __$ArrayPad$[ebp], eax
	mov	ecx, OFFSET __D23FE460_xlocale
	call	@__CheckForDebuggerJustMyCode@4

; 532  :     // convert C string to wchar_t sequence using _Cvtvec
; 533  :     size_t _Count;
; 534  :     size_t _Count1;
; 535  :     size_t _Wchars;
; 536  :     const char* _Ptr1;
; 537  :     int _Bytes;
; 538  :     wchar_t _Wc;
; 539  :     mbstate_t _Mbst1 = {};

	xor	eax, eax
	mov	DWORD PTR __Mbst1$[ebp], eax
	mov	DWORD PTR __Mbst1$[ebp+4], eax

; 540  : 
; 541  :     _Count1 = _CSTD strlen(_Ptr) + 1;

	mov	eax, DWORD PTR __Ptr$[ebp]
	push	eax
	call	_strlen
	add	esp, 4
	add	eax, 1
	mov	DWORD PTR __Count1$[ebp], eax

; 542  :     for (_Count = _Count1, _Wchars = 0, _Ptr1 = _Ptr; 0 < _Count; _Count -= _Bytes, _Ptr1 += _Bytes, ++_Wchars) {

	mov	eax, DWORD PTR __Count1$[ebp]
	mov	DWORD PTR __Count$[ebp], eax
	mov	DWORD PTR __Wchars$[ebp], 0
	mov	ecx, DWORD PTR __Ptr$[ebp]
	mov	DWORD PTR __Ptr1$[ebp], ecx
	jmp	SHORT $LN4@Maklocstr
$LN2@Maklocstr:
	mov	eax, DWORD PTR __Count$[ebp]
	sub	eax, DWORD PTR __Bytes$[ebp]
	mov	DWORD PTR __Count$[ebp], eax
	mov	ecx, DWORD PTR __Ptr1$[ebp]
	add	ecx, DWORD PTR __Bytes$[ebp]
	mov	DWORD PTR __Ptr1$[ebp], ecx
	mov	edx, DWORD PTR __Wchars$[ebp]
	add	edx, 1
	mov	DWORD PTR __Wchars$[ebp], edx
$LN4@Maklocstr:
	cmp	DWORD PTR __Count$[ebp], 0
	jbe	SHORT $LN3@Maklocstr

; 543  :         if ((_Bytes = _Mbrtowc(&_Wc, _Ptr1, _Count, &_Mbst1, &_Cvt)) <= 0) {

	mov	eax, DWORD PTR __Cvt$[ebp]
	push	eax
	lea	ecx, DWORD PTR __Mbst1$[ebp]
	push	ecx
	mov	edx, DWORD PTR __Count$[ebp]
	push	edx
	mov	eax, DWORD PTR __Ptr1$[ebp]
	push	eax
	lea	ecx, DWORD PTR __Wc$[ebp]
	push	ecx
	call	__Mbrtowc
	add	esp, 20					; 00000014H
	mov	DWORD PTR __Bytes$[ebp], eax
	cmp	DWORD PTR __Bytes$[ebp], 0
	jg	SHORT $LN8@Maklocstr

; 544  :             break;

	jmp	SHORT $LN3@Maklocstr
$LN8@Maklocstr:

; 545  :         }
; 546  :     }

	jmp	SHORT $LN2@Maklocstr
$LN3@Maklocstr:

; 547  : 
; 548  :     ++_Wchars; // count terminating nul

	mov	eax, DWORD PTR __Wchars$[ebp]
	add	eax, 1
	mov	DWORD PTR __Wchars$[ebp], eax

; 549  : 
; 550  :     wchar_t* _Ptrdest = static_cast<wchar_t*>(_calloc_dbg(_Wchars, sizeof(wchar_t), _CRT_BLOCK, __FILE__, __LINE__));

	mov	esi, esp
	push	550					; 00000226H
	push	OFFSET ??_C@_0GI@GFIAKDGM@C?3?2Program?5Files?5?$CIx86?$CJ?2Microsof@
	push	2
	push	2
	mov	eax, DWORD PTR __Wchars$[ebp]
	push	eax
	call	DWORD PTR __imp___calloc_dbg
	add	esp, 20					; 00000014H
	cmp	esi, esp
	call	__RTC_CheckEsp
	mov	DWORD PTR __Ptrdest$[ebp], eax

; 551  : 
; 552  :     if (!_Ptrdest) {

	cmp	DWORD PTR __Ptrdest$[ebp], 0
	jne	SHORT $LN9@Maklocstr

; 553  :         _Xbad_alloc();

	call	?_Xbad_alloc@std@@YAXXZ			; std::_Xbad_alloc
$LN9@Maklocstr:

; 554  :     }
; 555  : 
; 556  :     wchar_t* _Ptrnext = _Ptrdest;

	mov	eax, DWORD PTR __Ptrdest$[ebp]
	mov	DWORD PTR __Ptrnext$[ebp], eax

; 557  :     mbstate_t _Mbst2  = {};

	xor	eax, eax
	mov	DWORD PTR __Mbst2$[ebp], eax
	mov	DWORD PTR __Mbst2$[ebp+4], eax

; 558  : 
; 559  :     for (; 0 < _Wchars; _Count -= _Bytes, _Ptr += _Bytes, --_Wchars, ++_Ptrnext) {

	jmp	SHORT $LN7@Maklocstr
$LN5@Maklocstr:
	mov	eax, DWORD PTR __Count$[ebp]
	sub	eax, DWORD PTR __Bytes$[ebp]
	mov	DWORD PTR __Count$[ebp], eax
	mov	ecx, DWORD PTR __Ptr$[ebp]
	add	ecx, DWORD PTR __Bytes$[ebp]
	mov	DWORD PTR __Ptr$[ebp], ecx
	mov	edx, DWORD PTR __Wchars$[ebp]
	sub	edx, 1
	mov	DWORD PTR __Wchars$[ebp], edx
	mov	eax, DWORD PTR __Ptrnext$[ebp]
	add	eax, 2
	mov	DWORD PTR __Ptrnext$[ebp], eax
$LN7@Maklocstr:
	cmp	DWORD PTR __Wchars$[ebp], 0
	jbe	SHORT $LN6@Maklocstr

; 560  :         if ((_Bytes = _Mbrtowc(_Ptrnext, _Ptr, _Count1, &_Mbst2, &_Cvt)) <= 0) {

	mov	eax, DWORD PTR __Cvt$[ebp]
	push	eax
	lea	ecx, DWORD PTR __Mbst2$[ebp]
	push	ecx
	mov	edx, DWORD PTR __Count1$[ebp]
	push	edx
	mov	eax, DWORD PTR __Ptr$[ebp]
	push	eax
	mov	ecx, DWORD PTR __Ptrnext$[ebp]
	push	ecx
	call	__Mbrtowc
	add	esp, 20					; 00000014H
	mov	DWORD PTR __Bytes$[ebp], eax
	cmp	DWORD PTR __Bytes$[ebp], 0
	jg	SHORT $LN10@Maklocstr

; 561  :             break;

	jmp	SHORT $LN6@Maklocstr
$LN10@Maklocstr:

; 562  :         }
; 563  :     }

	jmp	SHORT $LN5@Maklocstr
$LN6@Maklocstr:

; 564  : 
; 565  :     *_Ptrnext = L'\0';

	xor	eax, eax
	mov	ecx, DWORD PTR __Ptrnext$[ebp]
	mov	WORD PTR [ecx], ax

; 566  : 
; 567  :     return _Ptrdest;

	mov	eax, DWORD PTR __Ptrdest$[ebp]
$LN11@Maklocstr:

; 568  : }

	push	edx
	mov	ecx, ebp
	push	eax
	lea	edx, DWORD PTR $LN16@Maklocstr
	call	@_RTC_CheckStackVars@8
	pop	eax
	pop	edx
	pop	edi
	pop	esi
	pop	ebx
	mov	ecx, DWORD PTR __$ArrayPad$[ebp]
	xor	ecx, ebp
	call	@__security_check_cookie@4
	add	esp, 324				; 00000144H
	cmp	ebp, esp
	call	__RTC_CheckEsp
	mov	esp, ebp
	pop	ebp
	ret	0
	npad	1
$LN16@Maklocstr:
	DD	3
	DD	$LN15@Maklocstr
$LN15@Maklocstr:
	DD	-72					; ffffffb8H
	DD	2
	DD	$LN12@Maklocstr
	DD	-88					; ffffffa8H
	DD	8
	DD	$LN13@Maklocstr
	DD	-128					; ffffff80H
	DD	8
	DD	$LN14@Maklocstr
$LN14@Maklocstr:
	DB	95					; 0000005fH
	DB	77					; 0000004dH
	DB	98					; 00000062H
	DB	115					; 00000073H
	DB	116					; 00000074H
	DB	50					; 00000032H
	DB	0
$LN13@Maklocstr:
	DB	95					; 0000005fH
	DB	77					; 0000004dH
	DB	98					; 00000062H
	DB	115					; 00000073H
	DB	116					; 00000074H
	DB	49					; 00000031H
	DB	0
$LN12@Maklocstr:
	DB	95					; 0000005fH
	DB	87					; 00000057H
	DB	99					; 00000063H
	DB	0
??$_Maklocstr@_W@std@@YAPA_WPBDPA_WABU_Cvtvec@@@Z ENDP	; std::_Maklocstr<wchar_t>
_TEXT	ENDS
; Function compile flags: /Odtp /RTCsu /ZI
; File C:\Program Files (x86)\Microsoft Visual Studio\2019\Community\VC\Tools\MSVC\14.29.30133\include\xlocale
;	COMDAT ?_Badname@locale@std@@AAE_NABV_Locinfo@2@@Z
_TEXT	SEGMENT
tv70 = -208						; size = 4
_this$ = -8						; size = 4
__Lobj$ = 8						; size = 4
?_Badname@locale@std@@AAE_NABV_Locinfo@2@@Z PROC	; std::locale::_Badname, COMDAT
; _this$ = ecx

; 406  :     bool _Badname(const _Locinfo& _Lobj) { // test if name is "*"

	push	ebp
	mov	ebp, esp
	sub	esp, 208				; 000000d0H
	push	ebx
	push	esi
	push	edi
	push	ecx
	lea	edi, DWORD PTR [ebp-16]
	mov	ecx, 4
	mov	eax, -858993460				; ccccccccH
	rep stosd
	pop	ecx
	mov	DWORD PTR _this$[ebp], ecx
	mov	ecx, OFFSET __D23FE460_xlocale
	call	@__CheckForDebuggerJustMyCode@4

; 407  :         return _CSTD strcmp(_Lobj._Getname(), "*") == 0;

	push	OFFSET ??_C@_01NBENCBCI@?$CK@
	mov	esi, esp
	mov	ecx, DWORD PTR __Lobj$[ebp]
	call	DWORD PTR __imp_?_Getname@_Locinfo@std@@QBEPBDXZ
	cmp	esi, esp
	call	__RTC_CheckEsp
	push	eax
	call	_strcmp
	add	esp, 8
	test	eax, eax
	jne	SHORT $LN3@Badname
	mov	DWORD PTR tv70[ebp], 1
	jmp	SHORT $LN4@Badname
$LN3@Badname:
	mov	DWORD PTR tv70[ebp], 0
$LN4@Badname:
	mov	al, BYTE PTR tv70[ebp]

; 408  :     }

	pop	edi
	pop	esi
	pop	ebx
	add	esp, 208				; 000000d0H
	cmp	ebp, esp
	call	__RTC_CheckEsp
	mov	esp, ebp
	pop	ebp
	ret	4
?_Badname@locale@std@@AAE_NABV_Locinfo@2@@Z ENDP	; std::locale::_Badname
_TEXT	ENDS
; Function compile flags: /Odtp /RTCsu /ZI
; File C:\Program Files (x86)\Microsoft Visual Studio\2019\Community\VC\Tools\MSVC\14.29.30133\include\xlocale
;	COMDAT ??1locale@std@@QAE@XZ
_TEXT	SEGMENT
tv84 = -220						; size = 4
$T1 = -212						; size = 4
_this$ = -8						; size = 4
??1locale@std@@QAE@XZ PROC				; std::locale::~locale, COMDAT
; _this$ = ecx

; 345  :     ~locale() noexcept {

	push	ebp
	mov	ebp, esp
	sub	esp, 220				; 000000dcH
	push	ebx
	push	esi
	push	edi
	push	ecx
	lea	edi, DWORD PTR [ebp-28]
	mov	ecx, 7
	mov	eax, -858993460				; ccccccccH
	rep stosd
	pop	ecx
	mov	DWORD PTR _this$[ebp], ecx
	mov	ecx, OFFSET __D23FE460_xlocale
	call	@__CheckForDebuggerJustMyCode@4

; 346  :         if (_Ptr) {

	mov	eax, DWORD PTR _this$[ebp]
	cmp	DWORD PTR [eax+4], 0
	je	SHORT $LN3@locale

; 347  :             delete _Ptr->_Decref();

	mov	eax, DWORD PTR _this$[ebp]
	mov	ecx, DWORD PTR [eax+4]
	mov	edx, DWORD PTR _this$[ebp]
	mov	eax, DWORD PTR [ecx]
	mov	esi, esp
	mov	ecx, DWORD PTR [edx+4]
	mov	edx, DWORD PTR [eax+8]
	call	edx
	cmp	esi, esp
	call	__RTC_CheckEsp
	mov	DWORD PTR $T1[ebp], eax
	cmp	DWORD PTR $T1[ebp], 0
	je	SHORT $LN4@locale
	mov	esi, esp
	push	1
	mov	eax, DWORD PTR $T1[ebp]
	mov	edx, DWORD PTR [eax]
	mov	ecx, DWORD PTR $T1[ebp]
	mov	eax, DWORD PTR [edx]
	call	eax
	cmp	esi, esp
	call	__RTC_CheckEsp
	mov	DWORD PTR tv84[ebp], eax
	jmp	SHORT $LN3@locale
$LN4@locale:
	mov	DWORD PTR tv84[ebp], 0
$LN3@locale:

; 348  :         }
; 349  :     }

	pop	edi
	pop	esi
	pop	ebx
	add	esp, 220				; 000000dcH
	cmp	ebp, esp
	call	__RTC_CheckEsp
	mov	esp, ebp
	pop	ebp
	ret	0
??1locale@std@@QAE@XZ ENDP				; std::locale::~locale
_TEXT	ENDS
; Function compile flags: /Odtp /RTCsu /ZI
; File C:\Program Files (x86)\Microsoft Visual Studio\2019\Community\VC\Tools\MSVC\14.29.30133\include\xlocale
;	COMDAT ??0locale@std@@QAE@PBDH@Z
_TEXT	SEGMENT
$T2 = -248						; size = 28
_this$ = -20						; size = 4
__$EHRec$ = -12						; size = 12
__Locname$ = 8						; size = 4
__Cat$ = 12						; size = 4
??0locale@std@@QAE@PBDH@Z PROC				; std::locale::locale, COMDAT
; _this$ = ecx

; 310  :     explicit locale(const char* _Locname, category _Cat = all) : _Ptr(_Locimp::_New_Locimp()) {

	push	ebp
	mov	ebp, esp
	push	-1
	push	__ehhandler$??0locale@std@@QAE@PBDH@Z
	mov	eax, DWORD PTR fs:0
	push	eax
	sub	esp, 240				; 000000f0H
	push	ebx
	push	esi
	push	edi
	push	ecx
	lea	edi, DWORD PTR [ebp-60]
	mov	ecx, 12					; 0000000cH
	mov	eax, -858993460				; ccccccccH
	rep stosd
	pop	ecx
	mov	eax, DWORD PTR ___security_cookie
	xor	eax, ebp
	push	eax
	lea	eax, DWORD PTR __$EHRec$[ebp]
	mov	DWORD PTR fs:0, eax
	mov	DWORD PTR _this$[ebp], ecx
	mov	ecx, OFFSET __D23FE460_xlocale
	call	@__CheckForDebuggerJustMyCode@4
	mov	esi, esp
	push	0
	call	DWORD PTR __imp_?_New_Locimp@_Locimp@locale@std@@CAPAV123@_N@Z
	add	esp, 4
	cmp	esi, esp
	call	__RTC_CheckEsp
	mov	ecx, DWORD PTR _this$[ebp]
	mov	DWORD PTR [ecx+4], eax

; 311  :         // construct a locale with named facets
; 312  :         // _Locname might have been returned from setlocale().
; 313  :         // Therefore, _Construct() takes const string&.
; 314  :         if (_Locname) {

	cmp	DWORD PTR __Locname$[ebp], 0
	je	SHORT $LN2@locale

; 315  :             _Construct(_Locname, _Cat);

	mov	eax, DWORD PTR __Locname$[ebp]
	push	eax
	lea	ecx, DWORD PTR $T2[ebp]
	call	??0?$basic_string@DU?$char_traits@D@std@@V?$allocator@D@2@@std@@QAE@QBD@Z ; std::basic_string<char,std::char_traits<char>,std::allocator<char> >::basic_string<char,std::char_traits<char>,std::allocator<char> >
	mov	DWORD PTR __$EHRec$[ebp+8], 0
	mov	ecx, DWORD PTR __Cat$[ebp]
	push	ecx
	lea	edx, DWORD PTR $T2[ebp]
	push	edx
	mov	ecx, DWORD PTR _this$[ebp]
	call	?_Construct@locale@std@@AAEXABV?$basic_string@DU?$char_traits@D@std@@V?$allocator@D@2@@2@H@Z ; std::locale::_Construct
	mov	DWORD PTR __$EHRec$[ebp+8], -1
	lea	ecx, DWORD PTR $T2[ebp]
	call	??1?$basic_string@DU?$char_traits@D@std@@V?$allocator@D@2@@std@@QAE@XZ ; std::basic_string<char,std::char_traits<char>,std::allocator<char> >::~basic_string<char,std::char_traits<char>,std::allocator<char> >

; 316  :             return;

	jmp	SHORT $LN1@locale
$LN2@locale:

; 317  :         }
; 318  : 
; 319  :         _Xruntime_error("bad locale name");

	push	OFFSET ??_C@_0BA@ELKIONDK@bad?5locale?5name@
	call	?_Xruntime_error@std@@YAXPBD@Z		; std::_Xruntime_error
$LN1@locale:

; 320  :     }

	mov	eax, DWORD PTR _this$[ebp]
$LN3@locale:
	mov	ecx, DWORD PTR __$EHRec$[ebp]
	mov	DWORD PTR fs:0, ecx
	pop	ecx
	pop	edi
	pop	esi
	pop	ebx
	add	esp, 252				; 000000fcH
	cmp	ebp, esp
	call	__RTC_CheckEsp
	mov	esp, ebp
	pop	ebp
	ret	8
_TEXT	ENDS
;	COMDAT text$x
text$x	SEGMENT
__unwindfunclet$??0locale@std@@QAE@PBDH@Z$0:
	lea	ecx, DWORD PTR $T2[ebp]
	jmp	??1?$basic_string@DU?$char_traits@D@std@@V?$allocator@D@2@@std@@QAE@XZ ; std::basic_string<char,std::char_traits<char>,std::allocator<char> >::~basic_string<char,std::char_traits<char>,std::allocator<char> >
	int	3
	int	3
	int	3
	int	3
	int	3
__ehhandler$??0locale@std@@QAE@PBDH@Z:
	npad	1
	npad	1
	mov	edx, DWORD PTR [esp+8]
	lea	eax, DWORD PTR [edx+12]
	mov	ecx, DWORD PTR [edx-256]
	xor	ecx, eax
	call	@__security_check_cookie@4
	mov	eax, OFFSET __ehfuncinfo$??0locale@std@@QAE@PBDH@Z
	jmp	___CxxFrameHandler3
text$x	ENDS
??0locale@std@@QAE@PBDH@Z ENDP				; std::locale::locale
; Function compile flags: /Odtp /RTCsu /ZI
; File C:\Program Files (x86)\Microsoft Visual Studio\2019\Community\VC\Tools\MSVC\14.29.30133\include\xlocale
;	COMDAT ?_Construct@locale@std@@AAEXABV?$basic_string@DU?$char_traits@D@std@@V?$allocator@D@2@@2@H@Z
_TEXT	SEGMENT
tv149 = -320						; size = 4
$T2 = -312						; size = 4
__Lobj$3 = -108						; size = 52
__Guard$4 = -48						; size = 4
__Bad$ = -33						; size = 1
_this$ = -24						; size = 4
__$ArrayPad$ = -16					; size = 4
__$EHRec$ = -12						; size = 12
__Str$ = 8						; size = 4
__Cat$ = 12						; size = 4
?_Construct@locale@std@@AAEXABV?$basic_string@DU?$char_traits@D@std@@V?$allocator@D@2@@2@H@Z PROC ; std::locale::_Construct, COMDAT
; _this$ = ecx

; 285  :     void _Construct(const string& _Str, category _Cat) {

	push	ebp
	mov	ebp, esp
	push	-1
	push	__ehhandler$?_Construct@locale@std@@AAEXABV?$basic_string@DU?$char_traits@D@std@@V?$allocator@D@2@@2@H@Z
	mov	eax, DWORD PTR fs:0
	push	eax
	sub	esp, 308				; 00000134H
	push	ebx
	push	esi
	push	edi
	push	ecx
	lea	edi, DWORD PTR [ebp-128]
	mov	ecx, 29					; 0000001dH
	mov	eax, -858993460				; ccccccccH
	rep stosd
	pop	ecx
	mov	eax, DWORD PTR ___security_cookie
	xor	eax, ebp
	mov	DWORD PTR __$ArrayPad$[ebp], eax
	push	eax
	lea	eax, DWORD PTR __$EHRec$[ebp]
	mov	DWORD PTR fs:0, eax
	mov	DWORD PTR _this$[ebp], ecx
	mov	ecx, OFFSET __D23FE460_xlocale
	call	@__CheckForDebuggerJustMyCode@4

; 286  :         // construct a locale with named facets
; 287  :         bool _Bad = false;

	mov	BYTE PTR __Bad$[ebp], 0

; 288  :         _Init();

	push	0
	call	?_Init@locale@std@@CAPAV_Locimp@12@_N@Z	; std::locale::_Init
	add	esp, 4

; 289  :         if (_Cat != none) { // worth adding, do it

	cmp	DWORD PTR __Cat$[ebp], 0
	je	$LN2@Construct

; 290  :             _Facet_guard _Guard{_Ptr};

	mov	eax, DWORD PTR _this$[ebp]
	mov	ecx, DWORD PTR [eax+4]
	mov	DWORD PTR __Guard$4[ebp], ecx
	mov	DWORD PTR __$EHRec$[ebp+8], 0

; 291  :             _BEGIN_LOCINFO(_Lobj(_Cat, _Str.c_str()))

	mov	ecx, DWORD PTR __Str$[ebp]
	call	?c_str@?$basic_string@DU?$char_traits@D@std@@V?$allocator@D@2@@std@@QBEPBDXZ ; std::basic_string<char,std::char_traits<char>,std::allocator<char> >::c_str
	mov	esi, esp
	push	eax
	mov	eax, DWORD PTR __Cat$[ebp]
	push	eax
	lea	ecx, DWORD PTR __Lobj$3[ebp]
	call	DWORD PTR __imp_??0_Locinfo@std@@QAE@HPBD@Z
	cmp	esi, esp
	call	__RTC_CheckEsp
	mov	BYTE PTR __$EHRec$[ebp+8], 1

; 292  :             if (_Badname(_Lobj)) {

	lea	eax, DWORD PTR __Lobj$3[ebp]
	push	eax
	mov	ecx, DWORD PTR _this$[ebp]
	call	?_Badname@locale@std@@AAE_NABV_Locinfo@2@@Z ; std::locale::_Badname
	movzx	ecx, al
	test	ecx, ecx
	je	SHORT $LN3@Construct

; 293  :                 _Bad = true;

	mov	BYTE PTR __Bad$[ebp], 1

; 294  :             } else { // name okay, build the locale

	jmp	SHORT $LN4@Construct
$LN3@Construct:

; 295  :                 _Locimp::_Makeloc(_Lobj, _Cat, _Ptr, nullptr);

	mov	esi, esp
	push	0
	mov	eax, DWORD PTR _this$[ebp]
	mov	ecx, DWORD PTR [eax+4]
	push	ecx
	mov	edx, DWORD PTR __Cat$[ebp]
	push	edx
	lea	eax, DWORD PTR __Lobj$3[ebp]
	push	eax
	call	DWORD PTR __imp_?_Makeloc@_Locimp@locale@std@@CAPAV123@ABV_Locinfo@3@HPAV123@PBV23@@Z
	add	esp, 16					; 00000010H
	cmp	esi, esp
	call	__RTC_CheckEsp

; 296  :                 _Ptr->_Catmask = _Cat;

	mov	eax, DWORD PTR _this$[ebp]
	mov	ecx, DWORD PTR [eax+4]
	mov	edx, DWORD PTR __Cat$[ebp]
	mov	DWORD PTR [ecx+16], edx

; 297  :                 _Ptr->_Name    = _Str.c_str();

	mov	ecx, DWORD PTR __Str$[ebp]
	call	?c_str@?$basic_string@DU?$char_traits@D@std@@V?$allocator@D@2@@std@@QBEPBDXZ ; std::basic_string<char,std::char_traits<char>,std::allocator<char> >::c_str
	mov	esi, esp
	push	eax
	mov	eax, DWORD PTR _this$[ebp]
	mov	ecx, DWORD PTR [eax+4]
	add	ecx, 24					; 00000018H
	call	DWORD PTR __imp_??4?$_Yarn@D@std@@QAEAAV01@PBD@Z
	cmp	esi, esp
	call	__RTC_CheckEsp
$LN4@Construct:

; 298  :             }
; 299  :             _END_LOCINFO()

	mov	BYTE PTR __$EHRec$[ebp+8], 0
	mov	esi, esp
	lea	ecx, DWORD PTR __Lobj$3[ebp]
	call	DWORD PTR __imp_??1_Locinfo@std@@QAE@XZ
	cmp	esi, esp
	call	__RTC_CheckEsp

; 300  :             _Guard._Target = nullptr;

	mov	DWORD PTR __Guard$4[ebp], 0

; 301  :         }

	mov	DWORD PTR __$EHRec$[ebp+8], -1
	lea	ecx, DWORD PTR __Guard$4[ebp]
	call	??1_Facet_guard@locale@std@@QAE@XZ	; std::locale::_Facet_guard::~_Facet_guard
$LN2@Construct:

; 302  : 
; 303  :         if (_Bad) { // Don't throw within _BEGIN_LOCINFO if we can avoid it

	movzx	eax, BYTE PTR __Bad$[ebp]
	test	eax, eax
	je	SHORT $LN6@Construct

; 304  :             delete _Ptr->_Decref();

	mov	eax, DWORD PTR _this$[ebp]
	mov	ecx, DWORD PTR [eax+4]
	mov	edx, DWORD PTR _this$[ebp]
	mov	eax, DWORD PTR [ecx]
	mov	esi, esp
	mov	ecx, DWORD PTR [edx+4]
	mov	edx, DWORD PTR [eax+8]
	call	edx
	cmp	esi, esp
	call	__RTC_CheckEsp
	mov	DWORD PTR $T2[ebp], eax
	cmp	DWORD PTR $T2[ebp], 0
	je	SHORT $LN7@Construct
	mov	esi, esp
	push	1
	mov	eax, DWORD PTR $T2[ebp]
	mov	edx, DWORD PTR [eax]
	mov	ecx, DWORD PTR $T2[ebp]
	mov	eax, DWORD PTR [edx]
	call	eax
	cmp	esi, esp
	call	__RTC_CheckEsp
	mov	DWORD PTR tv149[ebp], eax
	jmp	SHORT $LN8@Construct
$LN7@Construct:
	mov	DWORD PTR tv149[ebp], 0
$LN8@Construct:

; 305  :             _Xruntime_error("bad locale name");

	push	OFFSET ??_C@_0BA@ELKIONDK@bad?5locale?5name@
	call	?_Xruntime_error@std@@YAXPBD@Z		; std::_Xruntime_error
$LN6@Construct:

; 306  :         }
; 307  :     }

	push	edx
	mov	ecx, ebp
	push	eax
	lea	edx, DWORD PTR $LN15@Construct
	call	@_RTC_CheckStackVars@8
	pop	eax
	pop	edx
	mov	ecx, DWORD PTR __$EHRec$[ebp]
	mov	DWORD PTR fs:0, ecx
	pop	ecx
	pop	edi
	pop	esi
	pop	ebx
	mov	ecx, DWORD PTR __$ArrayPad$[ebp]
	xor	ecx, ebp
	call	@__security_check_cookie@4
	add	esp, 320				; 00000140H
	cmp	ebp, esp
	call	__RTC_CheckEsp
	mov	esp, ebp
	pop	ebp
	ret	8
$LN15@Construct:
	DD	2
	DD	$LN14@Construct
$LN14@Construct:
	DD	-48					; ffffffd0H
	DD	4
	DD	$LN11@Construct
	DD	-108					; ffffff94H
	DD	52					; 00000034H
	DD	$LN12@Construct
$LN12@Construct:
	DB	95					; 0000005fH
	DB	76					; 0000004cH
	DB	111					; 0000006fH
	DB	98					; 00000062H
	DB	106					; 0000006aH
	DB	0
$LN11@Construct:
	DB	95					; 0000005fH
	DB	71					; 00000047H
	DB	117					; 00000075H
	DB	97					; 00000061H
	DB	114					; 00000072H
	DB	100					; 00000064H
	DB	0
_TEXT	ENDS
;	COMDAT text$x
text$x	SEGMENT
__unwindfunclet$?_Construct@locale@std@@AAEXABV?$basic_string@DU?$char_traits@D@std@@V?$allocator@D@2@@2@H@Z$0:
	lea	ecx, DWORD PTR __Guard$4[ebp]
	jmp	??1_Facet_guard@locale@std@@QAE@XZ	; std::locale::_Facet_guard::~_Facet_guard
__unwindfunclet$?_Construct@locale@std@@AAEXABV?$basic_string@DU?$char_traits@D@std@@V?$allocator@D@2@@2@H@Z$1:
	mov	esi, esp
	lea	ecx, DWORD PTR __Lobj$3[ebp]
	call	DWORD PTR __imp_??1_Locinfo@std@@QAE@XZ
	cmp	esi, esp
	jmp	__RTC_CheckEsp
	int	3
	int	3
	int	3
	int	3
	int	3
__ehhandler$?_Construct@locale@std@@AAEXABV?$basic_string@DU?$char_traits@D@std@@V?$allocator@D@2@@2@H@Z:
	npad	1
	npad	1
	mov	edx, DWORD PTR [esp+8]
	lea	eax, DWORD PTR [edx+12]
	mov	ecx, DWORD PTR [edx-324]
	xor	ecx, eax
	call	@__security_check_cookie@4
	mov	ecx, DWORD PTR [edx-4]
	xor	ecx, eax
	call	@__security_check_cookie@4
	mov	eax, OFFSET __ehfuncinfo$?_Construct@locale@std@@AAEXABV?$basic_string@DU?$char_traits@D@std@@V?$allocator@D@2@@2@H@Z
	jmp	___CxxFrameHandler3
text$x	ENDS
?_Construct@locale@std@@AAEXABV?$basic_string@DU?$char_traits@D@std@@V?$allocator@D@2@@2@H@Z ENDP ; std::locale::_Construct
; Function compile flags: /Odtp /RTCsu /ZI
; File C:\Program Files (x86)\Microsoft Visual Studio\2019\Community\VC\Tools\MSVC\14.29.30133\include\xlocale
;	COMDAT ??1_Facet_guard@locale@std@@QAE@XZ
_TEXT	SEGMENT
tv84 = -220						; size = 4
$T1 = -212						; size = 4
_this$ = -8						; size = 4
??1_Facet_guard@locale@std@@QAE@XZ PROC			; std::locale::_Facet_guard::~_Facet_guard, COMDAT
; _this$ = ecx

; 160  :         ~_Facet_guard() {

	push	ebp
	mov	ebp, esp
	sub	esp, 220				; 000000dcH
	push	ebx
	push	esi
	push	edi
	push	ecx
	lea	edi, DWORD PTR [ebp-28]
	mov	ecx, 7
	mov	eax, -858993460				; ccccccccH
	rep stosd
	pop	ecx
	mov	DWORD PTR _this$[ebp], ecx
	mov	ecx, OFFSET __D23FE460_xlocale
	call	@__CheckForDebuggerJustMyCode@4

; 161  :             if (_Target) {

	mov	eax, DWORD PTR _this$[ebp]
	cmp	DWORD PTR [eax], 0
	je	SHORT $LN3@Facet_guar

; 162  :                 delete _Target->_Decref();

	mov	eax, DWORD PTR _this$[ebp]
	mov	ecx, DWORD PTR [eax]
	mov	edx, DWORD PTR _this$[ebp]
	mov	eax, DWORD PTR [ecx]
	mov	esi, esp
	mov	ecx, DWORD PTR [edx]
	mov	edx, DWORD PTR [eax+8]
	call	edx
	cmp	esi, esp
	call	__RTC_CheckEsp
	mov	DWORD PTR $T1[ebp], eax
	cmp	DWORD PTR $T1[ebp], 0
	je	SHORT $LN4@Facet_guar
	mov	esi, esp
	push	1
	mov	eax, DWORD PTR $T1[ebp]
	mov	edx, DWORD PTR [eax]
	mov	ecx, DWORD PTR $T1[ebp]
	mov	eax, DWORD PTR [edx]
	call	eax
	cmp	esi, esp
	call	__RTC_CheckEsp
	mov	DWORD PTR tv84[ebp], eax
	jmp	SHORT $LN3@Facet_guar
$LN4@Facet_guar:
	mov	DWORD PTR tv84[ebp], 0
$LN3@Facet_guar:

; 163  :             }
; 164  :         }

	pop	edi
	pop	esi
	pop	ebx
	add	esp, 220				; 000000dcH
	cmp	ebp, esp
	call	__RTC_CheckEsp
	mov	esp, ebp
	pop	ebp
	ret	0
??1_Facet_guard@locale@std@@QAE@XZ ENDP			; std::locale::_Facet_guard::~_Facet_guard
_TEXT	ENDS
; Function compile flags: /Odtp /RTCsu /ZI
;	COMDAT ??1?$_Compressed_pair@V?$allocator@_U@std@@V?$_String_val@U?$_Simple_types@_U@std@@@2@$00@std@@QAE@XZ
_TEXT	SEGMENT
_this$ = -8						; size = 4
??1?$_Compressed_pair@V?$allocator@_U@std@@V?$_String_val@U?$_Simple_types@_U@std@@@2@$00@std@@QAE@XZ PROC ; std::_Compressed_pair<std::allocator<char32_t>,std::_String_val<std::_Simple_types<char32_t> >,1>::~_Compressed_pair<std::allocator<char32_t>,std::_String_val<std::_Simple_types<char32_t> >,1>, COMDAT
; _this$ = ecx
	push	ebp
	mov	ebp, esp
	sub	esp, 204				; 000000ccH
	push	ebx
	push	esi
	push	edi
	push	ecx
	lea	edi, DWORD PTR [ebp-12]
	mov	ecx, 3
	mov	eax, -858993460				; ccccccccH
	rep stosd
	pop	ecx
	mov	DWORD PTR _this$[ebp], ecx
	mov	ecx, DWORD PTR _this$[ebp]
	call	??1?$_String_val@U?$_Simple_types@_U@std@@@std@@QAE@XZ
	pop	edi
	pop	esi
	pop	ebx
	add	esp, 204				; 000000ccH
	cmp	ebp, esp
	call	__RTC_CheckEsp
	mov	esp, ebp
	pop	ebp
	ret	0
??1?$_Compressed_pair@V?$allocator@_U@std@@V?$_String_val@U?$_Simple_types@_U@std@@@2@$00@std@@QAE@XZ ENDP ; std::_Compressed_pair<std::allocator<char32_t>,std::_String_val<std::_Simple_types<char32_t> >,1>::~_Compressed_pair<std::allocator<char32_t>,std::_String_val<std::_Simple_types<char32_t> >,1>
_TEXT	ENDS
; Function compile flags: /Odtp /RTCsu /ZI
; File C:\Program Files (x86)\Microsoft Visual Studio\2019\Community\VC\Tools\MSVC\14.29.30133\include\xmemory
;	COMDAT ?_Get_first@?$_Compressed_pair@V?$allocator@_U@std@@V?$_String_val@U?$_Simple_types@_U@std@@@2@$00@std@@QBEABV?$allocator@_U@2@XZ
_TEXT	SEGMENT
_this$ = -8						; size = 4
?_Get_first@?$_Compressed_pair@V?$allocator@_U@std@@V?$_String_val@U?$_Simple_types@_U@std@@@2@$00@std@@QBEABV?$allocator@_U@2@XZ PROC ; std::_Compressed_pair<std::allocator<char32_t>,std::_String_val<std::_Simple_types<char32_t> >,1>::_Get_first, COMDAT
; _this$ = ecx

; 1342 :     constexpr const _Ty1& _Get_first() const noexcept {

	push	ebp
	mov	ebp, esp
	sub	esp, 204				; 000000ccH
	push	ebx
	push	esi
	push	edi
	push	ecx
	lea	edi, DWORD PTR [ebp-12]
	mov	ecx, 3
	mov	eax, -858993460				; ccccccccH
	rep stosd
	pop	ecx
	mov	DWORD PTR _this$[ebp], ecx
	mov	ecx, OFFSET __79D216CD_xmemory
	call	@__CheckForDebuggerJustMyCode@4

; 1343 :         return *this;

	mov	eax, DWORD PTR _this$[ebp]

; 1344 :     }

	pop	edi
	pop	esi
	pop	ebx
	add	esp, 204				; 000000ccH
	cmp	ebp, esp
	call	__RTC_CheckEsp
	mov	esp, ebp
	pop	ebp
	ret	0
?_Get_first@?$_Compressed_pair@V?$allocator@_U@std@@V?$_String_val@U?$_Simple_types@_U@std@@@2@$00@std@@QBEABV?$allocator@_U@2@XZ ENDP ; std::_Compressed_pair<std::allocator<char32_t>,std::_String_val<std::_Simple_types<char32_t> >,1>::_Get_first
_TEXT	ENDS
; Function compile flags: /Odtp /RTCsu /ZI
; File C:\Program Files (x86)\Microsoft Visual Studio\2019\Community\VC\Tools\MSVC\14.29.30133\include\xmemory
;	COMDAT ?_Get_first@?$_Compressed_pair@V?$allocator@_U@std@@V?$_String_val@U?$_Simple_types@_U@std@@@2@$00@std@@QAEAAV?$allocator@_U@2@XZ
_TEXT	SEGMENT
_this$ = -8						; size = 4
?_Get_first@?$_Compressed_pair@V?$allocator@_U@std@@V?$_String_val@U?$_Simple_types@_U@std@@@2@$00@std@@QAEAAV?$allocator@_U@2@XZ PROC ; std::_Compressed_pair<std::allocator<char32_t>,std::_String_val<std::_Simple_types<char32_t> >,1>::_Get_first, COMDAT
; _this$ = ecx

; 1338 :     constexpr _Ty1& _Get_first() noexcept {

	push	ebp
	mov	ebp, esp
	sub	esp, 204				; 000000ccH
	push	ebx
	push	esi
	push	edi
	push	ecx
	lea	edi, DWORD PTR [ebp-12]
	mov	ecx, 3
	mov	eax, -858993460				; ccccccccH
	rep stosd
	pop	ecx
	mov	DWORD PTR _this$[ebp], ecx
	mov	ecx, OFFSET __79D216CD_xmemory
	call	@__CheckForDebuggerJustMyCode@4

; 1339 :         return *this;

	mov	eax, DWORD PTR _this$[ebp]

; 1340 :     }

	pop	edi
	pop	esi
	pop	ebx
	add	esp, 204				; 000000ccH
	cmp	ebp, esp
	call	__RTC_CheckEsp
	mov	esp, ebp
	pop	ebp
	ret	0
?_Get_first@?$_Compressed_pair@V?$allocator@_U@std@@V?$_String_val@U?$_Simple_types@_U@std@@@2@$00@std@@QAEAAV?$allocator@_U@2@XZ ENDP ; std::_Compressed_pair<std::allocator<char32_t>,std::_String_val<std::_Simple_types<char32_t> >,1>::_Get_first
_TEXT	ENDS
; Function compile flags: /Odtp /RTCsu /ZI
; File C:\Program Files (x86)\Microsoft Visual Studio\2019\Community\VC\Tools\MSVC\14.29.30133\include\xstring
;	COMDAT ?_Getal@?$basic_string@_UU?$char_traits@_U@std@@V?$allocator@_U@2@@std@@ABEABV?$allocator@_U@2@XZ
_TEXT	SEGMENT
_this$ = -8						; size = 4
?_Getal@?$basic_string@_UU?$char_traits@_U@std@@V?$allocator@_U@2@@std@@ABEABV?$allocator@_U@2@XZ PROC ; std::basic_string<char32_t,std::char_traits<char32_t>,std::allocator<char32_t> >::_Getal, COMDAT
; _this$ = ecx

; 4620 :     _CONSTEXPR20_CONTAINER const _Alty& _Getal() const noexcept {

	push	ebp
	mov	ebp, esp
	sub	esp, 204				; 000000ccH
	push	ebx
	push	esi
	push	edi
	push	ecx
	lea	edi, DWORD PTR [ebp-12]
	mov	ecx, 3
	mov	eax, -858993460				; ccccccccH
	rep stosd
	pop	ecx
	mov	DWORD PTR _this$[ebp], ecx
	mov	ecx, OFFSET __0D019051_xstring
	call	@__CheckForDebuggerJustMyCode@4

; 4621 :         return _Mypair._Get_first();

	mov	ecx, DWORD PTR _this$[ebp]
	call	?_Get_first@?$_Compressed_pair@V?$allocator@_U@std@@V?$_String_val@U?$_Simple_types@_U@std@@@2@$00@std@@QBEABV?$allocator@_U@2@XZ ; std::_Compressed_pair<std::allocator<char32_t>,std::_String_val<std::_Simple_types<char32_t> >,1>::_Get_first

; 4622 :     }

	pop	edi
	pop	esi
	pop	ebx
	add	esp, 204				; 000000ccH
	cmp	ebp, esp
	call	__RTC_CheckEsp
	mov	esp, ebp
	pop	ebp
	ret	0
?_Getal@?$basic_string@_UU?$char_traits@_U@std@@V?$allocator@_U@2@@std@@ABEABV?$allocator@_U@2@XZ ENDP ; std::basic_string<char32_t,std::char_traits<char32_t>,std::allocator<char32_t> >::_Getal
_TEXT	ENDS
; Function compile flags: /Odtp /RTCsu /ZI
; File C:\Program Files (x86)\Microsoft Visual Studio\2019\Community\VC\Tools\MSVC\14.29.30133\include\xstring
;	COMDAT ?_Getal@?$basic_string@_UU?$char_traits@_U@std@@V?$allocator@_U@2@@std@@AAEAAV?$allocator@_U@2@XZ
_TEXT	SEGMENT
_this$ = -8						; size = 4
?_Getal@?$basic_string@_UU?$char_traits@_U@std@@V?$allocator@_U@2@@std@@AAEAAV?$allocator@_U@2@XZ PROC ; std::basic_string<char32_t,std::char_traits<char32_t>,std::allocator<char32_t> >::_Getal, COMDAT
; _this$ = ecx

; 4616 :     _CONSTEXPR20_CONTAINER _Alty& _Getal() noexcept {

	push	ebp
	mov	ebp, esp
	sub	esp, 204				; 000000ccH
	push	ebx
	push	esi
	push	edi
	push	ecx
	lea	edi, DWORD PTR [ebp-12]
	mov	ecx, 3
	mov	eax, -858993460				; ccccccccH
	rep stosd
	pop	ecx
	mov	DWORD PTR _this$[ebp], ecx
	mov	ecx, OFFSET __0D019051_xstring
	call	@__CheckForDebuggerJustMyCode@4

; 4617 :         return _Mypair._Get_first();

	mov	ecx, DWORD PTR _this$[ebp]
	call	?_Get_first@?$_Compressed_pair@V?$allocator@_U@std@@V?$_String_val@U?$_Simple_types@_U@std@@@2@$00@std@@QAEAAV?$allocator@_U@2@XZ ; std::_Compressed_pair<std::allocator<char32_t>,std::_String_val<std::_Simple_types<char32_t> >,1>::_Get_first

; 4618 :     }

	pop	edi
	pop	esi
	pop	ebx
	add	esp, 204				; 000000ccH
	cmp	ebp, esp
	call	__RTC_CheckEsp
	mov	esp, ebp
	pop	ebp
	ret	0
?_Getal@?$basic_string@_UU?$char_traits@_U@std@@V?$allocator@_U@2@@std@@AAEAAV?$allocator@_U@2@XZ ENDP ; std::basic_string<char32_t,std::char_traits<char32_t>,std::allocator<char32_t> >::_Getal
_TEXT	ENDS
; Function compile flags: /Odtp /RTCsu /ZI
; File C:\Program Files (x86)\Microsoft Visual Studio\2019\Community\VC\Tools\MSVC\14.29.30133\include\xstring
;	COMDAT ?_Swap_proxy_and_iterators@?$basic_string@_UU?$char_traits@_U@std@@V?$allocator@_U@2@@std@@AAEXAAV12@@Z
_TEXT	SEGMENT
_this$ = -8						; size = 4
__Right$ = 8						; size = 4
?_Swap_proxy_and_iterators@?$basic_string@_UU?$char_traits@_U@std@@V?$allocator@_U@2@@std@@AAEXAAV12@@Z PROC ; std::basic_string<char32_t,std::char_traits<char32_t>,std::allocator<char32_t> >::_Swap_proxy_and_iterators, COMDAT
; _this$ = ecx

; 4612 :     _CONSTEXPR20_CONTAINER void _Swap_proxy_and_iterators(basic_string& _Right) {

	push	ebp
	mov	ebp, esp
	sub	esp, 204				; 000000ccH
	push	ebx
	push	esi
	push	edi
	push	ecx
	lea	edi, DWORD PTR [ebp-12]
	mov	ecx, 3
	mov	eax, -858993460				; ccccccccH
	rep stosd
	pop	ecx
	mov	DWORD PTR _this$[ebp], ecx
	mov	ecx, OFFSET __0D019051_xstring
	call	@__CheckForDebuggerJustMyCode@4

; 4613 :         _Mypair._Myval2._Swap_proxy_and_iterators(_Right._Mypair._Myval2);

	mov	eax, DWORD PTR __Right$[ebp]
	push	eax
	mov	ecx, DWORD PTR _this$[ebp]
	call	?_Swap_proxy_and_iterators@_Container_base12@std@@QAEXAAU12@@Z ; std::_Container_base12::_Swap_proxy_and_iterators

; 4614 :     }

	pop	edi
	pop	esi
	pop	ebx
	add	esp, 204				; 000000ccH
	cmp	ebp, esp
	call	__RTC_CheckEsp
	mov	esp, ebp
	pop	ebp
	ret	4
?_Swap_proxy_and_iterators@?$basic_string@_UU?$char_traits@_U@std@@V?$allocator@_U@2@@std@@AAEXAAV12@@Z ENDP ; std::basic_string<char32_t,std::char_traits<char32_t>,std::allocator<char32_t> >::_Swap_proxy_and_iterators
_TEXT	ENDS
; Function compile flags: /Odtp /RTCsu /ZI
; File C:\Program Files (x86)\Microsoft Visual Studio\2019\Community\VC\Tools\MSVC\14.29.30133\include\xstring
;	COMDAT ?_Tidy_deallocate@?$basic_string@_UU?$char_traits@_U@std@@V?$allocator@_U@2@@std@@AAEXXZ
_TEXT	SEGMENT
$T2 = -248						; size = 4
__Al$3 = -44						; size = 4
__Ptr$4 = -32						; size = 4
_this$ = -20						; size = 4
__$EHRec$ = -12						; size = 12
?_Tidy_deallocate@?$basic_string@_UU?$char_traits@_U@std@@V?$allocator@_U@2@@std@@AAEXXZ PROC ; std::basic_string<char32_t,std::char_traits<char32_t>,std::allocator<char32_t> >::_Tidy_deallocate, COMDAT
; _this$ = ecx

; 4582 :     _CONSTEXPR20_CONTAINER void _Tidy_deallocate() noexcept { // initialize buffer, deallocating any storage

	push	ebp
	mov	ebp, esp
	push	-1
	push	__ehhandler$?_Tidy_deallocate@?$basic_string@_UU?$char_traits@_U@std@@V?$allocator@_U@2@@std@@AAEXXZ
	mov	eax, DWORD PTR fs:0
	push	eax
	sub	esp, 240				; 000000f0H
	push	ebx
	push	esi
	push	edi
	push	ecx
	lea	edi, DWORD PTR [ebp-60]
	mov	ecx, 12					; 0000000cH
	mov	eax, -858993460				; ccccccccH
	rep stosd
	pop	ecx
	mov	eax, DWORD PTR ___security_cookie
	xor	eax, ebp
	push	eax
	lea	eax, DWORD PTR __$EHRec$[ebp]
	mov	DWORD PTR fs:0, eax
	mov	DWORD PTR _this$[ebp], ecx
	mov	ecx, OFFSET __0D019051_xstring
	call	@__CheckForDebuggerJustMyCode@4

; 4583 :         _Mypair._Myval2._Orphan_all();

	mov	ecx, DWORD PTR _this$[ebp]
	call	?_Orphan_all@_Container_base12@std@@QAEXXZ ; std::_Container_base12::_Orphan_all

; 4584 :         if (_Mypair._Myval2._Large_string_engaged()) {

	mov	ecx, DWORD PTR _this$[ebp]
	call	?_Large_string_engaged@?$_String_val@U?$_Simple_types@_U@std@@@std@@QBE_NXZ ; std::_String_val<std::_Simple_types<char32_t> >::_Large_string_engaged
	movzx	eax, al
	test	eax, eax
	je	SHORT $LN2@Tidy_deall

; 4585 :             const pointer _Ptr = _Mypair._Myval2._Bx._Ptr;

	mov	eax, DWORD PTR _this$[ebp]
	mov	ecx, DWORD PTR [eax+4]
	mov	DWORD PTR __Ptr$4[ebp], ecx

; 4586 :             auto& _Al          = _Getal();

	mov	ecx, DWORD PTR _this$[ebp]
	call	?_Getal@?$basic_string@_UU?$char_traits@_U@std@@V?$allocator@_U@2@@std@@AAEAAV?$allocator@_U@2@XZ ; std::basic_string<char32_t,std::char_traits<char32_t>,std::allocator<char32_t> >::_Getal
	mov	DWORD PTR __Al$3[ebp], eax

; 4587 :             _Destroy_in_place(_Mypair._Myval2._Bx._Ptr);

	mov	eax, DWORD PTR _this$[ebp]
	add	eax, 4
	push	eax
	call	??$_Destroy_in_place@PA_U@std@@YAXAAPA_U@Z ; std::_Destroy_in_place<char32_t *>
	add	esp, 4

; 4588 :             _Al.deallocate(_Ptr, _Mypair._Myval2._Myres + 1);

	mov	eax, DWORD PTR _this$[ebp]
	mov	ecx, DWORD PTR [eax+24]
	add	ecx, 1
	push	ecx
	mov	edx, DWORD PTR __Ptr$4[ebp]
	push	edx
	mov	ecx, DWORD PTR __Al$3[ebp]
	call	?deallocate@?$allocator@_U@std@@QAEXQA_UI@Z ; std::allocator<char32_t>::deallocate
$LN2@Tidy_deall:

; 4589 :         }
; 4590 : 
; 4591 : #ifdef __cpp_lib_constexpr_string
; 4592 :         if (_STD is_constant_evaluated()) {
; 4593 :             _Mypair._Myval2._Bx._Ptr = nullptr;
; 4594 :             _Mypair._Myval2._Mysize  = 0;
; 4595 :             _Mypair._Myval2._Myres   = 0;
; 4596 :         } else
; 4597 : #endif // __cpp_lib_constexpr_string
; 4598 :         {
; 4599 :             _Mypair._Myval2._Mysize = 0;

	mov	eax, DWORD PTR _this$[ebp]
	mov	DWORD PTR [eax+20], 0

; 4600 :             _Mypair._Myval2._Myres  = _BUF_SIZE - 1;

	mov	eax, DWORD PTR _this$[ebp]
	mov	DWORD PTR [eax+24], 3

; 4601 :             // the _Traits::assign is last so the codegen doesn't think the char write can alias this
; 4602 :             _Traits::assign(_Mypair._Myval2._Bx._Buf[0], _Elem());

	mov	DWORD PTR $T2[ebp], 0
	lea	eax, DWORD PTR $T2[ebp]
	push	eax
	mov	ecx, 4
	imul	edx, ecx, 0
	mov	eax, DWORD PTR _this$[ebp]
	lea	ecx, DWORD PTR [eax+edx+4]
	push	ecx
	call	?assign@?$_Char_traits@_UI@std@@SAXAA_UAB_U@Z ; std::_Char_traits<char32_t,unsigned int>::assign
	add	esp, 8

; 4603 :         }
; 4604 :     }

	mov	ecx, DWORD PTR __$EHRec$[ebp]
	mov	DWORD PTR fs:0, ecx
	pop	ecx
	pop	edi
	pop	esi
	pop	ebx
	add	esp, 252				; 000000fcH
	cmp	ebp, esp
	call	__RTC_CheckEsp
	mov	esp, ebp
	pop	ebp
	ret	0
	int	3
	int	3
	int	3
	int	3
	int	3
_TEXT	ENDS
;	COMDAT text$x
text$x	SEGMENT
__ehhandler$?_Tidy_deallocate@?$basic_string@_UU?$char_traits@_U@std@@V?$allocator@_U@2@@std@@AAEXXZ:
	npad	1
	npad	1
	mov	edx, DWORD PTR [esp+8]
	lea	eax, DWORD PTR [edx+12]
	mov	ecx, DWORD PTR [edx-256]
	xor	ecx, eax
	call	@__security_check_cookie@4
	mov	eax, OFFSET __ehfuncinfo$?_Tidy_deallocate@?$basic_string@_UU?$char_traits@_U@std@@V?$allocator@_U@2@@std@@AAEXXZ
	jmp	___CxxFrameHandler3
text$x	ENDS
?_Tidy_deallocate@?$basic_string@_UU?$char_traits@_U@std@@V?$allocator@_U@2@@std@@AAEXXZ ENDP ; std::basic_string<char32_t,std::char_traits<char32_t>,std::allocator<char32_t> >::_Tidy_deallocate
; Function compile flags: /Odtp /RTCsu /ZI
; File C:\Program Files (x86)\Microsoft Visual Studio\2019\Community\VC\Tools\MSVC\14.29.30133\include\xstring
;	COMDAT ?_Tidy_init@?$basic_string@_UU?$char_traits@_U@std@@V?$allocator@_U@2@@std@@AAEXXZ
_TEXT	SEGMENT
$T1 = -224						; size = 4
__My_data$ = -20					; size = 4
_this$ = -8						; size = 4
?_Tidy_init@?$basic_string@_UU?$char_traits@_U@std@@V?$allocator@_U@2@@std@@AAEXXZ PROC ; std::basic_string<char32_t,std::char_traits<char32_t>,std::allocator<char32_t> >::_Tidy_init, COMDAT
; _this$ = ecx

; 4560 :     _CONSTEXPR20_CONTAINER void _Tidy_init() noexcept { // initialize basic_string data members

	push	ebp
	mov	ebp, esp
	sub	esp, 228				; 000000e4H
	push	ebx
	push	esi
	push	edi
	push	ecx
	lea	edi, DWORD PTR [ebp-36]
	mov	ecx, 9
	mov	eax, -858993460				; ccccccccH
	rep stosd
	pop	ecx
	mov	DWORD PTR _this$[ebp], ecx
	mov	ecx, OFFSET __0D019051_xstring
	call	@__CheckForDebuggerJustMyCode@4

; 4561 :         auto& _My_data   = _Mypair._Myval2;

	mov	eax, DWORD PTR _this$[ebp]
	mov	DWORD PTR __My_data$[ebp], eax

; 4562 :         _My_data._Mysize = 0;

	mov	eax, DWORD PTR __My_data$[ebp]
	mov	DWORD PTR [eax+20], 0

; 4563 : 
; 4564 : #ifdef __cpp_lib_constexpr_string
; 4565 :         if (_STD is_constant_evaluated()) {
; 4566 :             _My_data._Myres        = _BUF_SIZE; // SSO disabled in constexpr context
; 4567 :             auto& _Al              = _Getal();
; 4568 :             const pointer _New_ptr = _Al.allocate(_BUF_SIZE + 1); // throws
; 4569 :             _My_data._Bx._Ptr      = _New_ptr;
; 4570 : 
; 4571 :             _Elem* const _Raw_new = _Unfancy(_New_ptr);
; 4572 :             _Traits::assign(_Raw_new, _BUF_SIZE + 1, _Elem());
; 4573 :         } else
; 4574 : #endif // __cpp_lib_constexpr_string
; 4575 :         {
; 4576 :             _My_data._Myres = _BUF_SIZE - 1;

	mov	eax, DWORD PTR __My_data$[ebp]
	mov	DWORD PTR [eax+24], 3

; 4577 :             // the _Traits::assign is last so the codegen doesn't think the char write can alias this
; 4578 :             _Traits::assign(_My_data._Bx._Buf[0], _Elem());

	mov	DWORD PTR $T1[ebp], 0
	lea	eax, DWORD PTR $T1[ebp]
	push	eax
	mov	ecx, 4
	imul	edx, ecx, 0
	mov	eax, DWORD PTR __My_data$[ebp]
	lea	ecx, DWORD PTR [eax+edx+4]
	push	ecx
	call	?assign@?$_Char_traits@_UI@std@@SAXAA_UAB_U@Z ; std::_Char_traits<char32_t,unsigned int>::assign
	add	esp, 8

; 4579 :         }
; 4580 :     }

	pop	edi
	pop	esi
	pop	ebx
	add	esp, 228				; 000000e4H
	cmp	ebp, esp
	call	__RTC_CheckEsp
	mov	esp, ebp
	pop	ebp
	ret	0
?_Tidy_init@?$basic_string@_UU?$char_traits@_U@std@@V?$allocator@_U@2@@std@@AAEXXZ ENDP ; std::basic_string<char32_t,std::char_traits<char32_t>,std::allocator<char32_t> >::_Tidy_init
_TEXT	ENDS
; Function compile flags: /Odtp /RTCsu /ZI
; File C:\Program Files (x86)\Microsoft Visual Studio\2019\Community\VC\Tools\MSVC\14.29.30133\include\xstring
;	COMDAT ?_Calculate_growth@?$basic_string@_UU?$char_traits@_U@std@@V?$allocator@_U@2@@std@@ABEII@Z
_TEXT	SEGMENT
_this$ = -8						; size = 4
__Requested$ = 8					; size = 4
?_Calculate_growth@?$basic_string@_UU?$char_traits@_U@std@@V?$allocator@_U@2@@std@@ABEII@Z PROC ; std::basic_string<char32_t,std::char_traits<char32_t>,std::allocator<char32_t> >::_Calculate_growth, COMDAT
; _this$ = ecx

; 4466 :     _NODISCARD _CONSTEXPR20_CONTAINER size_type _Calculate_growth(const size_type _Requested) const noexcept {

	push	ebp
	mov	ebp, esp
	sub	esp, 204				; 000000ccH
	push	ebx
	push	esi
	push	edi
	push	ecx
	lea	edi, DWORD PTR [ebp-12]
	mov	ecx, 3
	mov	eax, -858993460				; ccccccccH
	rep stosd
	pop	ecx
	mov	DWORD PTR _this$[ebp], ecx
	mov	ecx, OFFSET __0D019051_xstring
	call	@__CheckForDebuggerJustMyCode@4

; 4467 :         return _Calculate_growth(_Requested, _Mypair._Myval2._Myres, max_size());

	mov	ecx, DWORD PTR _this$[ebp]
	call	?max_size@?$basic_string@_UU?$char_traits@_U@std@@V?$allocator@_U@2@@std@@QBEIXZ ; std::basic_string<char32_t,std::char_traits<char32_t>,std::allocator<char32_t> >::max_size
	push	eax
	mov	eax, DWORD PTR _this$[ebp]
	mov	ecx, DWORD PTR [eax+24]
	push	ecx
	mov	edx, DWORD PTR __Requested$[ebp]
	push	edx
	call	?_Calculate_growth@?$basic_string@_UU?$char_traits@_U@std@@V?$allocator@_U@2@@std@@CAIIII@Z ; std::basic_string<char32_t,std::char_traits<char32_t>,std::allocator<char32_t> >::_Calculate_growth
	add	esp, 12					; 0000000cH

; 4468 :     }

	pop	edi
	pop	esi
	pop	ebx
	add	esp, 204				; 000000ccH
	cmp	ebp, esp
	call	__RTC_CheckEsp
	mov	esp, ebp
	pop	ebp
	ret	4
?_Calculate_growth@?$basic_string@_UU?$char_traits@_U@std@@V?$allocator@_U@2@@std@@ABEII@Z ENDP ; std::basic_string<char32_t,std::char_traits<char32_t>,std::allocator<char32_t> >::_Calculate_growth
_TEXT	ENDS
; Function compile flags: /Odtp /RTCsu /ZI
; File C:\Program Files (x86)\Microsoft Visual Studio\2019\Community\VC\Tools\MSVC\14.29.30133\include\xstring
;	COMDAT ?_Calculate_growth@?$basic_string@_UU?$char_traits@_U@std@@V?$allocator@_U@2@@std@@CAIIII@Z
_TEXT	SEGMENT
$T1 = -216						; size = 4
__Masked$ = -12						; size = 4
__$ArrayPad$ = -4					; size = 4
__Requested$ = 8					; size = 4
__Old$ = 12						; size = 4
__Max$ = 16						; size = 4
?_Calculate_growth@?$basic_string@_UU?$char_traits@_U@std@@V?$allocator@_U@2@@std@@CAIIII@Z PROC ; std::basic_string<char32_t,std::char_traits<char32_t>,std::allocator<char32_t> >::_Calculate_growth, COMDAT

; 4453 :         const size_type _Requested, const size_type _Old, const size_type _Max) noexcept {

	push	ebp
	mov	ebp, esp
	sub	esp, 220				; 000000dcH
	push	ebx
	push	esi
	push	edi
	lea	edi, DWORD PTR [ebp-28]
	mov	ecx, 7
	mov	eax, -858993460				; ccccccccH
	rep stosd
	mov	eax, DWORD PTR ___security_cookie
	xor	eax, ebp
	mov	DWORD PTR __$ArrayPad$[ebp], eax
	mov	ecx, OFFSET __0D019051_xstring
	call	@__CheckForDebuggerJustMyCode@4

; 4454 :         const size_type _Masked = _Requested | _ALLOC_MASK;

	mov	eax, DWORD PTR __Requested$[ebp]
	or	eax, 3
	mov	DWORD PTR __Masked$[ebp], eax

; 4455 :         if (_Masked > _Max) { // the mask overflows, settle for max_size()

	mov	eax, DWORD PTR __Masked$[ebp]
	cmp	eax, DWORD PTR __Max$[ebp]
	jbe	SHORT $LN2@Calculate_

; 4456 :             return _Max;

	mov	eax, DWORD PTR __Max$[ebp]
	jmp	SHORT $LN4@Calculate_
$LN2@Calculate_:

; 4457 :         }
; 4458 : 
; 4459 :         if (_Old > _Max - _Old / 2) { // similarly, geometric overflows

	mov	eax, DWORD PTR __Old$[ebp]
	shr	eax, 1
	mov	ecx, DWORD PTR __Max$[ebp]
	sub	ecx, eax
	cmp	DWORD PTR __Old$[ebp], ecx
	jbe	SHORT $LN3@Calculate_

; 4460 :             return _Max;

	mov	eax, DWORD PTR __Max$[ebp]
	jmp	SHORT $LN4@Calculate_
$LN3@Calculate_:

; 4461 :         }
; 4462 : 
; 4463 :         return (_STD max)(_Masked, _Old + _Old / 2);

	mov	eax, DWORD PTR __Old$[ebp]
	shr	eax, 1
	add	eax, DWORD PTR __Old$[ebp]
	mov	DWORD PTR $T1[ebp], eax
	lea	ecx, DWORD PTR $T1[ebp]
	push	ecx
	lea	edx, DWORD PTR __Masked$[ebp]
	push	edx
	call	??$max@I@std@@YAABIABI0@Z		; std::max<unsigned int>
	add	esp, 8
	mov	eax, DWORD PTR [eax]
$LN4@Calculate_:

; 4464 :     }

	push	edx
	mov	ecx, ebp
	push	eax
	lea	edx, DWORD PTR $LN7@Calculate_
	call	@_RTC_CheckStackVars@8
	pop	eax
	pop	edx
	pop	edi
	pop	esi
	pop	ebx
	mov	ecx, DWORD PTR __$ArrayPad$[ebp]
	xor	ecx, ebp
	call	@__security_check_cookie@4
	add	esp, 220				; 000000dcH
	cmp	ebp, esp
	call	__RTC_CheckEsp
	mov	esp, ebp
	pop	ebp
	ret	0
	npad	1
$LN7@Calculate_:
	DD	1
	DD	$LN6@Calculate_
$LN6@Calculate_:
	DD	-12					; fffffff4H
	DD	4
	DD	$LN5@Calculate_
$LN5@Calculate_:
	DB	95					; 0000005fH
	DB	77					; 0000004dH
	DB	97					; 00000061H
	DB	115					; 00000073H
	DB	107					; 0000006bH
	DB	101					; 00000065H
	DB	100					; 00000064H
	DB	0
?_Calculate_growth@?$basic_string@_UU?$char_traits@_U@std@@V?$allocator@_U@2@@std@@CAIIII@Z ENDP ; std::basic_string<char32_t,std::char_traits<char32_t>,std::allocator<char32_t> >::_Calculate_growth
_TEXT	ENDS
; Function compile flags: /Odtp /RTCsu /ZI
; File C:\Program Files (x86)\Microsoft Visual Studio\2019\Community\VC\Tools\MSVC\14.29.30133\include\xstring
;	COMDAT ?max_size@?$basic_string@_UU?$char_traits@_U@std@@V?$allocator@_U@2@@std@@QBEIXZ
_TEXT	SEGMENT
$T1 = -264						; size = 4
$T2 = -252						; size = 4
$T3 = -240						; size = 4
__Storage_max$ = -36					; size = 4
__Alloc_max$ = -24					; size = 4
_this$ = -12						; size = 4
__$ArrayPad$ = -4					; size = 4
?max_size@?$basic_string@_UU?$char_traits@_U@std@@V?$allocator@_U@2@@std@@QBEIXZ PROC ; std::basic_string<char32_t,std::char_traits<char32_t>,std::allocator<char32_t> >::max_size, COMDAT
; _this$ = ecx

; 3909 :     _NODISCARD _CONSTEXPR20_CONTAINER size_type max_size() const noexcept {

	push	ebp
	mov	ebp, esp
	sub	esp, 268				; 0000010cH
	push	ebx
	push	esi
	push	edi
	push	ecx
	lea	edi, DWORD PTR [ebp-76]
	mov	ecx, 19					; 00000013H
	mov	eax, -858993460				; ccccccccH
	rep stosd
	pop	ecx
	mov	eax, DWORD PTR ___security_cookie
	xor	eax, ebp
	mov	DWORD PTR __$ArrayPad$[ebp], eax
	mov	DWORD PTR _this$[ebp], ecx
	mov	ecx, OFFSET __0D019051_xstring
	call	@__CheckForDebuggerJustMyCode@4

; 3910 :         const size_type _Alloc_max   = _Alty_traits::max_size(_Getal());

	mov	ecx, DWORD PTR _this$[ebp]
	call	?_Getal@?$basic_string@_UU?$char_traits@_U@std@@V?$allocator@_U@2@@std@@ABEABV?$allocator@_U@2@XZ ; std::basic_string<char32_t,std::char_traits<char32_t>,std::allocator<char32_t> >::_Getal
	push	eax
	call	?max_size@?$_Default_allocator_traits@V?$allocator@_U@std@@@std@@SAIABV?$allocator@_U@2@@Z ; std::_Default_allocator_traits<std::allocator<char32_t> >::max_size
	add	esp, 4
	mov	DWORD PTR __Alloc_max$[ebp], eax

; 3911 :         const size_type _Storage_max = // can always store small string

	mov	DWORD PTR $T3[ebp], 4
	lea	eax, DWORD PTR $T3[ebp]
	push	eax
	lea	ecx, DWORD PTR __Alloc_max$[ebp]
	push	ecx
	call	??$max@I@std@@YAABIABI0@Z		; std::max<unsigned int>
	add	esp, 8
	mov	edx, DWORD PTR [eax]
	mov	DWORD PTR __Storage_max$[ebp], edx

; 3912 :             (_STD max)(_Alloc_max, static_cast<size_type>(_BUF_SIZE));
; 3913 :         return (_STD min)(static_cast<size_type>((numeric_limits<difference_type>::max)()),

	mov	eax, DWORD PTR __Storage_max$[ebp]
	sub	eax, 1
	mov	DWORD PTR $T2[ebp], eax
	call	?max@?$numeric_limits@H@std@@SAHXZ	; std::numeric_limits<int>::max
	mov	DWORD PTR $T1[ebp], eax
	lea	ecx, DWORD PTR $T2[ebp]
	push	ecx
	lea	edx, DWORD PTR $T1[ebp]
	push	edx
	call	??$min@I@std@@YAABIABI0@Z		; std::min<unsigned int>
	add	esp, 8
	mov	eax, DWORD PTR [eax]

; 3914 :             _Storage_max - 1 // -1 is for null terminator and/or npos
; 3915 :         );
; 3916 :     }

	push	edx
	mov	ecx, ebp
	push	eax
	lea	edx, DWORD PTR $LN5@max_size
	call	@_RTC_CheckStackVars@8
	pop	eax
	pop	edx
	pop	edi
	pop	esi
	pop	ebx
	mov	ecx, DWORD PTR __$ArrayPad$[ebp]
	xor	ecx, ebp
	call	@__security_check_cookie@4
	add	esp, 268				; 0000010cH
	cmp	ebp, esp
	call	__RTC_CheckEsp
	mov	esp, ebp
	pop	ebp
	ret	0
$LN5@max_size:
	DD	1
	DD	$LN4@max_size
$LN4@max_size:
	DD	-24					; ffffffe8H
	DD	4
	DD	$LN3@max_size
$LN3@max_size:
	DB	95					; 0000005fH
	DB	65					; 00000041H
	DB	108					; 0000006cH
	DB	108					; 0000006cH
	DB	111					; 0000006fH
	DB	99					; 00000063H
	DB	95					; 0000005fH
	DB	109					; 0000006dH
	DB	97					; 00000061H
	DB	120					; 00000078H
	DB	0
?max_size@?$basic_string@_UU?$char_traits@_U@std@@V?$allocator@_U@2@@std@@QBEIXZ ENDP ; std::basic_string<char32_t,std::char_traits<char32_t>,std::allocator<char32_t> >::max_size
_TEXT	ENDS
; Function compile flags: /Odtp /RTCsu /ZI
; File C:\Program Files (x86)\Microsoft Visual Studio\2019\Community\VC\Tools\MSVC\14.29.30133\include\xstring
;	COMDAT ?_Unchecked_end@?$basic_string@_UU?$char_traits@_U@std@@V?$allocator@_U@2@@std@@QAEPA_UXZ
_TEXT	SEGMENT
_this$ = -8						; size = 4
?_Unchecked_end@?$basic_string@_UU?$char_traits@_U@std@@V?$allocator@_U@2@@std@@QAEPA_UXZ PROC ; std::basic_string<char32_t,std::char_traits<char32_t>,std::allocator<char32_t> >::_Unchecked_end, COMDAT
; _this$ = ecx

; 3714 :     _NODISCARD _CONSTEXPR20_CONTAINER _Elem* _Unchecked_end() noexcept {

	push	ebp
	mov	ebp, esp
	sub	esp, 204				; 000000ccH
	push	ebx
	push	esi
	push	edi
	push	ecx
	lea	edi, DWORD PTR [ebp-12]
	mov	ecx, 3
	mov	eax, -858993460				; ccccccccH
	rep stosd
	pop	ecx
	mov	DWORD PTR _this$[ebp], ecx
	mov	ecx, OFFSET __0D019051_xstring
	call	@__CheckForDebuggerJustMyCode@4

; 3715 :         return _Mypair._Myval2._Myptr() + _Mypair._Myval2._Mysize;

	mov	ecx, DWORD PTR _this$[ebp]
	call	?_Myptr@?$_String_val@U?$_Simple_types@_U@std@@@std@@QAEPA_UXZ ; std::_String_val<std::_Simple_types<char32_t> >::_Myptr
	mov	ecx, DWORD PTR _this$[ebp]
	mov	edx, DWORD PTR [ecx+20]
	lea	eax, DWORD PTR [eax+edx*4]

; 3716 :     }

	pop	edi
	pop	esi
	pop	ebx
	add	esp, 204				; 000000ccH
	cmp	ebp, esp
	call	__RTC_CheckEsp
	mov	esp, ebp
	pop	ebp
	ret	0
?_Unchecked_end@?$basic_string@_UU?$char_traits@_U@std@@V?$allocator@_U@2@@std@@QAEPA_UXZ ENDP ; std::basic_string<char32_t,std::char_traits<char32_t>,std::allocator<char32_t> >::_Unchecked_end
_TEXT	ENDS
; Function compile flags: /Odtp /RTCsu /ZI
; File C:\Program Files (x86)\Microsoft Visual Studio\2019\Community\VC\Tools\MSVC\14.29.30133\include\xstring
;	COMDAT ?_Unchecked_begin@?$basic_string@_UU?$char_traits@_U@std@@V?$allocator@_U@2@@std@@QAEPA_UXZ
_TEXT	SEGMENT
_this$ = -8						; size = 4
?_Unchecked_begin@?$basic_string@_UU?$char_traits@_U@std@@V?$allocator@_U@2@@std@@QAEPA_UXZ PROC ; std::basic_string<char32_t,std::char_traits<char32_t>,std::allocator<char32_t> >::_Unchecked_begin, COMDAT
; _this$ = ecx

; 3706 :     _NODISCARD _CONSTEXPR20_CONTAINER _Elem* _Unchecked_begin() noexcept {

	push	ebp
	mov	ebp, esp
	sub	esp, 204				; 000000ccH
	push	ebx
	push	esi
	push	edi
	push	ecx
	lea	edi, DWORD PTR [ebp-12]
	mov	ecx, 3
	mov	eax, -858993460				; ccccccccH
	rep stosd
	pop	ecx
	mov	DWORD PTR _this$[ebp], ecx
	mov	ecx, OFFSET __0D019051_xstring
	call	@__CheckForDebuggerJustMyCode@4

; 3707 :         return _Mypair._Myval2._Myptr();

	mov	ecx, DWORD PTR _this$[ebp]
	call	?_Myptr@?$_String_val@U?$_Simple_types@_U@std@@@std@@QAEPA_UXZ ; std::_String_val<std::_Simple_types<char32_t> >::_Myptr

; 3708 :     }

	pop	edi
	pop	esi
	pop	ebx
	add	esp, 204				; 000000ccH
	cmp	ebp, esp
	call	__RTC_CheckEsp
	mov	esp, ebp
	pop	ebp
	ret	0
?_Unchecked_begin@?$basic_string@_UU?$char_traits@_U@std@@V?$allocator@_U@2@@std@@QAEPA_UXZ ENDP ; std::basic_string<char32_t,std::char_traits<char32_t>,std::allocator<char32_t> >::_Unchecked_begin
_TEXT	ENDS
; Function compile flags: /Odtp /RTCsu /ZI
; File C:\Program Files (x86)\Microsoft Visual Studio\2019\Community\VC\Tools\MSVC\14.29.30133\include\xstring
;	COMDAT ?assign@?$basic_string@_UU?$char_traits@_U@std@@V?$allocator@_U@2@@std@@QAEAAV12@QB_UI@Z
_TEXT	SEGMENT
$T1 = -233						; size = 1
$T2 = -224						; size = 4
__Old_ptr$3 = -20					; size = 4
_this$ = -8						; size = 4
__Ptr$ = 8						; size = 4
__Count$ = 12						; size = 4
?assign@?$basic_string@_UU?$char_traits@_U@std@@V?$allocator@_U@2@@std@@QAEAAV12@QB_UI@Z PROC ; std::basic_string<char32_t,std::char_traits<char32_t>,std::allocator<char32_t> >::assign, COMDAT
; _this$ = ecx

; 3210 :         _In_reads_(_Count) const _Elem* const _Ptr, _CRT_GUARDOVERFLOW const size_type _Count) {

	push	ebp
	mov	ebp, esp
	sub	esp, 240				; 000000f0H
	push	ebx
	push	esi
	push	edi
	push	ecx
	lea	edi, DWORD PTR [ebp-48]
	mov	ecx, 12					; 0000000cH
	mov	eax, -858993460				; ccccccccH
	rep stosd
	pop	ecx
	mov	DWORD PTR _this$[ebp], ecx
	mov	ecx, OFFSET __0D019051_xstring
	call	@__CheckForDebuggerJustMyCode@4

; 3211 :         // assign [_Ptr, _Ptr + _Count)
; 3212 :         if (_Count <= _Mypair._Myval2._Myres) {

	mov	eax, DWORD PTR _this$[ebp]
	mov	ecx, DWORD PTR __Count$[ebp]
	cmp	ecx, DWORD PTR [eax+24]
	ja	SHORT $LN2@assign

; 3213 :             _Elem* const _Old_ptr   = _Mypair._Myval2._Myptr();

	mov	ecx, DWORD PTR _this$[ebp]
	call	?_Myptr@?$_String_val@U?$_Simple_types@_U@std@@@std@@QAEPA_UXZ ; std::_String_val<std::_Simple_types<char32_t> >::_Myptr
	mov	DWORD PTR __Old_ptr$3[ebp], eax

; 3214 :             _Mypair._Myval2._Mysize = _Count;

	mov	eax, DWORD PTR _this$[ebp]
	mov	ecx, DWORD PTR __Count$[ebp]
	mov	DWORD PTR [eax+20], ecx

; 3215 :             _Traits::move(_Old_ptr, _Ptr, _Count);

	mov	eax, DWORD PTR __Count$[ebp]
	push	eax
	mov	ecx, DWORD PTR __Ptr$[ebp]
	push	ecx
	mov	edx, DWORD PTR __Old_ptr$3[ebp]
	push	edx
	call	?move@?$_Char_traits@_UI@std@@SAPA_UQA_UQB_UI@Z ; std::_Char_traits<char32_t,unsigned int>::move
	add	esp, 12					; 0000000cH

; 3216 :             _Traits::assign(_Old_ptr[_Count], _Elem());

	mov	DWORD PTR $T2[ebp], 0
	lea	eax, DWORD PTR $T2[ebp]
	push	eax
	mov	ecx, DWORD PTR __Count$[ebp]
	mov	edx, DWORD PTR __Old_ptr$3[ebp]
	lea	eax, DWORD PTR [edx+ecx*4]
	push	eax
	call	?assign@?$_Char_traits@_UI@std@@SAXAA_UAB_U@Z ; std::_Char_traits<char32_t,unsigned int>::assign
	add	esp, 8

; 3217 :             return *this;

	mov	eax, DWORD PTR _this$[ebp]
	jmp	SHORT $LN1@assign
$LN2@assign:

; 3218 :         }
; 3219 : 
; 3220 :         return _Reallocate_for(

	xor	eax, eax
	mov	BYTE PTR $T1[ebp], al
	mov	ecx, DWORD PTR __Ptr$[ebp]
	push	ecx
	movzx	edx, BYTE PTR $T1[ebp]
	push	edx
	mov	eax, DWORD PTR __Count$[ebp]
	push	eax
	mov	ecx, DWORD PTR _this$[ebp]
	call	??$_Reallocate_for@V<lambda_02ffc73a80c062ba6e5e6c9f53d514cc>@@PB_U@?$basic_string@_UU?$char_traits@_U@std@@V?$allocator@_U@2@@std@@AAEAAV01@IV<lambda_02ffc73a80c062ba6e5e6c9f53d514cc>@@PB_U@Z ; std::basic_string<char32_t,std::char_traits<char32_t>,std::allocator<char32_t> >::_Reallocate_for<<lambda_02ffc73a80c062ba6e5e6c9f53d514cc>,char32_t const *>
$LN1@assign:

; 3221 :             _Count,
; 3222 :             [](_Elem* const _New_ptr, const size_type _Count, const _Elem* const _Ptr) {
; 3223 :                 _Traits::copy(_New_ptr, _Ptr, _Count);
; 3224 :                 _Traits::assign(_New_ptr[_Count], _Elem());
; 3225 :             },
; 3226 :             _Ptr);
; 3227 :     }

	pop	edi
	pop	esi
	pop	ebx
	add	esp, 240				; 000000f0H
	cmp	ebp, esp
	call	__RTC_CheckEsp
	mov	esp, ebp
	pop	ebp
	ret	8
?assign@?$basic_string@_UU?$char_traits@_U@std@@V?$allocator@_U@2@@std@@QAEAAV12@QB_UI@Z ENDP ; std::basic_string<char32_t,std::char_traits<char32_t>,std::allocator<char32_t> >::assign
_TEXT	ENDS
; Function compile flags: /Odtp /RTCsu /ZI
; File C:\Program Files (x86)\Microsoft Visual Studio\2019\Community\VC\Tools\MSVC\14.29.30133\include\xstring
;	COMDAT ?append@?$basic_string@_UU?$char_traits@_U@std@@V?$allocator@_U@2@@std@@QAEAAV12@QB_U@Z
_TEXT	SEGMENT
_this$ = -8						; size = 4
__Ptr$ = 8						; size = 4
?append@?$basic_string@_UU?$char_traits@_U@std@@V?$allocator@_U@2@@std@@QAEAAV12@QB_U@Z PROC ; std::basic_string<char32_t,std::char_traits<char32_t>,std::allocator<char32_t> >::append, COMDAT
; _this$ = ecx

; 3140 :     _CONSTEXPR20_CONTAINER basic_string& append(_In_z_ const _Elem* const _Ptr) { // append [_Ptr, <null>)

	push	ebp
	mov	ebp, esp
	sub	esp, 204				; 000000ccH
	push	ebx
	push	esi
	push	edi
	push	ecx
	lea	edi, DWORD PTR [ebp-12]
	mov	ecx, 3
	mov	eax, -858993460				; ccccccccH
	rep stosd
	pop	ecx
	mov	DWORD PTR _this$[ebp], ecx
	mov	ecx, OFFSET __0D019051_xstring
	call	@__CheckForDebuggerJustMyCode@4

; 3141 :         return append(_Ptr, _Convert_size<size_type>(_Traits::length(_Ptr)));

	mov	eax, DWORD PTR __Ptr$[ebp]
	push	eax
	call	?length@?$_Char_traits@_UI@std@@SAIPB_U@Z ; std::_Char_traits<char32_t,unsigned int>::length
	add	esp, 4
	push	eax
	call	??$_Convert_size@I@std@@YAII@Z		; std::_Convert_size<unsigned int>
	add	esp, 4
	push	eax
	mov	ecx, DWORD PTR __Ptr$[ebp]
	push	ecx
	mov	ecx, DWORD PTR _this$[ebp]
	call	?append@?$basic_string@_UU?$char_traits@_U@std@@V?$allocator@_U@2@@std@@QAEAAV12@QB_UI@Z ; std::basic_string<char32_t,std::char_traits<char32_t>,std::allocator<char32_t> >::append

; 3142 :     }

	pop	edi
	pop	esi
	pop	ebx
	add	esp, 204				; 000000ccH
	cmp	ebp, esp
	call	__RTC_CheckEsp
	mov	esp, ebp
	pop	ebp
	ret	4
?append@?$basic_string@_UU?$char_traits@_U@std@@V?$allocator@_U@2@@std@@QAEAAV12@QB_U@Z ENDP ; std::basic_string<char32_t,std::char_traits<char32_t>,std::allocator<char32_t> >::append
_TEXT	ENDS
; Function compile flags: /Odtp /RTCsu /ZI
; File C:\Program Files (x86)\Microsoft Visual Studio\2019\Community\VC\Tools\MSVC\14.29.30133\include\xstring
;	COMDAT ?append@?$basic_string@_UU?$char_traits@_U@std@@V?$allocator@_U@2@@std@@QAEAAV12@QB_UI@Z
_TEXT	SEGMENT
$T1 = -245						; size = 1
$T2 = -236						; size = 4
__Old_ptr$3 = -32					; size = 4
__Old_size$ = -20					; size = 4
_this$ = -8						; size = 4
__Ptr$ = 8						; size = 4
__Count$ = 12						; size = 4
?append@?$basic_string@_UU?$char_traits@_U@std@@V?$allocator@_U@2@@std@@QAEAAV12@QB_UI@Z PROC ; std::basic_string<char32_t,std::char_traits<char32_t>,std::allocator<char32_t> >::append, COMDAT
; _this$ = ecx

; 3118 :         _In_reads_(_Count) const _Elem* const _Ptr, _CRT_GUARDOVERFLOW const size_type _Count) {

	push	ebp
	mov	ebp, esp
	sub	esp, 252				; 000000fcH
	push	ebx
	push	esi
	push	edi
	push	ecx
	lea	edi, DWORD PTR [ebp-60]
	mov	ecx, 15					; 0000000fH
	mov	eax, -858993460				; ccccccccH
	rep stosd
	pop	ecx
	mov	DWORD PTR _this$[ebp], ecx
	mov	ecx, OFFSET __0D019051_xstring
	call	@__CheckForDebuggerJustMyCode@4

; 3119 :         // append [_Ptr, _Ptr + _Count)
; 3120 :         const size_type _Old_size = _Mypair._Myval2._Mysize;

	mov	eax, DWORD PTR _this$[ebp]
	mov	ecx, DWORD PTR [eax+20]
	mov	DWORD PTR __Old_size$[ebp], ecx

; 3121 :         if (_Count <= _Mypair._Myval2._Myres - _Old_size) {

	mov	eax, DWORD PTR _this$[ebp]
	mov	ecx, DWORD PTR [eax+24]
	sub	ecx, DWORD PTR __Old_size$[ebp]
	cmp	DWORD PTR __Count$[ebp], ecx
	ja	SHORT $LN2@append

; 3122 :             _Mypair._Myval2._Mysize = _Old_size + _Count;

	mov	eax, DWORD PTR __Old_size$[ebp]
	add	eax, DWORD PTR __Count$[ebp]
	mov	ecx, DWORD PTR _this$[ebp]
	mov	DWORD PTR [ecx+20], eax

; 3123 :             _Elem* const _Old_ptr   = _Mypair._Myval2._Myptr();

	mov	ecx, DWORD PTR _this$[ebp]
	call	?_Myptr@?$_String_val@U?$_Simple_types@_U@std@@@std@@QAEPA_UXZ ; std::_String_val<std::_Simple_types<char32_t> >::_Myptr
	mov	DWORD PTR __Old_ptr$3[ebp], eax

; 3124 :             _Traits::move(_Old_ptr + _Old_size, _Ptr, _Count);

	mov	eax, DWORD PTR __Count$[ebp]
	push	eax
	mov	ecx, DWORD PTR __Ptr$[ebp]
	push	ecx
	mov	edx, DWORD PTR __Old_size$[ebp]
	mov	eax, DWORD PTR __Old_ptr$3[ebp]
	lea	ecx, DWORD PTR [eax+edx*4]
	push	ecx
	call	?move@?$_Char_traits@_UI@std@@SAPA_UQA_UQB_UI@Z ; std::_Char_traits<char32_t,unsigned int>::move
	add	esp, 12					; 0000000cH

; 3125 :             _Traits::assign(_Old_ptr[_Old_size + _Count], _Elem());

	mov	DWORD PTR $T2[ebp], 0
	lea	eax, DWORD PTR $T2[ebp]
	push	eax
	mov	ecx, DWORD PTR __Old_size$[ebp]
	add	ecx, DWORD PTR __Count$[ebp]
	mov	edx, DWORD PTR __Old_ptr$3[ebp]
	lea	eax, DWORD PTR [edx+ecx*4]
	push	eax
	call	?assign@?$_Char_traits@_UI@std@@SAXAA_UAB_U@Z ; std::_Char_traits<char32_t,unsigned int>::assign
	add	esp, 8

; 3126 :             return *this;

	mov	eax, DWORD PTR _this$[ebp]
	jmp	SHORT $LN1@append
$LN2@append:

; 3127 :         }
; 3128 : 
; 3129 :         return _Reallocate_grow_by(

	xor	eax, eax
	mov	BYTE PTR $T1[ebp], al
	mov	ecx, DWORD PTR __Count$[ebp]
	push	ecx
	mov	edx, DWORD PTR __Ptr$[ebp]
	push	edx
	movzx	eax, BYTE PTR $T1[ebp]
	push	eax
	mov	ecx, DWORD PTR __Count$[ebp]
	push	ecx
	mov	ecx, DWORD PTR _this$[ebp]
	call	??$_Reallocate_grow_by@V<lambda_aabcc5df0dcdbd223414bc3ba38ad6d9>@@PB_UI@?$basic_string@_UU?$char_traits@_U@std@@V?$allocator@_U@2@@std@@AAEAAV01@IV<lambda_aabcc5df0dcdbd223414bc3ba38ad6d9>@@PB_UI@Z ; std::basic_string<char32_t,std::char_traits<char32_t>,std::allocator<char32_t> >::_Reallocate_grow_by<<lambda_aabcc5df0dcdbd223414bc3ba38ad6d9>,char32_t const *,unsigned int>
$LN1@append:

; 3130 :             _Count,
; 3131 :             [](_Elem* const _New_ptr, const _Elem* const _Old_ptr, const size_type _Old_size, const _Elem* const _Ptr,
; 3132 :                 const size_type _Count) {
; 3133 :                 _Traits::copy(_New_ptr, _Old_ptr, _Old_size);
; 3134 :                 _Traits::copy(_New_ptr + _Old_size, _Ptr, _Count);
; 3135 :                 _Traits::assign(_New_ptr[_Old_size + _Count], _Elem());
; 3136 :             },
; 3137 :             _Ptr, _Count);
; 3138 :     }

	pop	edi
	pop	esi
	pop	ebx
	add	esp, 252				; 000000fcH
	cmp	ebp, esp
	call	__RTC_CheckEsp
	mov	esp, ebp
	pop	ebp
	ret	8
?append@?$basic_string@_UU?$char_traits@_U@std@@V?$allocator@_U@2@@std@@QAEAAV12@QB_UI@Z ENDP ; std::basic_string<char32_t,std::char_traits<char32_t>,std::allocator<char32_t> >::append
_TEXT	ENDS
; Function compile flags: /Odtp /RTCsu /ZI
; File C:\Program Files (x86)\Microsoft Visual Studio\2019\Community\VC\Tools\MSVC\14.29.30133\include\xstring
;	COMDAT ??1?$basic_string@_UU?$char_traits@_U@std@@V?$allocator@_U@2@@std@@QAE@XZ
_TEXT	SEGMENT
__To_delete$ = -48					; size = 4
_$S1$ = -33						; size = 1
__Alproxy$ = -24					; size = 4
_this$ = -12						; size = 4
__$ArrayPad$ = -4					; size = 4
??1?$basic_string@_UU?$char_traits@_U@std@@V?$allocator@_U@2@@std@@QAE@XZ PROC ; std::basic_string<char32_t,std::char_traits<char32_t>,std::allocator<char32_t> >::~basic_string<char32_t,std::char_traits<char32_t>,std::allocator<char32_t> >, COMDAT
; _this$ = ecx

; 2968 :     _CONSTEXPR20_CONTAINER ~basic_string() noexcept {

	push	ebp
	mov	ebp, esp
	sub	esp, 244				; 000000f4H
	push	ebx
	push	esi
	push	edi
	push	ecx
	lea	edi, DWORD PTR [ebp-52]
	mov	ecx, 13					; 0000000dH
	mov	eax, -858993460				; ccccccccH
	rep stosd
	pop	ecx
	mov	eax, DWORD PTR ___security_cookie
	xor	eax, ebp
	mov	DWORD PTR __$ArrayPad$[ebp], eax
	mov	DWORD PTR _this$[ebp], ecx
	mov	ecx, OFFSET __0D019051_xstring
	call	@__CheckForDebuggerJustMyCode@4

; 2969 :         _Tidy_deallocate();

	mov	ecx, DWORD PTR _this$[ebp]
	call	?_Tidy_deallocate@?$basic_string@_UU?$char_traits@_U@std@@V?$allocator@_U@2@@std@@AAEXXZ ; std::basic_string<char32_t,std::char_traits<char32_t>,std::allocator<char32_t> >::_Tidy_deallocate

; 2970 : #if _ITERATOR_DEBUG_LEVEL != 0
; 2971 :         auto&& _Alproxy          = _GET_PROXY_ALLOCATOR(_Alty, _Getal());

	mov	ecx, DWORD PTR _this$[ebp]
	call	?_Getal@?$basic_string@_UU?$char_traits@_U@std@@V?$allocator@_U@2@@std@@AAEAAV?$allocator@_U@2@XZ ; std::basic_string<char32_t,std::char_traits<char32_t>,std::allocator<char32_t> >::_Getal
	push	eax
	lea	ecx, DWORD PTR _$S1$[ebp]
	call	??$?0_U@?$allocator@U_Container_proxy@std@@@std@@QAE@ABV?$allocator@_U@1@@Z ; std::allocator<std::_Container_proxy>::allocator<std::_Container_proxy><char32_t>
	lea	eax, DWORD PTR _$S1$[ebp]
	mov	DWORD PTR __Alproxy$[ebp], eax

; 2972 :         const auto _To_delete    = _Mypair._Myval2._Myproxy;

	mov	eax, DWORD PTR _this$[ebp]
	mov	ecx, DWORD PTR [eax]
	mov	DWORD PTR __To_delete$[ebp], ecx

; 2973 :         _Mypair._Myval2._Myproxy = nullptr;

	mov	eax, DWORD PTR _this$[ebp]
	mov	DWORD PTR [eax], 0

; 2974 :         _Delete_plain_internal(_Alproxy, _To_delete);

	mov	eax, DWORD PTR __To_delete$[ebp]
	push	eax
	mov	ecx, DWORD PTR __Alproxy$[ebp]
	push	ecx
	call	??$_Delete_plain_internal@V?$allocator@U_Container_proxy@std@@@std@@@std@@YAXAAV?$allocator@U_Container_proxy@std@@@0@QAU_Container_proxy@0@@Z ; std::_Delete_plain_internal<std::allocator<std::_Container_proxy> >
	add	esp, 8

; 2975 : #endif // _ITERATOR_DEBUG_LEVEL != 0
; 2976 :     }

	mov	ecx, DWORD PTR _this$[ebp]
	call	??1?$_Compressed_pair@V?$allocator@_U@std@@V?$_String_val@U?$_Simple_types@_U@std@@@2@$00@std@@QAE@XZ
	push	edx
	mov	ecx, ebp
	push	eax
	lea	edx, DWORD PTR $LN5@basic_stri
	call	@_RTC_CheckStackVars@8
	pop	eax
	pop	edx
	pop	edi
	pop	esi
	pop	ebx
	mov	ecx, DWORD PTR __$ArrayPad$[ebp]
	xor	ecx, ebp
	call	@__security_check_cookie@4
	add	esp, 244				; 000000f4H
	cmp	ebp, esp
	call	__RTC_CheckEsp
	mov	esp, ebp
	pop	ebp
	ret	0
	npad	1
$LN5@basic_stri:
	DD	1
	DD	$LN4@basic_stri
$LN4@basic_stri:
	DD	-33					; ffffffdfH
	DD	1
	DD	$LN3@basic_stri
$LN3@basic_stri:
	DB	36					; 00000024H
	DB	83					; 00000053H
	DB	49					; 00000031H
	DB	0
??1?$basic_string@_UU?$char_traits@_U@std@@V?$allocator@_U@2@@std@@QAE@XZ ENDP ; std::basic_string<char32_t,std::char_traits<char32_t>,std::allocator<char32_t> >::~basic_string<char32_t,std::char_traits<char32_t>,std::allocator<char32_t> >
_TEXT	ENDS
; Function compile flags: /Odtp /RTCsu /ZI
; File C:\Program Files (x86)\Microsoft Visual Studio\2019\Community\VC\Tools\MSVC\14.29.30133\include\xstring
;	COMDAT ?_Take_contents@?$basic_string@_UU?$char_traits@_U@std@@V?$allocator@_U@2@@std@@AAEXAAV12@@Z
_TEXT	SEGMENT
__Right_data$ = -44					; size = 4
__My_data$ = -32					; size = 4
_this$ = -20						; size = 4
__$EHRec$ = -12						; size = 12
__Right$ = 8						; size = 4
?_Take_contents@?$basic_string@_UU?$char_traits@_U@std@@V?$allocator@_U@2@@std@@AAEXAAV12@@Z PROC ; std::basic_string<char32_t,std::char_traits<char32_t>,std::allocator<char32_t> >::_Take_contents, COMDAT
; _this$ = ecx

; 2838 :     _CONSTEXPR20_CONTAINER void _Take_contents(basic_string& _Right) noexcept {

	push	ebp
	mov	ebp, esp
	push	-1
	push	__ehhandler$?_Take_contents@?$basic_string@_UU?$char_traits@_U@std@@V?$allocator@_U@2@@std@@AAEXAAV12@@Z
	mov	eax, DWORD PTR fs:0
	push	eax
	sub	esp, 228				; 000000e4H
	push	ebx
	push	esi
	push	edi
	push	ecx
	lea	edi, DWORD PTR [ebp-48]
	mov	ecx, 9
	mov	eax, -858993460				; ccccccccH
	rep stosd
	pop	ecx
	mov	eax, DWORD PTR ___security_cookie
	xor	eax, ebp
	push	eax
	lea	eax, DWORD PTR __$EHRec$[ebp]
	mov	DWORD PTR fs:0, eax
	mov	DWORD PTR _this$[ebp], ecx
	mov	ecx, OFFSET __0D019051_xstring
	call	@__CheckForDebuggerJustMyCode@4

; 2839 :         // assign by stealing _Right's buffer
; 2840 :         // pre: this != &_Right
; 2841 :         // pre: allocator propagation (POCMA) from _Right, if necessary, is complete
; 2842 :         // pre: *this owns no memory, iterators orphaned
; 2843 :         // (note: _Buf/_Ptr/_Mysize/_Myres may be garbage init)
; 2844 :         auto& _My_data    = _Mypair._Myval2;

	mov	eax, DWORD PTR _this$[ebp]
	mov	DWORD PTR __My_data$[ebp], eax

; 2845 :         auto& _Right_data = _Right._Mypair._Myval2;

	mov	eax, DWORD PTR __Right$[ebp]
	mov	DWORD PTR __Right_data$[ebp], eax

; 2846 : 
; 2847 :         if constexpr (_Can_memcpy_val) {
; 2848 : #ifdef __cpp_lib_constexpr_string
; 2849 :             if (!_STD is_constant_evaluated())
; 2850 : #endif // __cpp_lib_constexpr_string
; 2851 :             {
; 2852 : #if _ITERATOR_DEBUG_LEVEL != 0
; 2853 :                 if (_Right_data._Large_string_engaged()) {

	mov	ecx, DWORD PTR __Right_data$[ebp]
	call	?_Large_string_engaged@?$_String_val@U?$_Simple_types@_U@std@@@std@@QBE_NXZ ; std::_String_val<std::_Simple_types<char32_t> >::_Large_string_engaged
	movzx	eax, al
	test	eax, eax
	je	SHORT $LN2@Take_conte

; 2854 :                     // take ownership of _Right's iterators along with its buffer
; 2855 :                     _Swap_proxy_and_iterators(_Right);

	mov	eax, DWORD PTR __Right$[ebp]
	push	eax
	mov	ecx, DWORD PTR _this$[ebp]
	call	?_Swap_proxy_and_iterators@?$basic_string@_UU?$char_traits@_U@std@@V?$allocator@_U@2@@std@@AAEXAAV12@@Z ; std::basic_string<char32_t,std::char_traits<char32_t>,std::allocator<char32_t> >::_Swap_proxy_and_iterators

; 2856 :                 } else {

	jmp	SHORT $LN3@Take_conte
$LN2@Take_conte:

; 2857 :                     _Right_data._Orphan_all();

	mov	ecx, DWORD PTR __Right_data$[ebp]
	call	?_Orphan_all@_Container_base12@std@@QAEXXZ ; std::_Container_base12::_Orphan_all
$LN3@Take_conte:

; 2858 :                 }
; 2859 : #endif // _ITERATOR_DEBUG_LEVEL != 0
; 2860 : 
; 2861 :                 _Memcpy_val_from(_Right);

	mov	eax, DWORD PTR __Right$[ebp]
	push	eax
	mov	ecx, DWORD PTR _this$[ebp]
	call	?_Memcpy_val_from@?$basic_string@_UU?$char_traits@_U@std@@V?$allocator@_U@2@@std@@AAEXABV12@@Z ; std::basic_string<char32_t,std::char_traits<char32_t>,std::allocator<char32_t> >::_Memcpy_val_from

; 2862 :                 _Right._Tidy_init();

	mov	ecx, DWORD PTR __Right$[ebp]
	call	?_Tidy_init@?$basic_string@_UU?$char_traits@_U@std@@V?$allocator@_U@2@@std@@AAEXXZ ; std::basic_string<char32_t,std::char_traits<char32_t>,std::allocator<char32_t> >::_Tidy_init

; 2863 :                 return;

	jmp	$LN6@Take_conte

; 2864 :             }
; 2865 :         }
; 2866 : 
; 2867 :         if (_Right_data._Large_string_engaged()) { // steal buffer

	mov	ecx, DWORD PTR __Right_data$[ebp]
	call	?_Large_string_engaged@?$_String_val@U?$_Simple_types@_U@std@@@std@@QBE_NXZ ; std::_String_val<std::_Simple_types<char32_t> >::_Large_string_engaged
	movzx	eax, al
	test	eax, eax
	je	SHORT $LN4@Take_conte

; 2868 :             _Construct_in_place(_My_data._Bx._Ptr, _Right_data._Bx._Ptr);

	mov	eax, DWORD PTR __Right_data$[ebp]
	add	eax, 4
	push	eax
	mov	ecx, DWORD PTR __My_data$[ebp]
	add	ecx, 4
	push	ecx
	call	??$_Construct_in_place@PA_UAAPA_U@std@@YAXAAPA_U0@Z ; std::_Construct_in_place<char32_t *,char32_t * &>
	add	esp, 8

; 2869 :             _Right_data._Bx._Ptr = nullptr;

	mov	eax, DWORD PTR __Right_data$[ebp]
	mov	DWORD PTR [eax+4], 0

; 2870 :             _Swap_proxy_and_iterators(_Right);

	mov	eax, DWORD PTR __Right$[ebp]
	push	eax
	mov	ecx, DWORD PTR _this$[ebp]
	call	?_Swap_proxy_and_iterators@?$basic_string@_UU?$char_traits@_U@std@@V?$allocator@_U@2@@std@@AAEXAAV12@@Z ; std::basic_string<char32_t,std::char_traits<char32_t>,std::allocator<char32_t> >::_Swap_proxy_and_iterators

; 2871 :         } else { // copy small string buffer

	jmp	SHORT $LN5@Take_conte
$LN4@Take_conte:

; 2872 :             _Traits::copy(_My_data._Bx._Buf, _Right_data._Bx._Buf, _Right_data._Mysize + 1);

	mov	eax, DWORD PTR __Right_data$[ebp]
	mov	ecx, DWORD PTR [eax+20]
	add	ecx, 1
	push	ecx
	mov	edx, DWORD PTR __Right_data$[ebp]
	add	edx, 4
	push	edx
	mov	eax, DWORD PTR __My_data$[ebp]
	add	eax, 4
	push	eax
	call	?copy@?$_Char_traits@_UI@std@@SAPA_UQA_UQB_UI@Z ; std::_Char_traits<char32_t,unsigned int>::copy
	add	esp, 12					; 0000000cH

; 2873 :             _Right_data._Orphan_all();

	mov	ecx, DWORD PTR __Right_data$[ebp]
	call	?_Orphan_all@_Container_base12@std@@QAEXXZ ; std::_Container_base12::_Orphan_all
$LN5@Take_conte:

; 2874 :         }
; 2875 : 
; 2876 :         _My_data._Mysize = _Right_data._Mysize;

	mov	eax, DWORD PTR __My_data$[ebp]
	mov	ecx, DWORD PTR __Right_data$[ebp]
	mov	edx, DWORD PTR [ecx+20]
	mov	DWORD PTR [eax+20], edx

; 2877 :         _My_data._Myres  = _Right_data._Myres;

	mov	eax, DWORD PTR __My_data$[ebp]
	mov	ecx, DWORD PTR __Right_data$[ebp]
	mov	edx, DWORD PTR [ecx+24]
	mov	DWORD PTR [eax+24], edx

; 2878 :         _Right._Tidy_init();

	mov	ecx, DWORD PTR __Right$[ebp]
	call	?_Tidy_init@?$basic_string@_UU?$char_traits@_U@std@@V?$allocator@_U@2@@std@@AAEXXZ ; std::basic_string<char32_t,std::char_traits<char32_t>,std::allocator<char32_t> >::_Tidy_init
$LN6@Take_conte:

; 2879 :     }

	mov	ecx, DWORD PTR __$EHRec$[ebp]
	mov	DWORD PTR fs:0, ecx
	pop	ecx
	pop	edi
	pop	esi
	pop	ebx
	add	esp, 240				; 000000f0H
	cmp	ebp, esp
	call	__RTC_CheckEsp
	mov	esp, ebp
	pop	ebp
	ret	4
	int	3
	int	3
	int	3
	int	3
	int	3
_TEXT	ENDS
;	COMDAT text$x
text$x	SEGMENT
__ehhandler$?_Take_contents@?$basic_string@_UU?$char_traits@_U@std@@V?$allocator@_U@2@@std@@AAEXAAV12@@Z:
	npad	1
	npad	1
	mov	edx, DWORD PTR [esp+8]
	lea	eax, DWORD PTR [edx+12]
	mov	ecx, DWORD PTR [edx-244]
	xor	ecx, eax
	call	@__security_check_cookie@4
	mov	eax, OFFSET __ehfuncinfo$?_Take_contents@?$basic_string@_UU?$char_traits@_U@std@@V?$allocator@_U@2@@std@@AAEXAAV12@@Z
	jmp	___CxxFrameHandler3
text$x	ENDS
?_Take_contents@?$basic_string@_UU?$char_traits@_U@std@@V?$allocator@_U@2@@std@@AAEXAAV12@@Z ENDP ; std::basic_string<char32_t,std::char_traits<char32_t>,std::allocator<char32_t> >::_Take_contents
; Function compile flags: /Odtp /RTCsu /ZI
; File C:\Program Files (x86)\Microsoft Visual Studio\2019\Community\VC\Tools\MSVC\14.29.30133\include\xstring
;	COMDAT ?_Memcpy_val_from@?$basic_string@_UU?$char_traits@_U@std@@V?$allocator@_U@2@@std@@AAEXABV12@@Z
_TEXT	SEGMENT
__Right_data_mem$ = -32					; size = 4
__My_data_mem$ = -20					; size = 4
_this$ = -8						; size = 4
__Right$ = 8						; size = 4
?_Memcpy_val_from@?$basic_string@_UU?$char_traits@_U@std@@V?$allocator@_U@2@@std@@AAEXABV12@@Z PROC ; std::basic_string<char32_t,std::char_traits<char32_t>,std::allocator<char32_t> >::_Memcpy_val_from, COMDAT
; _this$ = ecx

; 2829 :     void _Memcpy_val_from(const basic_string& _Right) noexcept {

	push	ebp
	mov	ebp, esp
	sub	esp, 228				; 000000e4H
	push	ebx
	push	esi
	push	edi
	push	ecx
	lea	edi, DWORD PTR [ebp-36]
	mov	ecx, 9
	mov	eax, -858993460				; ccccccccH
	rep stosd
	pop	ecx
	mov	DWORD PTR _this$[ebp], ecx
	mov	ecx, OFFSET __0D019051_xstring
	call	@__CheckForDebuggerJustMyCode@4

; 2830 :         _STL_INTERNAL_CHECK(_Can_memcpy_val); // TRANSITION, if constexpr
; 2831 :         const auto _My_data_mem =

	mov	eax, DWORD PTR _this$[ebp]
	push	eax
	call	??$addressof@V?$_String_val@U?$_Simple_types@_U@std@@@std@@@std@@YAPAV?$_String_val@U?$_Simple_types@_U@std@@@0@AAV10@@Z ; std::addressof<std::_String_val<std::_Simple_types<char32_t> > >
	add	esp, 4
	add	eax, 4
	mov	DWORD PTR __My_data_mem$[ebp], eax

; 2832 :             reinterpret_cast<unsigned char*>(_STD addressof(_Mypair._Myval2)) + _Memcpy_val_offset;
; 2833 :         const auto _Right_data_mem =

	mov	eax, DWORD PTR __Right$[ebp]
	push	eax
	call	??$addressof@$$CBV?$_String_val@U?$_Simple_types@_U@std@@@std@@@std@@YAPBV?$_String_val@U?$_Simple_types@_U@std@@@0@ABV10@@Z ; std::addressof<std::_String_val<std::_Simple_types<char32_t> > const >
	add	esp, 4
	add	eax, 4
	mov	DWORD PTR __Right_data_mem$[ebp], eax

; 2834 :             reinterpret_cast<const unsigned char*>(_STD addressof(_Right._Mypair._Myval2)) + _Memcpy_val_offset;
; 2835 :         _CSTD memcpy(_My_data_mem, _Right_data_mem, _Memcpy_val_size);

	push	24					; 00000018H
	mov	eax, DWORD PTR __Right_data_mem$[ebp]
	push	eax
	mov	ecx, DWORD PTR __My_data_mem$[ebp]
	push	ecx
	call	_memcpy
	add	esp, 12					; 0000000cH

; 2836 :     }

	pop	edi
	pop	esi
	pop	ebx
	add	esp, 228				; 000000e4H
	cmp	ebp, esp
	call	__RTC_CheckEsp
	mov	esp, ebp
	pop	ebp
	ret	4
?_Memcpy_val_from@?$basic_string@_UU?$char_traits@_U@std@@V?$allocator@_U@2@@std@@AAEXABV12@@Z ENDP ; std::basic_string<char32_t,std::char_traits<char32_t>,std::allocator<char32_t> >::_Memcpy_val_from
_TEXT	ENDS
; Function compile flags: /Odtp /RTCsu /ZI
; File C:\Program Files (x86)\Microsoft Visual Studio\2019\Community\VC\Tools\MSVC\14.29.30133\include\xstring
;	COMDAT ??0?$basic_string@_UU?$char_traits@_U@std@@V?$allocator@_U@2@@std@@QAE@$$QAV01@@Z
_TEXT	SEGMENT
$T2 = -233						; size = 1
$T3 = -221						; size = 1
_this$ = -20						; size = 4
__$EHRec$ = -12						; size = 12
__Right$ = 8						; size = 4
??0?$basic_string@_UU?$char_traits@_U@std@@V?$allocator@_U@2@@std@@QAE@$$QAV01@@Z PROC ; std::basic_string<char32_t,std::char_traits<char32_t>,std::allocator<char32_t> >::basic_string<char32_t,std::char_traits<char32_t>,std::allocator<char32_t> >, COMDAT
; _this$ = ecx

; 2571 :         : _Mypair(_One_then_variadic_args_t{}, _STD move(_Right._Getal())) {

	push	ebp
	mov	ebp, esp
	push	-1
	push	__ehhandler$??0?$basic_string@_UU?$char_traits@_U@std@@V?$allocator@_U@2@@std@@QAE@$$QAV01@@Z
	mov	eax, DWORD PTR fs:0
	push	eax
	sub	esp, 228				; 000000e4H
	push	ebx
	push	esi
	push	edi
	push	ecx
	lea	edi, DWORD PTR [ebp-48]
	mov	ecx, 9
	mov	eax, -858993460				; ccccccccH
	rep stosd
	pop	ecx
	mov	eax, DWORD PTR ___security_cookie
	xor	eax, ebp
	push	eax
	lea	eax, DWORD PTR __$EHRec$[ebp]
	mov	DWORD PTR fs:0, eax
	mov	DWORD PTR _this$[ebp], ecx
	mov	ecx, OFFSET __0D019051_xstring
	call	@__CheckForDebuggerJustMyCode@4
	mov	ecx, DWORD PTR __Right$[ebp]
	call	?_Getal@?$basic_string@_UU?$char_traits@_U@std@@V?$allocator@_U@2@@std@@AAEAAV?$allocator@_U@2@XZ ; std::basic_string<char32_t,std::char_traits<char32_t>,std::allocator<char32_t> >::_Getal
	push	eax
	call	??$move@AAV?$allocator@_U@std@@@std@@YA$$QAV?$allocator@_U@0@AAV10@@Z ; std::move<std::allocator<char32_t> &>
	add	esp, 4
	push	eax
	movzx	eax, BYTE PTR $T3[ebp]
	push	eax
	mov	ecx, DWORD PTR _this$[ebp]
	call	??$?0V?$allocator@_U@std@@$$V@?$_Compressed_pair@V?$allocator@_U@std@@V?$_String_val@U?$_Simple_types@_U@std@@@2@$00@std@@QAE@U_One_then_variadic_args_t@1@$$QAV?$allocator@_U@1@@Z ; std::_Compressed_pair<std::allocator<char32_t>,std::_String_val<std::_Simple_types<char32_t> >,1>::_Compressed_pair<std::allocator<char32_t>,std::_String_val<std::_Simple_types<char32_t> >,1><std::allocator<char32_t> >

; 2572 :         _Mypair._Myval2._Alloc_proxy(_GET_PROXY_ALLOCATOR(_Alty, _Getal()));

	mov	ecx, DWORD PTR _this$[ebp]
	call	?_Getal@?$basic_string@_UU?$char_traits@_U@std@@V?$allocator@_U@2@@std@@AAEAAV?$allocator@_U@2@XZ ; std::basic_string<char32_t,std::char_traits<char32_t>,std::allocator<char32_t> >::_Getal
	push	eax
	lea	ecx, DWORD PTR $T2[ebp]
	call	??$?0_U@?$allocator@U_Container_proxy@std@@@std@@QAE@ABV?$allocator@_U@1@@Z ; std::allocator<std::_Container_proxy>::allocator<std::_Container_proxy><char32_t>
	push	eax
	mov	ecx, DWORD PTR _this$[ebp]
	call	??$_Alloc_proxy@V?$allocator@U_Container_proxy@std@@@std@@@_Container_base12@std@@QAEX$$QAV?$allocator@U_Container_proxy@std@@@1@@Z ; std::_Container_base12::_Alloc_proxy<std::allocator<std::_Container_proxy> >

; 2573 :         _Take_contents(_Right);

	mov	eax, DWORD PTR __Right$[ebp]
	push	eax
	mov	ecx, DWORD PTR _this$[ebp]
	call	?_Take_contents@?$basic_string@_UU?$char_traits@_U@std@@V?$allocator@_U@2@@std@@AAEXAAV12@@Z ; std::basic_string<char32_t,std::char_traits<char32_t>,std::allocator<char32_t> >::_Take_contents

; 2574 :     }

	mov	eax, DWORD PTR _this$[ebp]
	mov	ecx, DWORD PTR __$EHRec$[ebp]
	mov	DWORD PTR fs:0, ecx
	pop	ecx
	pop	edi
	pop	esi
	pop	ebx
	add	esp, 240				; 000000f0H
	cmp	ebp, esp
	call	__RTC_CheckEsp
	mov	esp, ebp
	pop	ebp
	ret	4
	int	3
	int	3
	int	3
	int	3
	int	3
_TEXT	ENDS
;	COMDAT text$x
text$x	SEGMENT
__ehhandler$??0?$basic_string@_UU?$char_traits@_U@std@@V?$allocator@_U@2@@std@@QAE@$$QAV01@@Z:
	npad	1
	npad	1
	mov	edx, DWORD PTR [esp+8]
	lea	eax, DWORD PTR [edx+12]
	mov	ecx, DWORD PTR [edx-244]
	xor	ecx, eax
	call	@__security_check_cookie@4
	mov	eax, OFFSET __ehfuncinfo$??0?$basic_string@_UU?$char_traits@_U@std@@V?$allocator@_U@2@@std@@QAE@$$QAV01@@Z
	jmp	___CxxFrameHandler3
text$x	ENDS
??0?$basic_string@_UU?$char_traits@_U@std@@V?$allocator@_U@2@@std@@QAE@$$QAV01@@Z ENDP ; std::basic_string<char32_t,std::char_traits<char32_t>,std::allocator<char32_t> >::basic_string<char32_t,std::char_traits<char32_t>,std::allocator<char32_t> >
; Function compile flags: /Odtp /RTCsu /ZI
; File C:\Program Files (x86)\Microsoft Visual Studio\2019\Community\VC\Tools\MSVC\14.29.30133\include\xstring
;	COMDAT ??0?$basic_string@_UU?$char_traits@_U@std@@V?$allocator@_U@2@@std@@QAE@QB_UI@Z
_TEXT	SEGMENT
$T2 = -265						; size = 1
__Proxy$ = -64						; size = 8
_$S2$ = -45						; size = 1
__Alproxy$ = -36					; size = 4
_this$ = -24						; size = 4
__$ArrayPad$ = -16					; size = 4
__$EHRec$ = -12						; size = 12
__Ptr$ = 8						; size = 4
__Count$ = 12						; size = 4
??0?$basic_string@_UU?$char_traits@_U@std@@V?$allocator@_U@2@@std@@QAE@QB_UI@Z PROC ; std::basic_string<char32_t,std::char_traits<char32_t>,std::allocator<char32_t> >::basic_string<char32_t,std::char_traits<char32_t>,std::allocator<char32_t> >, COMDAT
; _this$ = ecx

; 2465 :         : _Mypair(_Zero_then_variadic_args_t{}) {

	push	ebp
	mov	ebp, esp
	push	-1
	push	__ehhandler$??0?$basic_string@_UU?$char_traits@_U@std@@V?$allocator@_U@2@@std@@QAE@QB_UI@Z
	mov	eax, DWORD PTR fs:0
	push	eax
	sub	esp, 260				; 00000104H
	push	ebx
	push	esi
	push	edi
	push	ecx
	lea	edi, DWORD PTR [ebp-80]
	mov	ecx, 17					; 00000011H
	mov	eax, -858993460				; ccccccccH
	rep stosd
	pop	ecx
	mov	eax, DWORD PTR ___security_cookie
	xor	eax, ebp
	mov	DWORD PTR __$ArrayPad$[ebp], eax
	push	eax
	lea	eax, DWORD PTR __$EHRec$[ebp]
	mov	DWORD PTR fs:0, eax
	mov	DWORD PTR _this$[ebp], ecx
	mov	ecx, OFFSET __0D019051_xstring
	call	@__CheckForDebuggerJustMyCode@4
	movzx	eax, BYTE PTR $T2[ebp]
	push	eax
	mov	ecx, DWORD PTR _this$[ebp]
	call	??$?0$$V@?$_Compressed_pair@V?$allocator@_U@std@@V?$_String_val@U?$_Simple_types@_U@std@@@2@$00@std@@QAE@U_Zero_then_variadic_args_t@1@@Z ; std::_Compressed_pair<std::allocator<char32_t>,std::_String_val<std::_Simple_types<char32_t> >,1>::_Compressed_pair<std::allocator<char32_t>,std::_String_val<std::_Simple_types<char32_t> >,1><>
	mov	DWORD PTR __$EHRec$[ebp+8], 0

; 2466 :         auto&& _Alproxy = _GET_PROXY_ALLOCATOR(_Alty, _Getal());

	mov	ecx, DWORD PTR _this$[ebp]
	call	?_Getal@?$basic_string@_UU?$char_traits@_U@std@@V?$allocator@_U@2@@std@@AAEAAV?$allocator@_U@2@XZ ; std::basic_string<char32_t,std::char_traits<char32_t>,std::allocator<char32_t> >::_Getal
	push	eax
	lea	ecx, DWORD PTR _$S2$[ebp]
	call	??$?0_U@?$allocator@U_Container_proxy@std@@@std@@QAE@ABV?$allocator@_U@1@@Z ; std::allocator<std::_Container_proxy>::allocator<std::_Container_proxy><char32_t>
	lea	eax, DWORD PTR _$S2$[ebp]
	mov	DWORD PTR __Alproxy$[ebp], eax

; 2467 :         _Container_proxy_ptr<_Alty> _Proxy(_Alproxy, _Mypair._Myval2);

	mov	eax, DWORD PTR _this$[ebp]
	push	eax
	mov	ecx, DWORD PTR __Alproxy$[ebp]
	push	ecx
	lea	ecx, DWORD PTR __Proxy$[ebp]
	call	??0?$_Container_proxy_ptr12@V?$allocator@U_Container_proxy@std@@@std@@@std@@QAE@AAV?$allocator@U_Container_proxy@std@@@1@AAU_Container_base12@1@@Z ; std::_Container_proxy_ptr12<std::allocator<std::_Container_proxy> >::_Container_proxy_ptr12<std::allocator<std::_Container_proxy> >
	mov	BYTE PTR __$EHRec$[ebp+8], 1

; 2468 :         _Tidy_init();

	mov	ecx, DWORD PTR _this$[ebp]
	call	?_Tidy_init@?$basic_string@_UU?$char_traits@_U@std@@V?$allocator@_U@2@@std@@AAEXXZ ; std::basic_string<char32_t,std::char_traits<char32_t>,std::allocator<char32_t> >::_Tidy_init

; 2469 :         assign(_Ptr, _Count);

	mov	eax, DWORD PTR __Count$[ebp]
	push	eax
	mov	ecx, DWORD PTR __Ptr$[ebp]
	push	ecx
	mov	ecx, DWORD PTR _this$[ebp]
	call	?assign@?$basic_string@_UU?$char_traits@_U@std@@V?$allocator@_U@2@@std@@QAEAAV12@QB_UI@Z ; std::basic_string<char32_t,std::char_traits<char32_t>,std::allocator<char32_t> >::assign

; 2470 :         _Proxy._Release();

	lea	ecx, DWORD PTR __Proxy$[ebp]
	call	?_Release@_Basic_container_proxy_ptr12@std@@QAEXXZ ; std::_Basic_container_proxy_ptr12::_Release

; 2471 :     }

	mov	BYTE PTR __$EHRec$[ebp+8], 0
	lea	ecx, DWORD PTR __Proxy$[ebp]
	call	??1?$_Container_proxy_ptr12@V?$allocator@U_Container_proxy@std@@@std@@@std@@QAE@XZ ; std::_Container_proxy_ptr12<std::allocator<std::_Container_proxy> >::~_Container_proxy_ptr12<std::allocator<std::_Container_proxy> >
	mov	DWORD PTR __$EHRec$[ebp+8], -1
	mov	eax, DWORD PTR _this$[ebp]
	push	edx
	mov	ecx, ebp
	push	eax
	lea	edx, DWORD PTR $LN9@basic_stri
	call	@_RTC_CheckStackVars@8
	pop	eax
	pop	edx
	mov	ecx, DWORD PTR __$EHRec$[ebp]
	mov	DWORD PTR fs:0, ecx
	pop	ecx
	pop	edi
	pop	esi
	pop	ebx
	mov	ecx, DWORD PTR __$ArrayPad$[ebp]
	xor	ecx, ebp
	call	@__security_check_cookie@4
	add	esp, 272				; 00000110H
	cmp	ebp, esp
	call	__RTC_CheckEsp
	mov	esp, ebp
	pop	ebp
	ret	8
$LN9@basic_stri:
	DD	2
	DD	$LN8@basic_stri
$LN8@basic_stri:
	DD	-45					; ffffffd3H
	DD	1
	DD	$LN5@basic_stri
	DD	-64					; ffffffc0H
	DD	8
	DD	$LN6@basic_stri
$LN6@basic_stri:
	DB	95					; 0000005fH
	DB	80					; 00000050H
	DB	114					; 00000072H
	DB	111					; 0000006fH
	DB	120					; 00000078H
	DB	121					; 00000079H
	DB	0
$LN5@basic_stri:
	DB	36					; 00000024H
	DB	83					; 00000053H
	DB	50					; 00000032H
	DB	0
_TEXT	ENDS
;	COMDAT text$x
text$x	SEGMENT
__unwindfunclet$??0?$basic_string@_UU?$char_traits@_U@std@@V?$allocator@_U@2@@std@@QAE@QB_UI@Z$0:
	mov	ecx, DWORD PTR _this$[ebp]
	jmp	??1?$_Compressed_pair@V?$allocator@_U@std@@V?$_String_val@U?$_Simple_types@_U@std@@@2@$00@std@@QAE@XZ
__unwindfunclet$??0?$basic_string@_UU?$char_traits@_U@std@@V?$allocator@_U@2@@std@@QAE@QB_UI@Z$1:
	lea	ecx, DWORD PTR __Proxy$[ebp]
	jmp	??1?$_Container_proxy_ptr12@V?$allocator@U_Container_proxy@std@@@std@@@std@@QAE@XZ ; std::_Container_proxy_ptr12<std::allocator<std::_Container_proxy> >::~_Container_proxy_ptr12<std::allocator<std::_Container_proxy> >
	int	3
	int	3
	int	3
	int	3
	int	3
__ehhandler$??0?$basic_string@_UU?$char_traits@_U@std@@V?$allocator@_U@2@@std@@QAE@QB_UI@Z:
	npad	1
	npad	1
	mov	edx, DWORD PTR [esp+8]
	lea	eax, DWORD PTR [edx+12]
	mov	ecx, DWORD PTR [edx-276]
	xor	ecx, eax
	call	@__security_check_cookie@4
	mov	ecx, DWORD PTR [edx-4]
	xor	ecx, eax
	call	@__security_check_cookie@4
	mov	eax, OFFSET __ehfuncinfo$??0?$basic_string@_UU?$char_traits@_U@std@@V?$allocator@_U@2@@std@@QAE@QB_UI@Z
	jmp	___CxxFrameHandler3
text$x	ENDS
??0?$basic_string@_UU?$char_traits@_U@std@@V?$allocator@_U@2@@std@@QAE@QB_UI@Z ENDP ; std::basic_string<char32_t,std::char_traits<char32_t>,std::allocator<char32_t> >::basic_string<char32_t,std::char_traits<char32_t>,std::allocator<char32_t> >
; Function compile flags: /Odtp /RTCsu /ZI
;	COMDAT ??1?$_String_val@U?$_Simple_types@_U@std@@@std@@QAE@XZ
_TEXT	SEGMENT
_this$ = -8						; size = 4
??1?$_String_val@U?$_Simple_types@_U@std@@@std@@QAE@XZ PROC ; std::_String_val<std::_Simple_types<char32_t> >::~_String_val<std::_Simple_types<char32_t> >, COMDAT
; _this$ = ecx
	push	ebp
	mov	ebp, esp
	sub	esp, 204				; 000000ccH
	push	ebx
	push	esi
	push	edi
	push	ecx
	lea	edi, DWORD PTR [ebp-12]
	mov	ecx, 3
	mov	eax, -858993460				; ccccccccH
	rep stosd
	pop	ecx
	mov	DWORD PTR _this$[ebp], ecx
	mov	ecx, DWORD PTR _this$[ebp]
	add	ecx, 4
	call	??1_Bxty@?$_String_val@U?$_Simple_types@_U@std@@@std@@QAE@XZ ; std::_String_val<std::_Simple_types<char32_t> >::_Bxty::~_Bxty
	pop	edi
	pop	esi
	pop	ebx
	add	esp, 204				; 000000ccH
	cmp	ebp, esp
	call	__RTC_CheckEsp
	mov	esp, ebp
	pop	ebp
	ret	0
??1?$_String_val@U?$_Simple_types@_U@std@@@std@@QAE@XZ ENDP ; std::_String_val<std::_Simple_types<char32_t> >::~_String_val<std::_Simple_types<char32_t> >
_TEXT	ENDS
; Function compile flags: /Odtp /RTCsu /ZI
; File C:\Program Files (x86)\Microsoft Visual Studio\2019\Community\VC\Tools\MSVC\14.29.30133\include\xstring
;	COMDAT ??1_Bxty@?$_String_val@U?$_Simple_types@_U@std@@@std@@QAE@XZ
_TEXT	SEGMENT
_this$ = -8						; size = 4
??1_Bxty@?$_String_val@U?$_Simple_types@_U@std@@@std@@QAE@XZ PROC ; std::_String_val<std::_Simple_types<char32_t> >::_Bxty::~_Bxty, COMDAT
; _this$ = ecx

; 2315 :         _CONSTEXPR20_CONTAINER ~_Bxty() noexcept {} // user-provided, for fancy pointers

	push	ebp
	mov	ebp, esp
	sub	esp, 204				; 000000ccH
	push	ebx
	push	esi
	push	edi
	push	ecx
	lea	edi, DWORD PTR [ebp-12]
	mov	ecx, 3
	mov	eax, -858993460				; ccccccccH
	rep stosd
	pop	ecx
	mov	DWORD PTR _this$[ebp], ecx
	mov	ecx, OFFSET __0D019051_xstring
	call	@__CheckForDebuggerJustMyCode@4
	pop	edi
	pop	esi
	pop	ebx
	add	esp, 204				; 000000ccH
	cmp	ebp, esp
	call	__RTC_CheckEsp
	mov	esp, ebp
	pop	ebp
	ret	0
??1_Bxty@?$_String_val@U?$_Simple_types@_U@std@@@std@@QAE@XZ ENDP ; std::_String_val<std::_Simple_types<char32_t> >::_Bxty::~_Bxty
_TEXT	ENDS
; Function compile flags: /Odtp /RTCsu /ZI
; File C:\Program Files (x86)\Microsoft Visual Studio\2019\Community\VC\Tools\MSVC\14.29.30133\include\xstring
;	COMDAT ??0_Bxty@?$_String_val@U?$_Simple_types@_U@std@@@std@@QAE@XZ
_TEXT	SEGMENT
_this$ = -8						; size = 4
??0_Bxty@?$_String_val@U?$_Simple_types@_U@std@@@std@@QAE@XZ PROC ; std::_String_val<std::_Simple_types<char32_t> >::_Bxty::_Bxty, COMDAT
; _this$ = ecx

; 2313 :         _CONSTEXPR20_CONTAINER _Bxty() noexcept : _Ptr() {} // user-provided, for fancy pointers

	push	ebp
	mov	ebp, esp
	sub	esp, 204				; 000000ccH
	push	ebx
	push	esi
	push	edi
	push	ecx
	lea	edi, DWORD PTR [ebp-12]
	mov	ecx, 3
	mov	eax, -858993460				; ccccccccH
	rep stosd
	pop	ecx
	mov	DWORD PTR _this$[ebp], ecx
	mov	ecx, OFFSET __0D019051_xstring
	call	@__CheckForDebuggerJustMyCode@4
	mov	eax, DWORD PTR _this$[ebp]
	mov	DWORD PTR [eax], 0
	mov	eax, DWORD PTR _this$[ebp]
	pop	edi
	pop	esi
	pop	ebx
	add	esp, 204				; 000000ccH
	cmp	ebp, esp
	call	__RTC_CheckEsp
	mov	esp, ebp
	pop	ebp
	ret	0
??0_Bxty@?$_String_val@U?$_Simple_types@_U@std@@@std@@QAE@XZ ENDP ; std::_String_val<std::_Simple_types<char32_t> >::_Bxty::_Bxty
_TEXT	ENDS
; Function compile flags: /Odtp /RTCsu /ZI
; File C:\Program Files (x86)\Microsoft Visual Studio\2019\Community\VC\Tools\MSVC\14.29.30133\include\xstring
;	COMDAT ?_Large_string_engaged@?$_String_val@U?$_Simple_types@_U@std@@@std@@QBE_NXZ
_TEXT	SEGMENT
tv66 = -208						; size = 4
_this$ = -8						; size = 4
?_Large_string_engaged@?$_String_val@U?$_Simple_types@_U@std@@@std@@QBE_NXZ PROC ; std::_String_val<std::_Simple_types<char32_t> >::_Large_string_engaged, COMDAT
; _this$ = ecx

; 2280 :     _CONSTEXPR20_CONTAINER bool _Large_string_engaged() const noexcept {

	push	ebp
	mov	ebp, esp
	sub	esp, 208				; 000000d0H
	push	ebx
	push	esi
	push	edi
	push	ecx
	lea	edi, DWORD PTR [ebp-16]
	mov	ecx, 4
	mov	eax, -858993460				; ccccccccH
	rep stosd
	pop	ecx
	mov	DWORD PTR _this$[ebp], ecx
	mov	ecx, OFFSET __0D019051_xstring
	call	@__CheckForDebuggerJustMyCode@4

; 2281 : #ifdef __cpp_lib_constexpr_string
; 2282 :         if (_STD is_constant_evaluated()) {
; 2283 :             return true;
; 2284 :         }
; 2285 : #endif // __cpp_lib_constexpr_string
; 2286 :         return _BUF_SIZE <= _Myres;

	mov	eax, DWORD PTR _this$[ebp]
	cmp	DWORD PTR [eax+24], 4
	jb	SHORT $LN3@Large_stri
	mov	DWORD PTR tv66[ebp], 1
	jmp	SHORT $LN4@Large_stri
$LN3@Large_stri:
	mov	DWORD PTR tv66[ebp], 0
$LN4@Large_stri:
	mov	al, BYTE PTR tv66[ebp]

; 2287 :     }

	pop	edi
	pop	esi
	pop	ebx
	add	esp, 208				; 000000d0H
	cmp	ebp, esp
	call	__RTC_CheckEsp
	mov	esp, ebp
	pop	ebp
	ret	0
?_Large_string_engaged@?$_String_val@U?$_Simple_types@_U@std@@@std@@QBE_NXZ ENDP ; std::_String_val<std::_Simple_types<char32_t> >::_Large_string_engaged
_TEXT	ENDS
; Function compile flags: /Odtp /RTCsu /ZI
; File C:\Program Files (x86)\Microsoft Visual Studio\2019\Community\VC\Tools\MSVC\14.29.30133\include\xstring
;	COMDAT ?_Myptr@?$_String_val@U?$_Simple_types@_U@std@@@std@@QAEPA_UXZ
_TEXT	SEGMENT
__Result$ = -20						; size = 4
_this$ = -8						; size = 4
?_Myptr@?$_String_val@U?$_Simple_types@_U@std@@@std@@QAEPA_UXZ PROC ; std::_String_val<std::_Simple_types<char32_t> >::_Myptr, COMDAT
; _this$ = ecx

; 2262 :     _CONSTEXPR20_CONTAINER value_type* _Myptr() noexcept {

	push	ebp
	mov	ebp, esp
	sub	esp, 216				; 000000d8H
	push	ebx
	push	esi
	push	edi
	push	ecx
	lea	edi, DWORD PTR [ebp-24]
	mov	ecx, 6
	mov	eax, -858993460				; ccccccccH
	rep stosd
	pop	ecx
	mov	DWORD PTR _this$[ebp], ecx
	mov	ecx, OFFSET __0D019051_xstring
	call	@__CheckForDebuggerJustMyCode@4

; 2263 :         value_type* _Result = _Bx._Buf;

	mov	eax, DWORD PTR _this$[ebp]
	add	eax, 4
	mov	DWORD PTR __Result$[ebp], eax

; 2264 :         if (_Large_string_engaged()) {

	mov	ecx, DWORD PTR _this$[ebp]
	call	?_Large_string_engaged@?$_String_val@U?$_Simple_types@_U@std@@@std@@QBE_NXZ ; std::_String_val<std::_Simple_types<char32_t> >::_Large_string_engaged
	movzx	eax, al
	test	eax, eax
	je	SHORT $LN2@Myptr

; 2265 :             _Result = _Unfancy(_Bx._Ptr);

	mov	eax, DWORD PTR _this$[ebp]
	mov	ecx, DWORD PTR [eax+4]
	push	ecx
	call	??$_Unfancy@_U@std@@YAPA_UPA_U@Z	; std::_Unfancy<char32_t>
	add	esp, 4
	mov	DWORD PTR __Result$[ebp], eax
$LN2@Myptr:

; 2266 :         }
; 2267 : 
; 2268 :         return _Result;

	mov	eax, DWORD PTR __Result$[ebp]

; 2269 :     }

	pop	edi
	pop	esi
	pop	ebx
	add	esp, 216				; 000000d8H
	cmp	ebp, esp
	call	__RTC_CheckEsp
	mov	esp, ebp
	pop	ebp
	ret	0
?_Myptr@?$_String_val@U?$_Simple_types@_U@std@@@std@@QAEPA_UXZ ENDP ; std::_String_val<std::_Simple_types<char32_t> >::_Myptr
_TEXT	ENDS
; Function compile flags: /Odtp /RTCsu /ZI
; File C:\Program Files (x86)\Microsoft Visual Studio\2019\Community\VC\Tools\MSVC\14.29.30133\include\xstring
;	COMDAT ??0?$_String_val@U?$_Simple_types@_U@std@@@std@@QAE@XZ
_TEXT	SEGMENT
_this$ = -8						; size = 4
??0?$_String_val@U?$_Simple_types@_U@std@@@std@@QAE@XZ PROC ; std::_String_val<std::_Simple_types<char32_t> >::_String_val<std::_Simple_types<char32_t> >, COMDAT
; _this$ = ecx

; 2251 :     _CONSTEXPR20_CONTAINER _String_val() noexcept : _Bx() {}

	push	ebp
	mov	ebp, esp
	sub	esp, 204				; 000000ccH
	push	ebx
	push	esi
	push	edi
	push	ecx
	lea	edi, DWORD PTR [ebp-12]
	mov	ecx, 3
	mov	eax, -858993460				; ccccccccH
	rep stosd
	pop	ecx
	mov	DWORD PTR _this$[ebp], ecx
	mov	ecx, OFFSET __0D019051_xstring
	call	@__CheckForDebuggerJustMyCode@4
	mov	ecx, DWORD PTR _this$[ebp]
	call	??0_Container_base12@std@@QAE@XZ	; std::_Container_base12::_Container_base12
	mov	ecx, DWORD PTR _this$[ebp]
	add	ecx, 4
	call	??0_Bxty@?$_String_val@U?$_Simple_types@_U@std@@@std@@QAE@XZ ; std::_String_val<std::_Simple_types<char32_t> >::_Bxty::_Bxty

; 2252 : 
; 2253 :     // length of internal buffer, [1, 16]:
; 2254 :     static constexpr size_type _BUF_SIZE = 16 / sizeof(value_type) < 1 ? 1 : 16 / sizeof(value_type);
; 2255 :     // roundup mask for allocated buffers, [0, 15]:
; 2256 :     static constexpr size_type _ALLOC_MASK = sizeof(value_type) <= 1 ? 15
; 2257 :                                            : sizeof(value_type) <= 2 ? 7
; 2258 :                                            : sizeof(value_type) <= 4 ? 3
; 2259 :                                            : sizeof(value_type) <= 8 ? 1
; 2260 :                                                                      : 0;
; 2261 : 
; 2262 :     _CONSTEXPR20_CONTAINER value_type* _Myptr() noexcept {
; 2263 :         value_type* _Result = _Bx._Buf;
; 2264 :         if (_Large_string_engaged()) {
; 2265 :             _Result = _Unfancy(_Bx._Ptr);
; 2266 :         }
; 2267 : 
; 2268 :         return _Result;
; 2269 :     }
; 2270 : 
; 2271 :     _CONSTEXPR20_CONTAINER const value_type* _Myptr() const noexcept {
; 2272 :         const value_type* _Result = _Bx._Buf;
; 2273 :         if (_Large_string_engaged()) {
; 2274 :             _Result = _Unfancy(_Bx._Ptr);
; 2275 :         }
; 2276 : 
; 2277 :         return _Result;
; 2278 :     }
; 2279 : 
; 2280 :     _CONSTEXPR20_CONTAINER bool _Large_string_engaged() const noexcept {
; 2281 : #ifdef __cpp_lib_constexpr_string
; 2282 :         if (_STD is_constant_evaluated()) {
; 2283 :             return true;
; 2284 :         }
; 2285 : #endif // __cpp_lib_constexpr_string
; 2286 :         return _BUF_SIZE <= _Myres;
; 2287 :     }
; 2288 : 
; 2289 :     _CONSTEXPR20_CONTAINER void _Check_offset(const size_type _Off) const {
; 2290 :         // checks whether _Off is in the bounds of [0, size()]
; 2291 :         if (_Mysize < _Off) {
; 2292 :             _Xran();
; 2293 :         }
; 2294 :     }
; 2295 : 
; 2296 :     _CONSTEXPR20_CONTAINER void _Check_offset_exclusive(const size_type _Off) const {
; 2297 :         // checks whether _Off is in the bounds of [0, size())
; 2298 :         if (_Mysize <= _Off) {
; 2299 :             _Xran();
; 2300 :         }
; 2301 :     }
; 2302 : 
; 2303 :     [[noreturn]] static void _Xran() {
; 2304 :         _Xout_of_range("invalid string position");
; 2305 :     }
; 2306 : 
; 2307 :     _CONSTEXPR20_CONTAINER size_type _Clamp_suffix_size(const size_type _Off, const size_type _Size) const noexcept {
; 2308 :         // trims _Size to the longest it can be assuming a string at/after _Off
; 2309 :         return (_STD min)(_Size, _Mysize - _Off);
; 2310 :     }
; 2311 : 
; 2312 :     union _Bxty { // storage for small buffer or pointer to larger one
; 2313 :         _CONSTEXPR20_CONTAINER _Bxty() noexcept : _Ptr() {} // user-provided, for fancy pointers
; 2314 : 
; 2315 :         _CONSTEXPR20_CONTAINER ~_Bxty() noexcept {} // user-provided, for fancy pointers
; 2316 : 
; 2317 :         value_type _Buf[_BUF_SIZE];
; 2318 :         pointer _Ptr;
; 2319 :         char _Alias[_BUF_SIZE]; // TRANSITION, ABI: _Alias is preserved for binary compatibility (especially /clr)
; 2320 :     } _Bx;
; 2321 : 
; 2322 :     size_type _Mysize = 0; // current length of string

	mov	eax, DWORD PTR _this$[ebp]
	mov	DWORD PTR [eax+20], 0

; 2323 :     size_type _Myres  = 0; // current storage reserved for string

	mov	eax, DWORD PTR _this$[ebp]
	mov	DWORD PTR [eax+24], 0

; 2251 :     _CONSTEXPR20_CONTAINER _String_val() noexcept : _Bx() {}

	mov	eax, DWORD PTR _this$[ebp]
	pop	edi
	pop	esi
	pop	ebx
	add	esp, 204				; 000000ccH
	cmp	ebp, esp
	call	__RTC_CheckEsp
	mov	esp, ebp
	pop	ebp
	ret	0
??0?$_String_val@U?$_Simple_types@_U@std@@@std@@QAE@XZ ENDP ; std::_String_val<std::_Simple_types<char32_t> >::_String_val<std::_Simple_types<char32_t> >
_TEXT	ENDS
; Function compile flags: /Odtp /RTCsu /ZI
; File C:\Program Files (x86)\Microsoft Visual Studio\2019\Community\VC\Tools\MSVC\14.29.30133\include\xmemory
;	COMDAT ?max_size@?$_Default_allocator_traits@V?$allocator@_U@std@@@std@@SAIABV?$allocator@_U@2@@Z
_TEXT	SEGMENT
___formal$ = 8						; size = 4
?max_size@?$_Default_allocator_traits@V?$allocator@_U@std@@@std@@SAIABV?$allocator@_U@2@@Z PROC ; std::_Default_allocator_traits<std::allocator<char32_t> >::max_size, COMDAT

; 694  :     _NODISCARD static _CONSTEXPR20_DYNALLOC size_type max_size(const _Alloc&) noexcept {

	push	ebp
	mov	ebp, esp
	sub	esp, 192				; 000000c0H
	push	ebx
	push	esi
	push	edi
	mov	edi, ebp
	xor	ecx, ecx
	mov	eax, -858993460				; ccccccccH
	rep stosd
	mov	ecx, OFFSET __79D216CD_xmemory
	call	@__CheckForDebuggerJustMyCode@4

; 695  :         return static_cast<size_t>(-1) / sizeof(value_type);

	mov	eax, 1073741823				; 3fffffffH

; 696  :     }

	pop	edi
	pop	esi
	pop	ebx
	add	esp, 192				; 000000c0H
	cmp	ebp, esp
	call	__RTC_CheckEsp
	mov	esp, ebp
	pop	ebp
	ret	0
?max_size@?$_Default_allocator_traits@V?$allocator@_U@std@@@std@@SAIABV?$allocator@_U@2@@Z ENDP ; std::_Default_allocator_traits<std::allocator<char32_t> >::max_size
_TEXT	ENDS
; Function compile flags: /Odtp /RTCsu /ZI
; File C:\Program Files (x86)\Microsoft Visual Studio\2019\Community\VC\Tools\MSVC\14.29.30133\include\xmemory
;	COMDAT ?allocate@?$allocator@_U@std@@QAEPA_UI@Z
_TEXT	SEGMENT
_this$ = -8						; size = 4
__Count$ = 8						; size = 4
?allocate@?$allocator@_U@std@@QAEPA_UI@Z PROC		; std::allocator<char32_t>::allocate, COMDAT
; _this$ = ecx

; 800  :     _NODISCARD _CONSTEXPR20_DYNALLOC __declspec(allocator) _Ty* allocate(_CRT_GUARDOVERFLOW const size_t _Count) {

	push	ebp
	mov	ebp, esp
	sub	esp, 204				; 000000ccH
	push	ebx
	push	esi
	push	edi
	push	ecx
	lea	edi, DWORD PTR [ebp-12]
	mov	ecx, 3
	mov	eax, -858993460				; ccccccccH
	rep stosd
	pop	ecx
	mov	DWORD PTR _this$[ebp], ecx
	mov	ecx, OFFSET __79D216CD_xmemory
	call	@__CheckForDebuggerJustMyCode@4

; 801  :         return static_cast<_Ty*>(_Allocate<_New_alignof<_Ty>>(_Get_size_of_n<sizeof(_Ty)>(_Count)));

	mov	eax, DWORD PTR __Count$[ebp]
	push	eax
	call	??$_Get_size_of_n@$03@std@@YAII@Z	; std::_Get_size_of_n<4>
	add	esp, 4
	push	eax
	call	??$_Allocate@$07U_Default_allocate_traits@std@@$0A@@std@@YAPAXI@Z ; std::_Allocate<8,std::_Default_allocate_traits,0>
	add	esp, 4

; 802  :     }

	pop	edi
	pop	esi
	pop	ebx
	add	esp, 204				; 000000ccH
	cmp	ebp, esp
	call	__RTC_CheckEsp
	mov	esp, ebp
	pop	ebp
	ret	4
?allocate@?$allocator@_U@std@@QAEPA_UI@Z ENDP		; std::allocator<char32_t>::allocate
_TEXT	ENDS
; Function compile flags: /Odtp /RTCsu /ZI
; File C:\Program Files (x86)\Microsoft Visual Studio\2019\Community\VC\Tools\MSVC\14.29.30133\include\xmemory
;	COMDAT ?deallocate@?$allocator@_U@std@@QAEXQA_UI@Z
_TEXT	SEGMENT
_this$ = -8						; size = 4
__Ptr$ = 8						; size = 4
__Count$ = 12						; size = 4
?deallocate@?$allocator@_U@std@@QAEXQA_UI@Z PROC	; std::allocator<char32_t>::deallocate, COMDAT
; _this$ = ecx

; 795  :     _CONSTEXPR20_DYNALLOC void deallocate(_Ty* const _Ptr, const size_t _Count) {

	push	ebp
	mov	ebp, esp
	sub	esp, 204				; 000000ccH
	push	ebx
	push	esi
	push	edi
	push	ecx
	lea	edi, DWORD PTR [ebp-12]
	mov	ecx, 3
	mov	eax, -858993460				; ccccccccH
	rep stosd
	pop	ecx
	mov	DWORD PTR _this$[ebp], ecx
	mov	ecx, OFFSET __79D216CD_xmemory
	call	@__CheckForDebuggerJustMyCode@4

; 796  :         // no overflow check on the following multiply; we assume _Allocate did that check
; 797  :         _Deallocate<_New_alignof<_Ty>>(_Ptr, sizeof(_Ty) * _Count);

	mov	eax, DWORD PTR __Count$[ebp]
	shl	eax, 2
	push	eax
	mov	ecx, DWORD PTR __Ptr$[ebp]
	push	ecx
	call	??$_Deallocate@$07$0A@@std@@YAXPAXI@Z	; std::_Deallocate<8,0>
	add	esp, 8

; 798  :     }

	pop	edi
	pop	esi
	pop	ebx
	add	esp, 204				; 000000ccH
	cmp	ebp, esp
	call	__RTC_CheckEsp
	mov	esp, ebp
	pop	ebp
	ret	8
?deallocate@?$allocator@_U@std@@QAEXQA_UI@Z ENDP	; std::allocator<char32_t>::deallocate
_TEXT	ENDS
; Function compile flags: /Odtp /RTCsu /ZI
; File C:\Program Files (x86)\Microsoft Visual Studio\2019\Community\VC\Tools\MSVC\14.29.30133\include\xmemory
;	COMDAT ??0?$allocator@_U@std@@QAE@XZ
_TEXT	SEGMENT
_this$ = -8						; size = 4
??0?$allocator@_U@std@@QAE@XZ PROC			; std::allocator<char32_t>::allocator<char32_t>, COMDAT
; _this$ = ecx

; 787  :     constexpr allocator() noexcept {}

	push	ebp
	mov	ebp, esp
	sub	esp, 204				; 000000ccH
	push	ebx
	push	esi
	push	edi
	push	ecx
	lea	edi, DWORD PTR [ebp-12]
	mov	ecx, 3
	mov	eax, -858993460				; ccccccccH
	rep stosd
	pop	ecx
	mov	DWORD PTR _this$[ebp], ecx
	mov	ecx, OFFSET __79D216CD_xmemory
	call	@__CheckForDebuggerJustMyCode@4
	mov	eax, DWORD PTR _this$[ebp]
	pop	edi
	pop	esi
	pop	ebx
	add	esp, 204				; 000000ccH
	cmp	ebp, esp
	call	__RTC_CheckEsp
	mov	esp, ebp
	pop	ebp
	ret	0
??0?$allocator@_U@std@@QAE@XZ ENDP			; std::allocator<char32_t>::allocator<char32_t>
_TEXT	ENDS
; Function compile flags: /Odtp /RTCsu /ZI
; File C:\Program Files (x86)\Microsoft Visual Studio\2019\Community\VC\Tools\MSVC\14.29.30133\include\xstring
;	COMDAT ??__Ks@string_literals@literals@std@@YA?AV?$basic_string@_UU?$char_traits@_U@std@@V?$allocator@_U@2@@3@PB_UI@Z
_TEXT	SEGMENT
$T1 = -200						; size = 4
___$ReturnUdt$ = 8					; size = 4
__Str$ = 12						; size = 4
__Len$ = 16						; size = 4
??__Ks@string_literals@literals@std@@YA?AV?$basic_string@_UU?$char_traits@_U@std@@V?$allocator@_U@2@@3@PB_UI@Z PROC ; std::literals::string_literals::operator "" s, COMDAT

; 4977 :         _NODISCARD _CONSTEXPR20_STRING_LITERALS u32string operator"" s(const char32_t* _Str, size_t _Len) {

	push	ebp
	mov	ebp, esp
	sub	esp, 204				; 000000ccH
	push	ebx
	push	esi
	push	edi
	lea	edi, DWORD PTR [ebp-12]
	mov	ecx, 3
	mov	eax, -858993460				; ccccccccH
	rep stosd
	mov	DWORD PTR $T1[ebp], 0
	mov	ecx, OFFSET __0D019051_xstring
	call	@__CheckForDebuggerJustMyCode@4

; 4978 :             return u32string(_Str, _Len);

	mov	eax, DWORD PTR __Len$[ebp]
	push	eax
	mov	ecx, DWORD PTR __Str$[ebp]
	push	ecx
	mov	ecx, DWORD PTR ___$ReturnUdt$[ebp]
	call	??0?$basic_string@_UU?$char_traits@_U@std@@V?$allocator@_U@2@@std@@QAE@QB_UI@Z ; std::basic_string<char32_t,std::char_traits<char32_t>,std::allocator<char32_t> >::basic_string<char32_t,std::char_traits<char32_t>,std::allocator<char32_t> >
	mov	edx, DWORD PTR $T1[ebp]
	or	edx, 1
	mov	DWORD PTR $T1[ebp], edx
	mov	eax, DWORD PTR ___$ReturnUdt$[ebp]

; 4979 :         }

	pop	edi
	pop	esi
	pop	ebx
	add	esp, 204				; 000000ccH
	cmp	ebp, esp
	call	__RTC_CheckEsp
	mov	esp, ebp
	pop	ebp
	ret	0
??__Ks@string_literals@literals@std@@YA?AV?$basic_string@_UU?$char_traits@_U@std@@V?$allocator@_U@2@@3@PB_UI@Z ENDP ; std::literals::string_literals::operator "" s
_TEXT	ENDS
; Function compile flags: /Odtp /RTCsu /ZI
;	COMDAT ??1?$_Compressed_pair@V?$allocator@_S@std@@V?$_String_val@U?$_Simple_types@_S@std@@@2@$00@std@@QAE@XZ
_TEXT	SEGMENT
_this$ = -8						; size = 4
??1?$_Compressed_pair@V?$allocator@_S@std@@V?$_String_val@U?$_Simple_types@_S@std@@@2@$00@std@@QAE@XZ PROC ; std::_Compressed_pair<std::allocator<char16_t>,std::_String_val<std::_Simple_types<char16_t> >,1>::~_Compressed_pair<std::allocator<char16_t>,std::_String_val<std::_Simple_types<char16_t> >,1>, COMDAT
; _this$ = ecx
	push	ebp
	mov	ebp, esp
	sub	esp, 204				; 000000ccH
	push	ebx
	push	esi
	push	edi
	push	ecx
	lea	edi, DWORD PTR [ebp-12]
	mov	ecx, 3
	mov	eax, -858993460				; ccccccccH
	rep stosd
	pop	ecx
	mov	DWORD PTR _this$[ebp], ecx
	mov	ecx, DWORD PTR _this$[ebp]
	call	??1?$_String_val@U?$_Simple_types@_S@std@@@std@@QAE@XZ
	pop	edi
	pop	esi
	pop	ebx
	add	esp, 204				; 000000ccH
	cmp	ebp, esp
	call	__RTC_CheckEsp
	mov	esp, ebp
	pop	ebp
	ret	0
??1?$_Compressed_pair@V?$allocator@_S@std@@V?$_String_val@U?$_Simple_types@_S@std@@@2@$00@std@@QAE@XZ ENDP ; std::_Compressed_pair<std::allocator<char16_t>,std::_String_val<std::_Simple_types<char16_t> >,1>::~_Compressed_pair<std::allocator<char16_t>,std::_String_val<std::_Simple_types<char16_t> >,1>
_TEXT	ENDS
; Function compile flags: /Odtp /RTCsu /ZI
; File C:\Program Files (x86)\Microsoft Visual Studio\2019\Community\VC\Tools\MSVC\14.29.30133\include\xmemory
;	COMDAT ?_Get_first@?$_Compressed_pair@V?$allocator@_S@std@@V?$_String_val@U?$_Simple_types@_S@std@@@2@$00@std@@QBEABV?$allocator@_S@2@XZ
_TEXT	SEGMENT
_this$ = -8						; size = 4
?_Get_first@?$_Compressed_pair@V?$allocator@_S@std@@V?$_String_val@U?$_Simple_types@_S@std@@@2@$00@std@@QBEABV?$allocator@_S@2@XZ PROC ; std::_Compressed_pair<std::allocator<char16_t>,std::_String_val<std::_Simple_types<char16_t> >,1>::_Get_first, COMDAT
; _this$ = ecx

; 1342 :     constexpr const _Ty1& _Get_first() const noexcept {

	push	ebp
	mov	ebp, esp
	sub	esp, 204				; 000000ccH
	push	ebx
	push	esi
	push	edi
	push	ecx
	lea	edi, DWORD PTR [ebp-12]
	mov	ecx, 3
	mov	eax, -858993460				; ccccccccH
	rep stosd
	pop	ecx
	mov	DWORD PTR _this$[ebp], ecx
	mov	ecx, OFFSET __79D216CD_xmemory
	call	@__CheckForDebuggerJustMyCode@4

; 1343 :         return *this;

	mov	eax, DWORD PTR _this$[ebp]

; 1344 :     }

	pop	edi
	pop	esi
	pop	ebx
	add	esp, 204				; 000000ccH
	cmp	ebp, esp
	call	__RTC_CheckEsp
	mov	esp, ebp
	pop	ebp
	ret	0
?_Get_first@?$_Compressed_pair@V?$allocator@_S@std@@V?$_String_val@U?$_Simple_types@_S@std@@@2@$00@std@@QBEABV?$allocator@_S@2@XZ ENDP ; std::_Compressed_pair<std::allocator<char16_t>,std::_String_val<std::_Simple_types<char16_t> >,1>::_Get_first
_TEXT	ENDS
; Function compile flags: /Odtp /RTCsu /ZI
; File C:\Program Files (x86)\Microsoft Visual Studio\2019\Community\VC\Tools\MSVC\14.29.30133\include\xmemory
;	COMDAT ?_Get_first@?$_Compressed_pair@V?$allocator@_S@std@@V?$_String_val@U?$_Simple_types@_S@std@@@2@$00@std@@QAEAAV?$allocator@_S@2@XZ
_TEXT	SEGMENT
_this$ = -8						; size = 4
?_Get_first@?$_Compressed_pair@V?$allocator@_S@std@@V?$_String_val@U?$_Simple_types@_S@std@@@2@$00@std@@QAEAAV?$allocator@_S@2@XZ PROC ; std::_Compressed_pair<std::allocator<char16_t>,std::_String_val<std::_Simple_types<char16_t> >,1>::_Get_first, COMDAT
; _this$ = ecx

; 1338 :     constexpr _Ty1& _Get_first() noexcept {

	push	ebp
	mov	ebp, esp
	sub	esp, 204				; 000000ccH
	push	ebx
	push	esi
	push	edi
	push	ecx
	lea	edi, DWORD PTR [ebp-12]
	mov	ecx, 3
	mov	eax, -858993460				; ccccccccH
	rep stosd
	pop	ecx
	mov	DWORD PTR _this$[ebp], ecx
	mov	ecx, OFFSET __79D216CD_xmemory
	call	@__CheckForDebuggerJustMyCode@4

; 1339 :         return *this;

	mov	eax, DWORD PTR _this$[ebp]

; 1340 :     }

	pop	edi
	pop	esi
	pop	ebx
	add	esp, 204				; 000000ccH
	cmp	ebp, esp
	call	__RTC_CheckEsp
	mov	esp, ebp
	pop	ebp
	ret	0
?_Get_first@?$_Compressed_pair@V?$allocator@_S@std@@V?$_String_val@U?$_Simple_types@_S@std@@@2@$00@std@@QAEAAV?$allocator@_S@2@XZ ENDP ; std::_Compressed_pair<std::allocator<char16_t>,std::_String_val<std::_Simple_types<char16_t> >,1>::_Get_first
_TEXT	ENDS
; Function compile flags: /Odtp /RTCsu /ZI
; File C:\Program Files (x86)\Microsoft Visual Studio\2019\Community\VC\Tools\MSVC\14.29.30133\include\xstring
;	COMDAT ?_Getal@?$basic_string@_SU?$char_traits@_S@std@@V?$allocator@_S@2@@std@@ABEABV?$allocator@_S@2@XZ
_TEXT	SEGMENT
_this$ = -8						; size = 4
?_Getal@?$basic_string@_SU?$char_traits@_S@std@@V?$allocator@_S@2@@std@@ABEABV?$allocator@_S@2@XZ PROC ; std::basic_string<char16_t,std::char_traits<char16_t>,std::allocator<char16_t> >::_Getal, COMDAT
; _this$ = ecx

; 4620 :     _CONSTEXPR20_CONTAINER const _Alty& _Getal() const noexcept {

	push	ebp
	mov	ebp, esp
	sub	esp, 204				; 000000ccH
	push	ebx
	push	esi
	push	edi
	push	ecx
	lea	edi, DWORD PTR [ebp-12]
	mov	ecx, 3
	mov	eax, -858993460				; ccccccccH
	rep stosd
	pop	ecx
	mov	DWORD PTR _this$[ebp], ecx
	mov	ecx, OFFSET __0D019051_xstring
	call	@__CheckForDebuggerJustMyCode@4

; 4621 :         return _Mypair._Get_first();

	mov	ecx, DWORD PTR _this$[ebp]
	call	?_Get_first@?$_Compressed_pair@V?$allocator@_S@std@@V?$_String_val@U?$_Simple_types@_S@std@@@2@$00@std@@QBEABV?$allocator@_S@2@XZ ; std::_Compressed_pair<std::allocator<char16_t>,std::_String_val<std::_Simple_types<char16_t> >,1>::_Get_first

; 4622 :     }

	pop	edi
	pop	esi
	pop	ebx
	add	esp, 204				; 000000ccH
	cmp	ebp, esp
	call	__RTC_CheckEsp
	mov	esp, ebp
	pop	ebp
	ret	0
?_Getal@?$basic_string@_SU?$char_traits@_S@std@@V?$allocator@_S@2@@std@@ABEABV?$allocator@_S@2@XZ ENDP ; std::basic_string<char16_t,std::char_traits<char16_t>,std::allocator<char16_t> >::_Getal
_TEXT	ENDS
; Function compile flags: /Odtp /RTCsu /ZI
; File C:\Program Files (x86)\Microsoft Visual Studio\2019\Community\VC\Tools\MSVC\14.29.30133\include\xstring
;	COMDAT ?_Getal@?$basic_string@_SU?$char_traits@_S@std@@V?$allocator@_S@2@@std@@AAEAAV?$allocator@_S@2@XZ
_TEXT	SEGMENT
_this$ = -8						; size = 4
?_Getal@?$basic_string@_SU?$char_traits@_S@std@@V?$allocator@_S@2@@std@@AAEAAV?$allocator@_S@2@XZ PROC ; std::basic_string<char16_t,std::char_traits<char16_t>,std::allocator<char16_t> >::_Getal, COMDAT
; _this$ = ecx

; 4616 :     _CONSTEXPR20_CONTAINER _Alty& _Getal() noexcept {

	push	ebp
	mov	ebp, esp
	sub	esp, 204				; 000000ccH
	push	ebx
	push	esi
	push	edi
	push	ecx
	lea	edi, DWORD PTR [ebp-12]
	mov	ecx, 3
	mov	eax, -858993460				; ccccccccH
	rep stosd
	pop	ecx
	mov	DWORD PTR _this$[ebp], ecx
	mov	ecx, OFFSET __0D019051_xstring
	call	@__CheckForDebuggerJustMyCode@4

; 4617 :         return _Mypair._Get_first();

	mov	ecx, DWORD PTR _this$[ebp]
	call	?_Get_first@?$_Compressed_pair@V?$allocator@_S@std@@V?$_String_val@U?$_Simple_types@_S@std@@@2@$00@std@@QAEAAV?$allocator@_S@2@XZ ; std::_Compressed_pair<std::allocator<char16_t>,std::_String_val<std::_Simple_types<char16_t> >,1>::_Get_first

; 4618 :     }

	pop	edi
	pop	esi
	pop	ebx
	add	esp, 204				; 000000ccH
	cmp	ebp, esp
	call	__RTC_CheckEsp
	mov	esp, ebp
	pop	ebp
	ret	0
?_Getal@?$basic_string@_SU?$char_traits@_S@std@@V?$allocator@_S@2@@std@@AAEAAV?$allocator@_S@2@XZ ENDP ; std::basic_string<char16_t,std::char_traits<char16_t>,std::allocator<char16_t> >::_Getal
_TEXT	ENDS
; Function compile flags: /Odtp /RTCsu /ZI
; File C:\Program Files (x86)\Microsoft Visual Studio\2019\Community\VC\Tools\MSVC\14.29.30133\include\xstring
;	COMDAT ?_Swap_proxy_and_iterators@?$basic_string@_SU?$char_traits@_S@std@@V?$allocator@_S@2@@std@@AAEXAAV12@@Z
_TEXT	SEGMENT
_this$ = -8						; size = 4
__Right$ = 8						; size = 4
?_Swap_proxy_and_iterators@?$basic_string@_SU?$char_traits@_S@std@@V?$allocator@_S@2@@std@@AAEXAAV12@@Z PROC ; std::basic_string<char16_t,std::char_traits<char16_t>,std::allocator<char16_t> >::_Swap_proxy_and_iterators, COMDAT
; _this$ = ecx

; 4612 :     _CONSTEXPR20_CONTAINER void _Swap_proxy_and_iterators(basic_string& _Right) {

	push	ebp
	mov	ebp, esp
	sub	esp, 204				; 000000ccH
	push	ebx
	push	esi
	push	edi
	push	ecx
	lea	edi, DWORD PTR [ebp-12]
	mov	ecx, 3
	mov	eax, -858993460				; ccccccccH
	rep stosd
	pop	ecx
	mov	DWORD PTR _this$[ebp], ecx
	mov	ecx, OFFSET __0D019051_xstring
	call	@__CheckForDebuggerJustMyCode@4

; 4613 :         _Mypair._Myval2._Swap_proxy_and_iterators(_Right._Mypair._Myval2);

	mov	eax, DWORD PTR __Right$[ebp]
	push	eax
	mov	ecx, DWORD PTR _this$[ebp]
	call	?_Swap_proxy_and_iterators@_Container_base12@std@@QAEXAAU12@@Z ; std::_Container_base12::_Swap_proxy_and_iterators

; 4614 :     }

	pop	edi
	pop	esi
	pop	ebx
	add	esp, 204				; 000000ccH
	cmp	ebp, esp
	call	__RTC_CheckEsp
	mov	esp, ebp
	pop	ebp
	ret	4
?_Swap_proxy_and_iterators@?$basic_string@_SU?$char_traits@_S@std@@V?$allocator@_S@2@@std@@AAEXAAV12@@Z ENDP ; std::basic_string<char16_t,std::char_traits<char16_t>,std::allocator<char16_t> >::_Swap_proxy_and_iterators
_TEXT	ENDS
; Function compile flags: /Odtp /RTCsu /ZI
; File C:\Program Files (x86)\Microsoft Visual Studio\2019\Community\VC\Tools\MSVC\14.29.30133\include\xstring
;	COMDAT ?_Tidy_deallocate@?$basic_string@_SU?$char_traits@_S@std@@V?$allocator@_S@2@@std@@AAEXXZ
_TEXT	SEGMENT
$T2 = -246						; size = 2
__Al$3 = -44						; size = 4
__Ptr$4 = -32						; size = 4
_this$ = -20						; size = 4
__$EHRec$ = -12						; size = 12
?_Tidy_deallocate@?$basic_string@_SU?$char_traits@_S@std@@V?$allocator@_S@2@@std@@AAEXXZ PROC ; std::basic_string<char16_t,std::char_traits<char16_t>,std::allocator<char16_t> >::_Tidy_deallocate, COMDAT
; _this$ = ecx

; 4582 :     _CONSTEXPR20_CONTAINER void _Tidy_deallocate() noexcept { // initialize buffer, deallocating any storage

	push	ebp
	mov	ebp, esp
	push	-1
	push	__ehhandler$?_Tidy_deallocate@?$basic_string@_SU?$char_traits@_S@std@@V?$allocator@_S@2@@std@@AAEXXZ
	mov	eax, DWORD PTR fs:0
	push	eax
	sub	esp, 240				; 000000f0H
	push	ebx
	push	esi
	push	edi
	push	ecx
	lea	edi, DWORD PTR [ebp-60]
	mov	ecx, 12					; 0000000cH
	mov	eax, -858993460				; ccccccccH
	rep stosd
	pop	ecx
	mov	eax, DWORD PTR ___security_cookie
	xor	eax, ebp
	push	eax
	lea	eax, DWORD PTR __$EHRec$[ebp]
	mov	DWORD PTR fs:0, eax
	mov	DWORD PTR _this$[ebp], ecx
	mov	ecx, OFFSET __0D019051_xstring
	call	@__CheckForDebuggerJustMyCode@4

; 4583 :         _Mypair._Myval2._Orphan_all();

	mov	ecx, DWORD PTR _this$[ebp]
	call	?_Orphan_all@_Container_base12@std@@QAEXXZ ; std::_Container_base12::_Orphan_all

; 4584 :         if (_Mypair._Myval2._Large_string_engaged()) {

	mov	ecx, DWORD PTR _this$[ebp]
	call	?_Large_string_engaged@?$_String_val@U?$_Simple_types@_S@std@@@std@@QBE_NXZ ; std::_String_val<std::_Simple_types<char16_t> >::_Large_string_engaged
	movzx	eax, al
	test	eax, eax
	je	SHORT $LN2@Tidy_deall

; 4585 :             const pointer _Ptr = _Mypair._Myval2._Bx._Ptr;

	mov	eax, DWORD PTR _this$[ebp]
	mov	ecx, DWORD PTR [eax+4]
	mov	DWORD PTR __Ptr$4[ebp], ecx

; 4586 :             auto& _Al          = _Getal();

	mov	ecx, DWORD PTR _this$[ebp]
	call	?_Getal@?$basic_string@_SU?$char_traits@_S@std@@V?$allocator@_S@2@@std@@AAEAAV?$allocator@_S@2@XZ ; std::basic_string<char16_t,std::char_traits<char16_t>,std::allocator<char16_t> >::_Getal
	mov	DWORD PTR __Al$3[ebp], eax

; 4587 :             _Destroy_in_place(_Mypair._Myval2._Bx._Ptr);

	mov	eax, DWORD PTR _this$[ebp]
	add	eax, 4
	push	eax
	call	??$_Destroy_in_place@PA_S@std@@YAXAAPA_S@Z ; std::_Destroy_in_place<char16_t *>
	add	esp, 4

; 4588 :             _Al.deallocate(_Ptr, _Mypair._Myval2._Myres + 1);

	mov	eax, DWORD PTR _this$[ebp]
	mov	ecx, DWORD PTR [eax+24]
	add	ecx, 1
	push	ecx
	mov	edx, DWORD PTR __Ptr$4[ebp]
	push	edx
	mov	ecx, DWORD PTR __Al$3[ebp]
	call	?deallocate@?$allocator@_S@std@@QAEXQA_SI@Z ; std::allocator<char16_t>::deallocate
$LN2@Tidy_deall:

; 4589 :         }
; 4590 : 
; 4591 : #ifdef __cpp_lib_constexpr_string
; 4592 :         if (_STD is_constant_evaluated()) {
; 4593 :             _Mypair._Myval2._Bx._Ptr = nullptr;
; 4594 :             _Mypair._Myval2._Mysize  = 0;
; 4595 :             _Mypair._Myval2._Myres   = 0;
; 4596 :         } else
; 4597 : #endif // __cpp_lib_constexpr_string
; 4598 :         {
; 4599 :             _Mypair._Myval2._Mysize = 0;

	mov	eax, DWORD PTR _this$[ebp]
	mov	DWORD PTR [eax+20], 0

; 4600 :             _Mypair._Myval2._Myres  = _BUF_SIZE - 1;

	mov	eax, DWORD PTR _this$[ebp]
	mov	DWORD PTR [eax+24], 7

; 4601 :             // the _Traits::assign is last so the codegen doesn't think the char write can alias this
; 4602 :             _Traits::assign(_Mypair._Myval2._Bx._Buf[0], _Elem());

	xor	eax, eax
	mov	WORD PTR $T2[ebp], ax
	lea	ecx, DWORD PTR $T2[ebp]
	push	ecx
	mov	edx, 2
	imul	eax, edx, 0
	mov	ecx, DWORD PTR _this$[ebp]
	lea	edx, DWORD PTR [ecx+eax+4]
	push	edx
	call	?assign@?$_WChar_traits@_S@std@@SAXAA_SAB_S@Z ; std::_WChar_traits<char16_t>::assign
	add	esp, 8

; 4603 :         }
; 4604 :     }

	mov	ecx, DWORD PTR __$EHRec$[ebp]
	mov	DWORD PTR fs:0, ecx
	pop	ecx
	pop	edi
	pop	esi
	pop	ebx
	add	esp, 252				; 000000fcH
	cmp	ebp, esp
	call	__RTC_CheckEsp
	mov	esp, ebp
	pop	ebp
	ret	0
	int	3
	int	3
	int	3
	int	3
	int	3
_TEXT	ENDS
;	COMDAT text$x
text$x	SEGMENT
__ehhandler$?_Tidy_deallocate@?$basic_string@_SU?$char_traits@_S@std@@V?$allocator@_S@2@@std@@AAEXXZ:
	npad	1
	npad	1
	mov	edx, DWORD PTR [esp+8]
	lea	eax, DWORD PTR [edx+12]
	mov	ecx, DWORD PTR [edx-256]
	xor	ecx, eax
	call	@__security_check_cookie@4
	mov	eax, OFFSET __ehfuncinfo$?_Tidy_deallocate@?$basic_string@_SU?$char_traits@_S@std@@V?$allocator@_S@2@@std@@AAEXXZ
	jmp	___CxxFrameHandler3
text$x	ENDS
?_Tidy_deallocate@?$basic_string@_SU?$char_traits@_S@std@@V?$allocator@_S@2@@std@@AAEXXZ ENDP ; std::basic_string<char16_t,std::char_traits<char16_t>,std::allocator<char16_t> >::_Tidy_deallocate
; Function compile flags: /Odtp /RTCsu /ZI
; File C:\Program Files (x86)\Microsoft Visual Studio\2019\Community\VC\Tools\MSVC\14.29.30133\include\xstring
;	COMDAT ?_Tidy_init@?$basic_string@_SU?$char_traits@_S@std@@V?$allocator@_S@2@@std@@AAEXXZ
_TEXT	SEGMENT
$T1 = -222						; size = 2
__My_data$ = -20					; size = 4
_this$ = -8						; size = 4
?_Tidy_init@?$basic_string@_SU?$char_traits@_S@std@@V?$allocator@_S@2@@std@@AAEXXZ PROC ; std::basic_string<char16_t,std::char_traits<char16_t>,std::allocator<char16_t> >::_Tidy_init, COMDAT
; _this$ = ecx

; 4560 :     _CONSTEXPR20_CONTAINER void _Tidy_init() noexcept { // initialize basic_string data members

	push	ebp
	mov	ebp, esp
	sub	esp, 228				; 000000e4H
	push	ebx
	push	esi
	push	edi
	push	ecx
	lea	edi, DWORD PTR [ebp-36]
	mov	ecx, 9
	mov	eax, -858993460				; ccccccccH
	rep stosd
	pop	ecx
	mov	DWORD PTR _this$[ebp], ecx
	mov	ecx, OFFSET __0D019051_xstring
	call	@__CheckForDebuggerJustMyCode@4

; 4561 :         auto& _My_data   = _Mypair._Myval2;

	mov	eax, DWORD PTR _this$[ebp]
	mov	DWORD PTR __My_data$[ebp], eax

; 4562 :         _My_data._Mysize = 0;

	mov	eax, DWORD PTR __My_data$[ebp]
	mov	DWORD PTR [eax+20], 0

; 4563 : 
; 4564 : #ifdef __cpp_lib_constexpr_string
; 4565 :         if (_STD is_constant_evaluated()) {
; 4566 :             _My_data._Myres        = _BUF_SIZE; // SSO disabled in constexpr context
; 4567 :             auto& _Al              = _Getal();
; 4568 :             const pointer _New_ptr = _Al.allocate(_BUF_SIZE + 1); // throws
; 4569 :             _My_data._Bx._Ptr      = _New_ptr;
; 4570 : 
; 4571 :             _Elem* const _Raw_new = _Unfancy(_New_ptr);
; 4572 :             _Traits::assign(_Raw_new, _BUF_SIZE + 1, _Elem());
; 4573 :         } else
; 4574 : #endif // __cpp_lib_constexpr_string
; 4575 :         {
; 4576 :             _My_data._Myres = _BUF_SIZE - 1;

	mov	eax, DWORD PTR __My_data$[ebp]
	mov	DWORD PTR [eax+24], 7

; 4577 :             // the _Traits::assign is last so the codegen doesn't think the char write can alias this
; 4578 :             _Traits::assign(_My_data._Bx._Buf[0], _Elem());

	xor	eax, eax
	mov	WORD PTR $T1[ebp], ax
	lea	ecx, DWORD PTR $T1[ebp]
	push	ecx
	mov	edx, 2
	imul	eax, edx, 0
	mov	ecx, DWORD PTR __My_data$[ebp]
	lea	edx, DWORD PTR [ecx+eax+4]
	push	edx
	call	?assign@?$_WChar_traits@_S@std@@SAXAA_SAB_S@Z ; std::_WChar_traits<char16_t>::assign
	add	esp, 8

; 4579 :         }
; 4580 :     }

	pop	edi
	pop	esi
	pop	ebx
	add	esp, 228				; 000000e4H
	cmp	ebp, esp
	call	__RTC_CheckEsp
	mov	esp, ebp
	pop	ebp
	ret	0
?_Tidy_init@?$basic_string@_SU?$char_traits@_S@std@@V?$allocator@_S@2@@std@@AAEXXZ ENDP ; std::basic_string<char16_t,std::char_traits<char16_t>,std::allocator<char16_t> >::_Tidy_init
_TEXT	ENDS
; Function compile flags: /Odtp /RTCsu /ZI
; File C:\Program Files (x86)\Microsoft Visual Studio\2019\Community\VC\Tools\MSVC\14.29.30133\include\xstring
;	COMDAT ?_Calculate_growth@?$basic_string@_SU?$char_traits@_S@std@@V?$allocator@_S@2@@std@@ABEII@Z
_TEXT	SEGMENT
_this$ = -8						; size = 4
__Requested$ = 8					; size = 4
?_Calculate_growth@?$basic_string@_SU?$char_traits@_S@std@@V?$allocator@_S@2@@std@@ABEII@Z PROC ; std::basic_string<char16_t,std::char_traits<char16_t>,std::allocator<char16_t> >::_Calculate_growth, COMDAT
; _this$ = ecx

; 4466 :     _NODISCARD _CONSTEXPR20_CONTAINER size_type _Calculate_growth(const size_type _Requested) const noexcept {

	push	ebp
	mov	ebp, esp
	sub	esp, 204				; 000000ccH
	push	ebx
	push	esi
	push	edi
	push	ecx
	lea	edi, DWORD PTR [ebp-12]
	mov	ecx, 3
	mov	eax, -858993460				; ccccccccH
	rep stosd
	pop	ecx
	mov	DWORD PTR _this$[ebp], ecx
	mov	ecx, OFFSET __0D019051_xstring
	call	@__CheckForDebuggerJustMyCode@4

; 4467 :         return _Calculate_growth(_Requested, _Mypair._Myval2._Myres, max_size());

	mov	ecx, DWORD PTR _this$[ebp]
	call	?max_size@?$basic_string@_SU?$char_traits@_S@std@@V?$allocator@_S@2@@std@@QBEIXZ ; std::basic_string<char16_t,std::char_traits<char16_t>,std::allocator<char16_t> >::max_size
	push	eax
	mov	eax, DWORD PTR _this$[ebp]
	mov	ecx, DWORD PTR [eax+24]
	push	ecx
	mov	edx, DWORD PTR __Requested$[ebp]
	push	edx
	call	?_Calculate_growth@?$basic_string@_SU?$char_traits@_S@std@@V?$allocator@_S@2@@std@@CAIIII@Z ; std::basic_string<char16_t,std::char_traits<char16_t>,std::allocator<char16_t> >::_Calculate_growth
	add	esp, 12					; 0000000cH

; 4468 :     }

	pop	edi
	pop	esi
	pop	ebx
	add	esp, 204				; 000000ccH
	cmp	ebp, esp
	call	__RTC_CheckEsp
	mov	esp, ebp
	pop	ebp
	ret	4
?_Calculate_growth@?$basic_string@_SU?$char_traits@_S@std@@V?$allocator@_S@2@@std@@ABEII@Z ENDP ; std::basic_string<char16_t,std::char_traits<char16_t>,std::allocator<char16_t> >::_Calculate_growth
_TEXT	ENDS
; Function compile flags: /Odtp /RTCsu /ZI
; File C:\Program Files (x86)\Microsoft Visual Studio\2019\Community\VC\Tools\MSVC\14.29.30133\include\xstring
;	COMDAT ?_Calculate_growth@?$basic_string@_SU?$char_traits@_S@std@@V?$allocator@_S@2@@std@@CAIIII@Z
_TEXT	SEGMENT
$T1 = -216						; size = 4
__Masked$ = -12						; size = 4
__$ArrayPad$ = -4					; size = 4
__Requested$ = 8					; size = 4
__Old$ = 12						; size = 4
__Max$ = 16						; size = 4
?_Calculate_growth@?$basic_string@_SU?$char_traits@_S@std@@V?$allocator@_S@2@@std@@CAIIII@Z PROC ; std::basic_string<char16_t,std::char_traits<char16_t>,std::allocator<char16_t> >::_Calculate_growth, COMDAT

; 4453 :         const size_type _Requested, const size_type _Old, const size_type _Max) noexcept {

	push	ebp
	mov	ebp, esp
	sub	esp, 220				; 000000dcH
	push	ebx
	push	esi
	push	edi
	lea	edi, DWORD PTR [ebp-28]
	mov	ecx, 7
	mov	eax, -858993460				; ccccccccH
	rep stosd
	mov	eax, DWORD PTR ___security_cookie
	xor	eax, ebp
	mov	DWORD PTR __$ArrayPad$[ebp], eax
	mov	ecx, OFFSET __0D019051_xstring
	call	@__CheckForDebuggerJustMyCode@4

; 4454 :         const size_type _Masked = _Requested | _ALLOC_MASK;

	mov	eax, DWORD PTR __Requested$[ebp]
	or	eax, 7
	mov	DWORD PTR __Masked$[ebp], eax

; 4455 :         if (_Masked > _Max) { // the mask overflows, settle for max_size()

	mov	eax, DWORD PTR __Masked$[ebp]
	cmp	eax, DWORD PTR __Max$[ebp]
	jbe	SHORT $LN2@Calculate_

; 4456 :             return _Max;

	mov	eax, DWORD PTR __Max$[ebp]
	jmp	SHORT $LN4@Calculate_
$LN2@Calculate_:

; 4457 :         }
; 4458 : 
; 4459 :         if (_Old > _Max - _Old / 2) { // similarly, geometric overflows

	mov	eax, DWORD PTR __Old$[ebp]
	shr	eax, 1
	mov	ecx, DWORD PTR __Max$[ebp]
	sub	ecx, eax
	cmp	DWORD PTR __Old$[ebp], ecx
	jbe	SHORT $LN3@Calculate_

; 4460 :             return _Max;

	mov	eax, DWORD PTR __Max$[ebp]
	jmp	SHORT $LN4@Calculate_
$LN3@Calculate_:

; 4461 :         }
; 4462 : 
; 4463 :         return (_STD max)(_Masked, _Old + _Old / 2);

	mov	eax, DWORD PTR __Old$[ebp]
	shr	eax, 1
	add	eax, DWORD PTR __Old$[ebp]
	mov	DWORD PTR $T1[ebp], eax
	lea	ecx, DWORD PTR $T1[ebp]
	push	ecx
	lea	edx, DWORD PTR __Masked$[ebp]
	push	edx
	call	??$max@I@std@@YAABIABI0@Z		; std::max<unsigned int>
	add	esp, 8
	mov	eax, DWORD PTR [eax]
$LN4@Calculate_:

; 4464 :     }

	push	edx
	mov	ecx, ebp
	push	eax
	lea	edx, DWORD PTR $LN7@Calculate_
	call	@_RTC_CheckStackVars@8
	pop	eax
	pop	edx
	pop	edi
	pop	esi
	pop	ebx
	mov	ecx, DWORD PTR __$ArrayPad$[ebp]
	xor	ecx, ebp
	call	@__security_check_cookie@4
	add	esp, 220				; 000000dcH
	cmp	ebp, esp
	call	__RTC_CheckEsp
	mov	esp, ebp
	pop	ebp
	ret	0
	npad	1
$LN7@Calculate_:
	DD	1
	DD	$LN6@Calculate_
$LN6@Calculate_:
	DD	-12					; fffffff4H
	DD	4
	DD	$LN5@Calculate_
$LN5@Calculate_:
	DB	95					; 0000005fH
	DB	77					; 0000004dH
	DB	97					; 00000061H
	DB	115					; 00000073H
	DB	107					; 0000006bH
	DB	101					; 00000065H
	DB	100					; 00000064H
	DB	0
?_Calculate_growth@?$basic_string@_SU?$char_traits@_S@std@@V?$allocator@_S@2@@std@@CAIIII@Z ENDP ; std::basic_string<char16_t,std::char_traits<char16_t>,std::allocator<char16_t> >::_Calculate_growth
_TEXT	ENDS
; Function compile flags: /Odtp /RTCsu /ZI
; File C:\Program Files (x86)\Microsoft Visual Studio\2019\Community\VC\Tools\MSVC\14.29.30133\include\xstring
;	COMDAT ?max_size@?$basic_string@_SU?$char_traits@_S@std@@V?$allocator@_S@2@@std@@QBEIXZ
_TEXT	SEGMENT
$T1 = -264						; size = 4
$T2 = -252						; size = 4
$T3 = -240						; size = 4
__Storage_max$ = -36					; size = 4
__Alloc_max$ = -24					; size = 4
_this$ = -12						; size = 4
__$ArrayPad$ = -4					; size = 4
?max_size@?$basic_string@_SU?$char_traits@_S@std@@V?$allocator@_S@2@@std@@QBEIXZ PROC ; std::basic_string<char16_t,std::char_traits<char16_t>,std::allocator<char16_t> >::max_size, COMDAT
; _this$ = ecx

; 3909 :     _NODISCARD _CONSTEXPR20_CONTAINER size_type max_size() const noexcept {

	push	ebp
	mov	ebp, esp
	sub	esp, 268				; 0000010cH
	push	ebx
	push	esi
	push	edi
	push	ecx
	lea	edi, DWORD PTR [ebp-76]
	mov	ecx, 19					; 00000013H
	mov	eax, -858993460				; ccccccccH
	rep stosd
	pop	ecx
	mov	eax, DWORD PTR ___security_cookie
	xor	eax, ebp
	mov	DWORD PTR __$ArrayPad$[ebp], eax
	mov	DWORD PTR _this$[ebp], ecx
	mov	ecx, OFFSET __0D019051_xstring
	call	@__CheckForDebuggerJustMyCode@4

; 3910 :         const size_type _Alloc_max   = _Alty_traits::max_size(_Getal());

	mov	ecx, DWORD PTR _this$[ebp]
	call	?_Getal@?$basic_string@_SU?$char_traits@_S@std@@V?$allocator@_S@2@@std@@ABEABV?$allocator@_S@2@XZ ; std::basic_string<char16_t,std::char_traits<char16_t>,std::allocator<char16_t> >::_Getal
	push	eax
	call	?max_size@?$_Default_allocator_traits@V?$allocator@_S@std@@@std@@SAIABV?$allocator@_S@2@@Z ; std::_Default_allocator_traits<std::allocator<char16_t> >::max_size
	add	esp, 4
	mov	DWORD PTR __Alloc_max$[ebp], eax

; 3911 :         const size_type _Storage_max = // can always store small string

	mov	DWORD PTR $T3[ebp], 8
	lea	eax, DWORD PTR $T3[ebp]
	push	eax
	lea	ecx, DWORD PTR __Alloc_max$[ebp]
	push	ecx
	call	??$max@I@std@@YAABIABI0@Z		; std::max<unsigned int>
	add	esp, 8
	mov	edx, DWORD PTR [eax]
	mov	DWORD PTR __Storage_max$[ebp], edx

; 3912 :             (_STD max)(_Alloc_max, static_cast<size_type>(_BUF_SIZE));
; 3913 :         return (_STD min)(static_cast<size_type>((numeric_limits<difference_type>::max)()),

	mov	eax, DWORD PTR __Storage_max$[ebp]
	sub	eax, 1
	mov	DWORD PTR $T2[ebp], eax
	call	?max@?$numeric_limits@H@std@@SAHXZ	; std::numeric_limits<int>::max
	mov	DWORD PTR $T1[ebp], eax
	lea	ecx, DWORD PTR $T2[ebp]
	push	ecx
	lea	edx, DWORD PTR $T1[ebp]
	push	edx
	call	??$min@I@std@@YAABIABI0@Z		; std::min<unsigned int>
	add	esp, 8
	mov	eax, DWORD PTR [eax]

; 3914 :             _Storage_max - 1 // -1 is for null terminator and/or npos
; 3915 :         );
; 3916 :     }

	push	edx
	mov	ecx, ebp
	push	eax
	lea	edx, DWORD PTR $LN5@max_size
	call	@_RTC_CheckStackVars@8
	pop	eax
	pop	edx
	pop	edi
	pop	esi
	pop	ebx
	mov	ecx, DWORD PTR __$ArrayPad$[ebp]
	xor	ecx, ebp
	call	@__security_check_cookie@4
	add	esp, 268				; 0000010cH
	cmp	ebp, esp
	call	__RTC_CheckEsp
	mov	esp, ebp
	pop	ebp
	ret	0
$LN5@max_size:
	DD	1
	DD	$LN4@max_size
$LN4@max_size:
	DD	-24					; ffffffe8H
	DD	4
	DD	$LN3@max_size
$LN3@max_size:
	DB	95					; 0000005fH
	DB	65					; 00000041H
	DB	108					; 0000006cH
	DB	108					; 0000006cH
	DB	111					; 0000006fH
	DB	99					; 00000063H
	DB	95					; 0000005fH
	DB	109					; 0000006dH
	DB	97					; 00000061H
	DB	120					; 00000078H
	DB	0
?max_size@?$basic_string@_SU?$char_traits@_S@std@@V?$allocator@_S@2@@std@@QBEIXZ ENDP ; std::basic_string<char16_t,std::char_traits<char16_t>,std::allocator<char16_t> >::max_size
_TEXT	ENDS
; Function compile flags: /Odtp /RTCsu /ZI
; File C:\Program Files (x86)\Microsoft Visual Studio\2019\Community\VC\Tools\MSVC\14.29.30133\include\xstring
;	COMDAT ?_Unchecked_end@?$basic_string@_SU?$char_traits@_S@std@@V?$allocator@_S@2@@std@@QAEPA_SXZ
_TEXT	SEGMENT
_this$ = -8						; size = 4
?_Unchecked_end@?$basic_string@_SU?$char_traits@_S@std@@V?$allocator@_S@2@@std@@QAEPA_SXZ PROC ; std::basic_string<char16_t,std::char_traits<char16_t>,std::allocator<char16_t> >::_Unchecked_end, COMDAT
; _this$ = ecx

; 3714 :     _NODISCARD _CONSTEXPR20_CONTAINER _Elem* _Unchecked_end() noexcept {

	push	ebp
	mov	ebp, esp
	sub	esp, 204				; 000000ccH
	push	ebx
	push	esi
	push	edi
	push	ecx
	lea	edi, DWORD PTR [ebp-12]
	mov	ecx, 3
	mov	eax, -858993460				; ccccccccH
	rep stosd
	pop	ecx
	mov	DWORD PTR _this$[ebp], ecx
	mov	ecx, OFFSET __0D019051_xstring
	call	@__CheckForDebuggerJustMyCode@4

; 3715 :         return _Mypair._Myval2._Myptr() + _Mypair._Myval2._Mysize;

	mov	ecx, DWORD PTR _this$[ebp]
	call	?_Myptr@?$_String_val@U?$_Simple_types@_S@std@@@std@@QAEPA_SXZ ; std::_String_val<std::_Simple_types<char16_t> >::_Myptr
	mov	ecx, DWORD PTR _this$[ebp]
	mov	edx, DWORD PTR [ecx+20]
	lea	eax, DWORD PTR [eax+edx*2]

; 3716 :     }

	pop	edi
	pop	esi
	pop	ebx
	add	esp, 204				; 000000ccH
	cmp	ebp, esp
	call	__RTC_CheckEsp
	mov	esp, ebp
	pop	ebp
	ret	0
?_Unchecked_end@?$basic_string@_SU?$char_traits@_S@std@@V?$allocator@_S@2@@std@@QAEPA_SXZ ENDP ; std::basic_string<char16_t,std::char_traits<char16_t>,std::allocator<char16_t> >::_Unchecked_end
_TEXT	ENDS
; Function compile flags: /Odtp /RTCsu /ZI
; File C:\Program Files (x86)\Microsoft Visual Studio\2019\Community\VC\Tools\MSVC\14.29.30133\include\xstring
;	COMDAT ?_Unchecked_begin@?$basic_string@_SU?$char_traits@_S@std@@V?$allocator@_S@2@@std@@QAEPA_SXZ
_TEXT	SEGMENT
_this$ = -8						; size = 4
?_Unchecked_begin@?$basic_string@_SU?$char_traits@_S@std@@V?$allocator@_S@2@@std@@QAEPA_SXZ PROC ; std::basic_string<char16_t,std::char_traits<char16_t>,std::allocator<char16_t> >::_Unchecked_begin, COMDAT
; _this$ = ecx

; 3706 :     _NODISCARD _CONSTEXPR20_CONTAINER _Elem* _Unchecked_begin() noexcept {

	push	ebp
	mov	ebp, esp
	sub	esp, 204				; 000000ccH
	push	ebx
	push	esi
	push	edi
	push	ecx
	lea	edi, DWORD PTR [ebp-12]
	mov	ecx, 3
	mov	eax, -858993460				; ccccccccH
	rep stosd
	pop	ecx
	mov	DWORD PTR _this$[ebp], ecx
	mov	ecx, OFFSET __0D019051_xstring
	call	@__CheckForDebuggerJustMyCode@4

; 3707 :         return _Mypair._Myval2._Myptr();

	mov	ecx, DWORD PTR _this$[ebp]
	call	?_Myptr@?$_String_val@U?$_Simple_types@_S@std@@@std@@QAEPA_SXZ ; std::_String_val<std::_Simple_types<char16_t> >::_Myptr

; 3708 :     }

	pop	edi
	pop	esi
	pop	ebx
	add	esp, 204				; 000000ccH
	cmp	ebp, esp
	call	__RTC_CheckEsp
	mov	esp, ebp
	pop	ebp
	ret	0
?_Unchecked_begin@?$basic_string@_SU?$char_traits@_S@std@@V?$allocator@_S@2@@std@@QAEPA_SXZ ENDP ; std::basic_string<char16_t,std::char_traits<char16_t>,std::allocator<char16_t> >::_Unchecked_begin
_TEXT	ENDS
; Function compile flags: /Odtp /RTCsu /ZI
; File C:\Program Files (x86)\Microsoft Visual Studio\2019\Community\VC\Tools\MSVC\14.29.30133\include\xstring
;	COMDAT ?assign@?$basic_string@_SU?$char_traits@_S@std@@V?$allocator@_S@2@@std@@QAEAAV12@QB_SI@Z
_TEXT	SEGMENT
$T1 = -233						; size = 1
$T2 = -222						; size = 2
__Old_ptr$3 = -20					; size = 4
_this$ = -8						; size = 4
__Ptr$ = 8						; size = 4
__Count$ = 12						; size = 4
?assign@?$basic_string@_SU?$char_traits@_S@std@@V?$allocator@_S@2@@std@@QAEAAV12@QB_SI@Z PROC ; std::basic_string<char16_t,std::char_traits<char16_t>,std::allocator<char16_t> >::assign, COMDAT
; _this$ = ecx

; 3210 :         _In_reads_(_Count) const _Elem* const _Ptr, _CRT_GUARDOVERFLOW const size_type _Count) {

	push	ebp
	mov	ebp, esp
	sub	esp, 240				; 000000f0H
	push	ebx
	push	esi
	push	edi
	push	ecx
	lea	edi, DWORD PTR [ebp-48]
	mov	ecx, 12					; 0000000cH
	mov	eax, -858993460				; ccccccccH
	rep stosd
	pop	ecx
	mov	DWORD PTR _this$[ebp], ecx
	mov	ecx, OFFSET __0D019051_xstring
	call	@__CheckForDebuggerJustMyCode@4

; 3211 :         // assign [_Ptr, _Ptr + _Count)
; 3212 :         if (_Count <= _Mypair._Myval2._Myres) {

	mov	eax, DWORD PTR _this$[ebp]
	mov	ecx, DWORD PTR __Count$[ebp]
	cmp	ecx, DWORD PTR [eax+24]
	ja	SHORT $LN2@assign

; 3213 :             _Elem* const _Old_ptr   = _Mypair._Myval2._Myptr();

	mov	ecx, DWORD PTR _this$[ebp]
	call	?_Myptr@?$_String_val@U?$_Simple_types@_S@std@@@std@@QAEPA_SXZ ; std::_String_val<std::_Simple_types<char16_t> >::_Myptr
	mov	DWORD PTR __Old_ptr$3[ebp], eax

; 3214 :             _Mypair._Myval2._Mysize = _Count;

	mov	eax, DWORD PTR _this$[ebp]
	mov	ecx, DWORD PTR __Count$[ebp]
	mov	DWORD PTR [eax+20], ecx

; 3215 :             _Traits::move(_Old_ptr, _Ptr, _Count);

	mov	eax, DWORD PTR __Count$[ebp]
	push	eax
	mov	ecx, DWORD PTR __Ptr$[ebp]
	push	ecx
	mov	edx, DWORD PTR __Old_ptr$3[ebp]
	push	edx
	call	?move@?$_Char_traits@_SG@std@@SAPA_SQA_SQB_SI@Z ; std::_Char_traits<char16_t,unsigned short>::move
	add	esp, 12					; 0000000cH

; 3216 :             _Traits::assign(_Old_ptr[_Count], _Elem());

	xor	eax, eax
	mov	WORD PTR $T2[ebp], ax
	lea	ecx, DWORD PTR $T2[ebp]
	push	ecx
	mov	edx, DWORD PTR __Count$[ebp]
	mov	eax, DWORD PTR __Old_ptr$3[ebp]
	lea	ecx, DWORD PTR [eax+edx*2]
	push	ecx
	call	?assign@?$_WChar_traits@_S@std@@SAXAA_SAB_S@Z ; std::_WChar_traits<char16_t>::assign
	add	esp, 8

; 3217 :             return *this;

	mov	eax, DWORD PTR _this$[ebp]
	jmp	SHORT $LN1@assign
$LN2@assign:

; 3218 :         }
; 3219 : 
; 3220 :         return _Reallocate_for(

	xor	eax, eax
	mov	BYTE PTR $T1[ebp], al
	mov	ecx, DWORD PTR __Ptr$[ebp]
	push	ecx
	movzx	edx, BYTE PTR $T1[ebp]
	push	edx
	mov	eax, DWORD PTR __Count$[ebp]
	push	eax
	mov	ecx, DWORD PTR _this$[ebp]
	call	??$_Reallocate_for@V<lambda_493290ea8cd8fcd66ff9f3cecf244fbc>@@PB_S@?$basic_string@_SU?$char_traits@_S@std@@V?$allocator@_S@2@@std@@AAEAAV01@IV<lambda_493290ea8cd8fcd66ff9f3cecf244fbc>@@PB_S@Z ; std::basic_string<char16_t,std::char_traits<char16_t>,std::allocator<char16_t> >::_Reallocate_for<<lambda_493290ea8cd8fcd66ff9f3cecf244fbc>,char16_t const *>
$LN1@assign:

; 3221 :             _Count,
; 3222 :             [](_Elem* const _New_ptr, const size_type _Count, const _Elem* const _Ptr) {
; 3223 :                 _Traits::copy(_New_ptr, _Ptr, _Count);
; 3224 :                 _Traits::assign(_New_ptr[_Count], _Elem());
; 3225 :             },
; 3226 :             _Ptr);
; 3227 :     }

	pop	edi
	pop	esi
	pop	ebx
	add	esp, 240				; 000000f0H
	cmp	ebp, esp
	call	__RTC_CheckEsp
	mov	esp, ebp
	pop	ebp
	ret	8
?assign@?$basic_string@_SU?$char_traits@_S@std@@V?$allocator@_S@2@@std@@QAEAAV12@QB_SI@Z ENDP ; std::basic_string<char16_t,std::char_traits<char16_t>,std::allocator<char16_t> >::assign
_TEXT	ENDS
; Function compile flags: /Odtp /RTCsu /ZI
; File C:\Program Files (x86)\Microsoft Visual Studio\2019\Community\VC\Tools\MSVC\14.29.30133\include\xstring
;	COMDAT ?append@?$basic_string@_SU?$char_traits@_S@std@@V?$allocator@_S@2@@std@@QAEAAV12@QB_S@Z
_TEXT	SEGMENT
_this$ = -8						; size = 4
__Ptr$ = 8						; size = 4
?append@?$basic_string@_SU?$char_traits@_S@std@@V?$allocator@_S@2@@std@@QAEAAV12@QB_S@Z PROC ; std::basic_string<char16_t,std::char_traits<char16_t>,std::allocator<char16_t> >::append, COMDAT
; _this$ = ecx

; 3140 :     _CONSTEXPR20_CONTAINER basic_string& append(_In_z_ const _Elem* const _Ptr) { // append [_Ptr, <null>)

	push	ebp
	mov	ebp, esp
	sub	esp, 204				; 000000ccH
	push	ebx
	push	esi
	push	edi
	push	ecx
	lea	edi, DWORD PTR [ebp-12]
	mov	ecx, 3
	mov	eax, -858993460				; ccccccccH
	rep stosd
	pop	ecx
	mov	DWORD PTR _this$[ebp], ecx
	mov	ecx, OFFSET __0D019051_xstring
	call	@__CheckForDebuggerJustMyCode@4

; 3141 :         return append(_Ptr, _Convert_size<size_type>(_Traits::length(_Ptr)));

	mov	eax, DWORD PTR __Ptr$[ebp]
	push	eax
	call	?length@?$_WChar_traits@_S@std@@SAIPB_S@Z ; std::_WChar_traits<char16_t>::length
	add	esp, 4
	push	eax
	call	??$_Convert_size@I@std@@YAII@Z		; std::_Convert_size<unsigned int>
	add	esp, 4
	push	eax
	mov	ecx, DWORD PTR __Ptr$[ebp]
	push	ecx
	mov	ecx, DWORD PTR _this$[ebp]
	call	?append@?$basic_string@_SU?$char_traits@_S@std@@V?$allocator@_S@2@@std@@QAEAAV12@QB_SI@Z ; std::basic_string<char16_t,std::char_traits<char16_t>,std::allocator<char16_t> >::append

; 3142 :     }

	pop	edi
	pop	esi
	pop	ebx
	add	esp, 204				; 000000ccH
	cmp	ebp, esp
	call	__RTC_CheckEsp
	mov	esp, ebp
	pop	ebp
	ret	4
?append@?$basic_string@_SU?$char_traits@_S@std@@V?$allocator@_S@2@@std@@QAEAAV12@QB_S@Z ENDP ; std::basic_string<char16_t,std::char_traits<char16_t>,std::allocator<char16_t> >::append
_TEXT	ENDS
; Function compile flags: /Odtp /RTCsu /ZI
; File C:\Program Files (x86)\Microsoft Visual Studio\2019\Community\VC\Tools\MSVC\14.29.30133\include\xstring
;	COMDAT ?append@?$basic_string@_SU?$char_traits@_S@std@@V?$allocator@_S@2@@std@@QAEAAV12@QB_SI@Z
_TEXT	SEGMENT
$T1 = -245						; size = 1
$T2 = -234						; size = 2
__Old_ptr$3 = -32					; size = 4
__Old_size$ = -20					; size = 4
_this$ = -8						; size = 4
__Ptr$ = 8						; size = 4
__Count$ = 12						; size = 4
?append@?$basic_string@_SU?$char_traits@_S@std@@V?$allocator@_S@2@@std@@QAEAAV12@QB_SI@Z PROC ; std::basic_string<char16_t,std::char_traits<char16_t>,std::allocator<char16_t> >::append, COMDAT
; _this$ = ecx

; 3118 :         _In_reads_(_Count) const _Elem* const _Ptr, _CRT_GUARDOVERFLOW const size_type _Count) {

	push	ebp
	mov	ebp, esp
	sub	esp, 252				; 000000fcH
	push	ebx
	push	esi
	push	edi
	push	ecx
	lea	edi, DWORD PTR [ebp-60]
	mov	ecx, 15					; 0000000fH
	mov	eax, -858993460				; ccccccccH
	rep stosd
	pop	ecx
	mov	DWORD PTR _this$[ebp], ecx
	mov	ecx, OFFSET __0D019051_xstring
	call	@__CheckForDebuggerJustMyCode@4

; 3119 :         // append [_Ptr, _Ptr + _Count)
; 3120 :         const size_type _Old_size = _Mypair._Myval2._Mysize;

	mov	eax, DWORD PTR _this$[ebp]
	mov	ecx, DWORD PTR [eax+20]
	mov	DWORD PTR __Old_size$[ebp], ecx

; 3121 :         if (_Count <= _Mypair._Myval2._Myres - _Old_size) {

	mov	eax, DWORD PTR _this$[ebp]
	mov	ecx, DWORD PTR [eax+24]
	sub	ecx, DWORD PTR __Old_size$[ebp]
	cmp	DWORD PTR __Count$[ebp], ecx
	ja	SHORT $LN2@append

; 3122 :             _Mypair._Myval2._Mysize = _Old_size + _Count;

	mov	eax, DWORD PTR __Old_size$[ebp]
	add	eax, DWORD PTR __Count$[ebp]
	mov	ecx, DWORD PTR _this$[ebp]
	mov	DWORD PTR [ecx+20], eax

; 3123 :             _Elem* const _Old_ptr   = _Mypair._Myval2._Myptr();

	mov	ecx, DWORD PTR _this$[ebp]
	call	?_Myptr@?$_String_val@U?$_Simple_types@_S@std@@@std@@QAEPA_SXZ ; std::_String_val<std::_Simple_types<char16_t> >::_Myptr
	mov	DWORD PTR __Old_ptr$3[ebp], eax

; 3124 :             _Traits::move(_Old_ptr + _Old_size, _Ptr, _Count);

	mov	eax, DWORD PTR __Count$[ebp]
	push	eax
	mov	ecx, DWORD PTR __Ptr$[ebp]
	push	ecx
	mov	edx, DWORD PTR __Old_size$[ebp]
	mov	eax, DWORD PTR __Old_ptr$3[ebp]
	lea	ecx, DWORD PTR [eax+edx*2]
	push	ecx
	call	?move@?$_Char_traits@_SG@std@@SAPA_SQA_SQB_SI@Z ; std::_Char_traits<char16_t,unsigned short>::move
	add	esp, 12					; 0000000cH

; 3125 :             _Traits::assign(_Old_ptr[_Old_size + _Count], _Elem());

	xor	eax, eax
	mov	WORD PTR $T2[ebp], ax
	lea	ecx, DWORD PTR $T2[ebp]
	push	ecx
	mov	edx, DWORD PTR __Old_size$[ebp]
	add	edx, DWORD PTR __Count$[ebp]
	mov	eax, DWORD PTR __Old_ptr$3[ebp]
	lea	ecx, DWORD PTR [eax+edx*2]
	push	ecx
	call	?assign@?$_WChar_traits@_S@std@@SAXAA_SAB_S@Z ; std::_WChar_traits<char16_t>::assign
	add	esp, 8

; 3126 :             return *this;

	mov	eax, DWORD PTR _this$[ebp]
	jmp	SHORT $LN1@append
$LN2@append:

; 3127 :         }
; 3128 : 
; 3129 :         return _Reallocate_grow_by(

	xor	eax, eax
	mov	BYTE PTR $T1[ebp], al
	mov	ecx, DWORD PTR __Count$[ebp]
	push	ecx
	mov	edx, DWORD PTR __Ptr$[ebp]
	push	edx
	movzx	eax, BYTE PTR $T1[ebp]
	push	eax
	mov	ecx, DWORD PTR __Count$[ebp]
	push	ecx
	mov	ecx, DWORD PTR _this$[ebp]
	call	??$_Reallocate_grow_by@V<lambda_98ae700cc7810ca9f391bc310db97391>@@PB_SI@?$basic_string@_SU?$char_traits@_S@std@@V?$allocator@_S@2@@std@@AAEAAV01@IV<lambda_98ae700cc7810ca9f391bc310db97391>@@PB_SI@Z ; std::basic_string<char16_t,std::char_traits<char16_t>,std::allocator<char16_t> >::_Reallocate_grow_by<<lambda_98ae700cc7810ca9f391bc310db97391>,char16_t const *,unsigned int>
$LN1@append:

; 3130 :             _Count,
; 3131 :             [](_Elem* const _New_ptr, const _Elem* const _Old_ptr, const size_type _Old_size, const _Elem* const _Ptr,
; 3132 :                 const size_type _Count) {
; 3133 :                 _Traits::copy(_New_ptr, _Old_ptr, _Old_size);
; 3134 :                 _Traits::copy(_New_ptr + _Old_size, _Ptr, _Count);
; 3135 :                 _Traits::assign(_New_ptr[_Old_size + _Count], _Elem());
; 3136 :             },
; 3137 :             _Ptr, _Count);
; 3138 :     }

	pop	edi
	pop	esi
	pop	ebx
	add	esp, 252				; 000000fcH
	cmp	ebp, esp
	call	__RTC_CheckEsp
	mov	esp, ebp
	pop	ebp
	ret	8
?append@?$basic_string@_SU?$char_traits@_S@std@@V?$allocator@_S@2@@std@@QAEAAV12@QB_SI@Z ENDP ; std::basic_string<char16_t,std::char_traits<char16_t>,std::allocator<char16_t> >::append
_TEXT	ENDS
; Function compile flags: /Odtp /RTCsu /ZI
; File C:\Program Files (x86)\Microsoft Visual Studio\2019\Community\VC\Tools\MSVC\14.29.30133\include\xstring
;	COMDAT ??1?$basic_string@_SU?$char_traits@_S@std@@V?$allocator@_S@2@@std@@QAE@XZ
_TEXT	SEGMENT
__To_delete$ = -48					; size = 4
_$S3$ = -33						; size = 1
__Alproxy$ = -24					; size = 4
_this$ = -12						; size = 4
__$ArrayPad$ = -4					; size = 4
??1?$basic_string@_SU?$char_traits@_S@std@@V?$allocator@_S@2@@std@@QAE@XZ PROC ; std::basic_string<char16_t,std::char_traits<char16_t>,std::allocator<char16_t> >::~basic_string<char16_t,std::char_traits<char16_t>,std::allocator<char16_t> >, COMDAT
; _this$ = ecx

; 2968 :     _CONSTEXPR20_CONTAINER ~basic_string() noexcept {

	push	ebp
	mov	ebp, esp
	sub	esp, 244				; 000000f4H
	push	ebx
	push	esi
	push	edi
	push	ecx
	lea	edi, DWORD PTR [ebp-52]
	mov	ecx, 13					; 0000000dH
	mov	eax, -858993460				; ccccccccH
	rep stosd
	pop	ecx
	mov	eax, DWORD PTR ___security_cookie
	xor	eax, ebp
	mov	DWORD PTR __$ArrayPad$[ebp], eax
	mov	DWORD PTR _this$[ebp], ecx
	mov	ecx, OFFSET __0D019051_xstring
	call	@__CheckForDebuggerJustMyCode@4

; 2969 :         _Tidy_deallocate();

	mov	ecx, DWORD PTR _this$[ebp]
	call	?_Tidy_deallocate@?$basic_string@_SU?$char_traits@_S@std@@V?$allocator@_S@2@@std@@AAEXXZ ; std::basic_string<char16_t,std::char_traits<char16_t>,std::allocator<char16_t> >::_Tidy_deallocate

; 2970 : #if _ITERATOR_DEBUG_LEVEL != 0
; 2971 :         auto&& _Alproxy          = _GET_PROXY_ALLOCATOR(_Alty, _Getal());

	mov	ecx, DWORD PTR _this$[ebp]
	call	?_Getal@?$basic_string@_SU?$char_traits@_S@std@@V?$allocator@_S@2@@std@@AAEAAV?$allocator@_S@2@XZ ; std::basic_string<char16_t,std::char_traits<char16_t>,std::allocator<char16_t> >::_Getal
	push	eax
	lea	ecx, DWORD PTR _$S3$[ebp]
	call	??$?0_S@?$allocator@U_Container_proxy@std@@@std@@QAE@ABV?$allocator@_S@1@@Z ; std::allocator<std::_Container_proxy>::allocator<std::_Container_proxy><char16_t>
	lea	eax, DWORD PTR _$S3$[ebp]
	mov	DWORD PTR __Alproxy$[ebp], eax

; 2972 :         const auto _To_delete    = _Mypair._Myval2._Myproxy;

	mov	eax, DWORD PTR _this$[ebp]
	mov	ecx, DWORD PTR [eax]
	mov	DWORD PTR __To_delete$[ebp], ecx

; 2973 :         _Mypair._Myval2._Myproxy = nullptr;

	mov	eax, DWORD PTR _this$[ebp]
	mov	DWORD PTR [eax], 0

; 2974 :         _Delete_plain_internal(_Alproxy, _To_delete);

	mov	eax, DWORD PTR __To_delete$[ebp]
	push	eax
	mov	ecx, DWORD PTR __Alproxy$[ebp]
	push	ecx
	call	??$_Delete_plain_internal@V?$allocator@U_Container_proxy@std@@@std@@@std@@YAXAAV?$allocator@U_Container_proxy@std@@@0@QAU_Container_proxy@0@@Z ; std::_Delete_plain_internal<std::allocator<std::_Container_proxy> >
	add	esp, 8

; 2975 : #endif // _ITERATOR_DEBUG_LEVEL != 0
; 2976 :     }

	mov	ecx, DWORD PTR _this$[ebp]
	call	??1?$_Compressed_pair@V?$allocator@_S@std@@V?$_String_val@U?$_Simple_types@_S@std@@@2@$00@std@@QAE@XZ
	push	edx
	mov	ecx, ebp
	push	eax
	lea	edx, DWORD PTR $LN5@basic_stri
	call	@_RTC_CheckStackVars@8
	pop	eax
	pop	edx
	pop	edi
	pop	esi
	pop	ebx
	mov	ecx, DWORD PTR __$ArrayPad$[ebp]
	xor	ecx, ebp
	call	@__security_check_cookie@4
	add	esp, 244				; 000000f4H
	cmp	ebp, esp
	call	__RTC_CheckEsp
	mov	esp, ebp
	pop	ebp
	ret	0
	npad	1
$LN5@basic_stri:
	DD	1
	DD	$LN4@basic_stri
$LN4@basic_stri:
	DD	-33					; ffffffdfH
	DD	1
	DD	$LN3@basic_stri
$LN3@basic_stri:
	DB	36					; 00000024H
	DB	83					; 00000053H
	DB	51					; 00000033H
	DB	0
??1?$basic_string@_SU?$char_traits@_S@std@@V?$allocator@_S@2@@std@@QAE@XZ ENDP ; std::basic_string<char16_t,std::char_traits<char16_t>,std::allocator<char16_t> >::~basic_string<char16_t,std::char_traits<char16_t>,std::allocator<char16_t> >
_TEXT	ENDS
; Function compile flags: /Odtp /RTCsu /ZI
; File C:\Program Files (x86)\Microsoft Visual Studio\2019\Community\VC\Tools\MSVC\14.29.30133\include\xstring
;	COMDAT ?_Take_contents@?$basic_string@_SU?$char_traits@_S@std@@V?$allocator@_S@2@@std@@AAEXAAV12@@Z
_TEXT	SEGMENT
__Right_data$ = -44					; size = 4
__My_data$ = -32					; size = 4
_this$ = -20						; size = 4
__$EHRec$ = -12						; size = 12
__Right$ = 8						; size = 4
?_Take_contents@?$basic_string@_SU?$char_traits@_S@std@@V?$allocator@_S@2@@std@@AAEXAAV12@@Z PROC ; std::basic_string<char16_t,std::char_traits<char16_t>,std::allocator<char16_t> >::_Take_contents, COMDAT
; _this$ = ecx

; 2838 :     _CONSTEXPR20_CONTAINER void _Take_contents(basic_string& _Right) noexcept {

	push	ebp
	mov	ebp, esp
	push	-1
	push	__ehhandler$?_Take_contents@?$basic_string@_SU?$char_traits@_S@std@@V?$allocator@_S@2@@std@@AAEXAAV12@@Z
	mov	eax, DWORD PTR fs:0
	push	eax
	sub	esp, 228				; 000000e4H
	push	ebx
	push	esi
	push	edi
	push	ecx
	lea	edi, DWORD PTR [ebp-48]
	mov	ecx, 9
	mov	eax, -858993460				; ccccccccH
	rep stosd
	pop	ecx
	mov	eax, DWORD PTR ___security_cookie
	xor	eax, ebp
	push	eax
	lea	eax, DWORD PTR __$EHRec$[ebp]
	mov	DWORD PTR fs:0, eax
	mov	DWORD PTR _this$[ebp], ecx
	mov	ecx, OFFSET __0D019051_xstring
	call	@__CheckForDebuggerJustMyCode@4

; 2839 :         // assign by stealing _Right's buffer
; 2840 :         // pre: this != &_Right
; 2841 :         // pre: allocator propagation (POCMA) from _Right, if necessary, is complete
; 2842 :         // pre: *this owns no memory, iterators orphaned
; 2843 :         // (note: _Buf/_Ptr/_Mysize/_Myres may be garbage init)
; 2844 :         auto& _My_data    = _Mypair._Myval2;

	mov	eax, DWORD PTR _this$[ebp]
	mov	DWORD PTR __My_data$[ebp], eax

; 2845 :         auto& _Right_data = _Right._Mypair._Myval2;

	mov	eax, DWORD PTR __Right$[ebp]
	mov	DWORD PTR __Right_data$[ebp], eax

; 2846 : 
; 2847 :         if constexpr (_Can_memcpy_val) {
; 2848 : #ifdef __cpp_lib_constexpr_string
; 2849 :             if (!_STD is_constant_evaluated())
; 2850 : #endif // __cpp_lib_constexpr_string
; 2851 :             {
; 2852 : #if _ITERATOR_DEBUG_LEVEL != 0
; 2853 :                 if (_Right_data._Large_string_engaged()) {

	mov	ecx, DWORD PTR __Right_data$[ebp]
	call	?_Large_string_engaged@?$_String_val@U?$_Simple_types@_S@std@@@std@@QBE_NXZ ; std::_String_val<std::_Simple_types<char16_t> >::_Large_string_engaged
	movzx	eax, al
	test	eax, eax
	je	SHORT $LN2@Take_conte

; 2854 :                     // take ownership of _Right's iterators along with its buffer
; 2855 :                     _Swap_proxy_and_iterators(_Right);

	mov	eax, DWORD PTR __Right$[ebp]
	push	eax
	mov	ecx, DWORD PTR _this$[ebp]
	call	?_Swap_proxy_and_iterators@?$basic_string@_SU?$char_traits@_S@std@@V?$allocator@_S@2@@std@@AAEXAAV12@@Z ; std::basic_string<char16_t,std::char_traits<char16_t>,std::allocator<char16_t> >::_Swap_proxy_and_iterators

; 2856 :                 } else {

	jmp	SHORT $LN3@Take_conte
$LN2@Take_conte:

; 2857 :                     _Right_data._Orphan_all();

	mov	ecx, DWORD PTR __Right_data$[ebp]
	call	?_Orphan_all@_Container_base12@std@@QAEXXZ ; std::_Container_base12::_Orphan_all
$LN3@Take_conte:

; 2858 :                 }
; 2859 : #endif // _ITERATOR_DEBUG_LEVEL != 0
; 2860 : 
; 2861 :                 _Memcpy_val_from(_Right);

	mov	eax, DWORD PTR __Right$[ebp]
	push	eax
	mov	ecx, DWORD PTR _this$[ebp]
	call	?_Memcpy_val_from@?$basic_string@_SU?$char_traits@_S@std@@V?$allocator@_S@2@@std@@AAEXABV12@@Z ; std::basic_string<char16_t,std::char_traits<char16_t>,std::allocator<char16_t> >::_Memcpy_val_from

; 2862 :                 _Right._Tidy_init();

	mov	ecx, DWORD PTR __Right$[ebp]
	call	?_Tidy_init@?$basic_string@_SU?$char_traits@_S@std@@V?$allocator@_S@2@@std@@AAEXXZ ; std::basic_string<char16_t,std::char_traits<char16_t>,std::allocator<char16_t> >::_Tidy_init

; 2863 :                 return;

	jmp	$LN6@Take_conte

; 2864 :             }
; 2865 :         }
; 2866 : 
; 2867 :         if (_Right_data._Large_string_engaged()) { // steal buffer

	mov	ecx, DWORD PTR __Right_data$[ebp]
	call	?_Large_string_engaged@?$_String_val@U?$_Simple_types@_S@std@@@std@@QBE_NXZ ; std::_String_val<std::_Simple_types<char16_t> >::_Large_string_engaged
	movzx	eax, al
	test	eax, eax
	je	SHORT $LN4@Take_conte

; 2868 :             _Construct_in_place(_My_data._Bx._Ptr, _Right_data._Bx._Ptr);

	mov	eax, DWORD PTR __Right_data$[ebp]
	add	eax, 4
	push	eax
	mov	ecx, DWORD PTR __My_data$[ebp]
	add	ecx, 4
	push	ecx
	call	??$_Construct_in_place@PA_SAAPA_S@std@@YAXAAPA_S0@Z ; std::_Construct_in_place<char16_t *,char16_t * &>
	add	esp, 8

; 2869 :             _Right_data._Bx._Ptr = nullptr;

	mov	eax, DWORD PTR __Right_data$[ebp]
	mov	DWORD PTR [eax+4], 0

; 2870 :             _Swap_proxy_and_iterators(_Right);

	mov	eax, DWORD PTR __Right$[ebp]
	push	eax
	mov	ecx, DWORD PTR _this$[ebp]
	call	?_Swap_proxy_and_iterators@?$basic_string@_SU?$char_traits@_S@std@@V?$allocator@_S@2@@std@@AAEXAAV12@@Z ; std::basic_string<char16_t,std::char_traits<char16_t>,std::allocator<char16_t> >::_Swap_proxy_and_iterators

; 2871 :         } else { // copy small string buffer

	jmp	SHORT $LN5@Take_conte
$LN4@Take_conte:

; 2872 :             _Traits::copy(_My_data._Bx._Buf, _Right_data._Bx._Buf, _Right_data._Mysize + 1);

	mov	eax, DWORD PTR __Right_data$[ebp]
	mov	ecx, DWORD PTR [eax+20]
	add	ecx, 1
	push	ecx
	mov	edx, DWORD PTR __Right_data$[ebp]
	add	edx, 4
	push	edx
	mov	eax, DWORD PTR __My_data$[ebp]
	add	eax, 4
	push	eax
	call	?copy@?$_Char_traits@_SG@std@@SAPA_SQA_SQB_SI@Z ; std::_Char_traits<char16_t,unsigned short>::copy
	add	esp, 12					; 0000000cH

; 2873 :             _Right_data._Orphan_all();

	mov	ecx, DWORD PTR __Right_data$[ebp]
	call	?_Orphan_all@_Container_base12@std@@QAEXXZ ; std::_Container_base12::_Orphan_all
$LN5@Take_conte:

; 2874 :         }
; 2875 : 
; 2876 :         _My_data._Mysize = _Right_data._Mysize;

	mov	eax, DWORD PTR __My_data$[ebp]
	mov	ecx, DWORD PTR __Right_data$[ebp]
	mov	edx, DWORD PTR [ecx+20]
	mov	DWORD PTR [eax+20], edx

; 2877 :         _My_data._Myres  = _Right_data._Myres;

	mov	eax, DWORD PTR __My_data$[ebp]
	mov	ecx, DWORD PTR __Right_data$[ebp]
	mov	edx, DWORD PTR [ecx+24]
	mov	DWORD PTR [eax+24], edx

; 2878 :         _Right._Tidy_init();

	mov	ecx, DWORD PTR __Right$[ebp]
	call	?_Tidy_init@?$basic_string@_SU?$char_traits@_S@std@@V?$allocator@_S@2@@std@@AAEXXZ ; std::basic_string<char16_t,std::char_traits<char16_t>,std::allocator<char16_t> >::_Tidy_init
$LN6@Take_conte:

; 2879 :     }

	mov	ecx, DWORD PTR __$EHRec$[ebp]
	mov	DWORD PTR fs:0, ecx
	pop	ecx
	pop	edi
	pop	esi
	pop	ebx
	add	esp, 240				; 000000f0H
	cmp	ebp, esp
	call	__RTC_CheckEsp
	mov	esp, ebp
	pop	ebp
	ret	4
	int	3
	int	3
	int	3
	int	3
	int	3
_TEXT	ENDS
;	COMDAT text$x
text$x	SEGMENT
__ehhandler$?_Take_contents@?$basic_string@_SU?$char_traits@_S@std@@V?$allocator@_S@2@@std@@AAEXAAV12@@Z:
	npad	1
	npad	1
	mov	edx, DWORD PTR [esp+8]
	lea	eax, DWORD PTR [edx+12]
	mov	ecx, DWORD PTR [edx-244]
	xor	ecx, eax
	call	@__security_check_cookie@4
	mov	eax, OFFSET __ehfuncinfo$?_Take_contents@?$basic_string@_SU?$char_traits@_S@std@@V?$allocator@_S@2@@std@@AAEXAAV12@@Z
	jmp	___CxxFrameHandler3
text$x	ENDS
?_Take_contents@?$basic_string@_SU?$char_traits@_S@std@@V?$allocator@_S@2@@std@@AAEXAAV12@@Z ENDP ; std::basic_string<char16_t,std::char_traits<char16_t>,std::allocator<char16_t> >::_Take_contents
; Function compile flags: /Odtp /RTCsu /ZI
; File C:\Program Files (x86)\Microsoft Visual Studio\2019\Community\VC\Tools\MSVC\14.29.30133\include\xstring
;	COMDAT ?_Memcpy_val_from@?$basic_string@_SU?$char_traits@_S@std@@V?$allocator@_S@2@@std@@AAEXABV12@@Z
_TEXT	SEGMENT
__Right_data_mem$ = -32					; size = 4
__My_data_mem$ = -20					; size = 4
_this$ = -8						; size = 4
__Right$ = 8						; size = 4
?_Memcpy_val_from@?$basic_string@_SU?$char_traits@_S@std@@V?$allocator@_S@2@@std@@AAEXABV12@@Z PROC ; std::basic_string<char16_t,std::char_traits<char16_t>,std::allocator<char16_t> >::_Memcpy_val_from, COMDAT
; _this$ = ecx

; 2829 :     void _Memcpy_val_from(const basic_string& _Right) noexcept {

	push	ebp
	mov	ebp, esp
	sub	esp, 228				; 000000e4H
	push	ebx
	push	esi
	push	edi
	push	ecx
	lea	edi, DWORD PTR [ebp-36]
	mov	ecx, 9
	mov	eax, -858993460				; ccccccccH
	rep stosd
	pop	ecx
	mov	DWORD PTR _this$[ebp], ecx
	mov	ecx, OFFSET __0D019051_xstring
	call	@__CheckForDebuggerJustMyCode@4

; 2830 :         _STL_INTERNAL_CHECK(_Can_memcpy_val); // TRANSITION, if constexpr
; 2831 :         const auto _My_data_mem =

	mov	eax, DWORD PTR _this$[ebp]
	push	eax
	call	??$addressof@V?$_String_val@U?$_Simple_types@_S@std@@@std@@@std@@YAPAV?$_String_val@U?$_Simple_types@_S@std@@@0@AAV10@@Z ; std::addressof<std::_String_val<std::_Simple_types<char16_t> > >
	add	esp, 4
	add	eax, 4
	mov	DWORD PTR __My_data_mem$[ebp], eax

; 2832 :             reinterpret_cast<unsigned char*>(_STD addressof(_Mypair._Myval2)) + _Memcpy_val_offset;
; 2833 :         const auto _Right_data_mem =

	mov	eax, DWORD PTR __Right$[ebp]
	push	eax
	call	??$addressof@$$CBV?$_String_val@U?$_Simple_types@_S@std@@@std@@@std@@YAPBV?$_String_val@U?$_Simple_types@_S@std@@@0@ABV10@@Z ; std::addressof<std::_String_val<std::_Simple_types<char16_t> > const >
	add	esp, 4
	add	eax, 4
	mov	DWORD PTR __Right_data_mem$[ebp], eax

; 2834 :             reinterpret_cast<const unsigned char*>(_STD addressof(_Right._Mypair._Myval2)) + _Memcpy_val_offset;
; 2835 :         _CSTD memcpy(_My_data_mem, _Right_data_mem, _Memcpy_val_size);

	push	24					; 00000018H
	mov	eax, DWORD PTR __Right_data_mem$[ebp]
	push	eax
	mov	ecx, DWORD PTR __My_data_mem$[ebp]
	push	ecx
	call	_memcpy
	add	esp, 12					; 0000000cH

; 2836 :     }

	pop	edi
	pop	esi
	pop	ebx
	add	esp, 228				; 000000e4H
	cmp	ebp, esp
	call	__RTC_CheckEsp
	mov	esp, ebp
	pop	ebp
	ret	4
?_Memcpy_val_from@?$basic_string@_SU?$char_traits@_S@std@@V?$allocator@_S@2@@std@@AAEXABV12@@Z ENDP ; std::basic_string<char16_t,std::char_traits<char16_t>,std::allocator<char16_t> >::_Memcpy_val_from
_TEXT	ENDS
; Function compile flags: /Odtp /RTCsu /ZI
; File C:\Program Files (x86)\Microsoft Visual Studio\2019\Community\VC\Tools\MSVC\14.29.30133\include\xstring
;	COMDAT ??0?$basic_string@_SU?$char_traits@_S@std@@V?$allocator@_S@2@@std@@QAE@$$QAV01@@Z
_TEXT	SEGMENT
$T2 = -233						; size = 1
$T3 = -221						; size = 1
_this$ = -20						; size = 4
__$EHRec$ = -12						; size = 12
__Right$ = 8						; size = 4
??0?$basic_string@_SU?$char_traits@_S@std@@V?$allocator@_S@2@@std@@QAE@$$QAV01@@Z PROC ; std::basic_string<char16_t,std::char_traits<char16_t>,std::allocator<char16_t> >::basic_string<char16_t,std::char_traits<char16_t>,std::allocator<char16_t> >, COMDAT
; _this$ = ecx

; 2571 :         : _Mypair(_One_then_variadic_args_t{}, _STD move(_Right._Getal())) {

	push	ebp
	mov	ebp, esp
	push	-1
	push	__ehhandler$??0?$basic_string@_SU?$char_traits@_S@std@@V?$allocator@_S@2@@std@@QAE@$$QAV01@@Z
	mov	eax, DWORD PTR fs:0
	push	eax
	sub	esp, 228				; 000000e4H
	push	ebx
	push	esi
	push	edi
	push	ecx
	lea	edi, DWORD PTR [ebp-48]
	mov	ecx, 9
	mov	eax, -858993460				; ccccccccH
	rep stosd
	pop	ecx
	mov	eax, DWORD PTR ___security_cookie
	xor	eax, ebp
	push	eax
	lea	eax, DWORD PTR __$EHRec$[ebp]
	mov	DWORD PTR fs:0, eax
	mov	DWORD PTR _this$[ebp], ecx
	mov	ecx, OFFSET __0D019051_xstring
	call	@__CheckForDebuggerJustMyCode@4
	mov	ecx, DWORD PTR __Right$[ebp]
	call	?_Getal@?$basic_string@_SU?$char_traits@_S@std@@V?$allocator@_S@2@@std@@AAEAAV?$allocator@_S@2@XZ ; std::basic_string<char16_t,std::char_traits<char16_t>,std::allocator<char16_t> >::_Getal
	push	eax
	call	??$move@AAV?$allocator@_S@std@@@std@@YA$$QAV?$allocator@_S@0@AAV10@@Z ; std::move<std::allocator<char16_t> &>
	add	esp, 4
	push	eax
	movzx	eax, BYTE PTR $T3[ebp]
	push	eax
	mov	ecx, DWORD PTR _this$[ebp]
	call	??$?0V?$allocator@_S@std@@$$V@?$_Compressed_pair@V?$allocator@_S@std@@V?$_String_val@U?$_Simple_types@_S@std@@@2@$00@std@@QAE@U_One_then_variadic_args_t@1@$$QAV?$allocator@_S@1@@Z ; std::_Compressed_pair<std::allocator<char16_t>,std::_String_val<std::_Simple_types<char16_t> >,1>::_Compressed_pair<std::allocator<char16_t>,std::_String_val<std::_Simple_types<char16_t> >,1><std::allocator<char16_t> >

; 2572 :         _Mypair._Myval2._Alloc_proxy(_GET_PROXY_ALLOCATOR(_Alty, _Getal()));

	mov	ecx, DWORD PTR _this$[ebp]
	call	?_Getal@?$basic_string@_SU?$char_traits@_S@std@@V?$allocator@_S@2@@std@@AAEAAV?$allocator@_S@2@XZ ; std::basic_string<char16_t,std::char_traits<char16_t>,std::allocator<char16_t> >::_Getal
	push	eax
	lea	ecx, DWORD PTR $T2[ebp]
	call	??$?0_S@?$allocator@U_Container_proxy@std@@@std@@QAE@ABV?$allocator@_S@1@@Z ; std::allocator<std::_Container_proxy>::allocator<std::_Container_proxy><char16_t>
	push	eax
	mov	ecx, DWORD PTR _this$[ebp]
	call	??$_Alloc_proxy@V?$allocator@U_Container_proxy@std@@@std@@@_Container_base12@std@@QAEX$$QAV?$allocator@U_Container_proxy@std@@@1@@Z ; std::_Container_base12::_Alloc_proxy<std::allocator<std::_Container_proxy> >

; 2573 :         _Take_contents(_Right);

	mov	eax, DWORD PTR __Right$[ebp]
	push	eax
	mov	ecx, DWORD PTR _this$[ebp]
	call	?_Take_contents@?$basic_string@_SU?$char_traits@_S@std@@V?$allocator@_S@2@@std@@AAEXAAV12@@Z ; std::basic_string<char16_t,std::char_traits<char16_t>,std::allocator<char16_t> >::_Take_contents

; 2574 :     }

	mov	eax, DWORD PTR _this$[ebp]
	mov	ecx, DWORD PTR __$EHRec$[ebp]
	mov	DWORD PTR fs:0, ecx
	pop	ecx
	pop	edi
	pop	esi
	pop	ebx
	add	esp, 240				; 000000f0H
	cmp	ebp, esp
	call	__RTC_CheckEsp
	mov	esp, ebp
	pop	ebp
	ret	4
	int	3
	int	3
	int	3
	int	3
	int	3
_TEXT	ENDS
;	COMDAT text$x
text$x	SEGMENT
__ehhandler$??0?$basic_string@_SU?$char_traits@_S@std@@V?$allocator@_S@2@@std@@QAE@$$QAV01@@Z:
	npad	1
	npad	1
	mov	edx, DWORD PTR [esp+8]
	lea	eax, DWORD PTR [edx+12]
	mov	ecx, DWORD PTR [edx-244]
	xor	ecx, eax
	call	@__security_check_cookie@4
	mov	eax, OFFSET __ehfuncinfo$??0?$basic_string@_SU?$char_traits@_S@std@@V?$allocator@_S@2@@std@@QAE@$$QAV01@@Z
	jmp	___CxxFrameHandler3
text$x	ENDS
??0?$basic_string@_SU?$char_traits@_S@std@@V?$allocator@_S@2@@std@@QAE@$$QAV01@@Z ENDP ; std::basic_string<char16_t,std::char_traits<char16_t>,std::allocator<char16_t> >::basic_string<char16_t,std::char_traits<char16_t>,std::allocator<char16_t> >
; Function compile flags: /Odtp /RTCsu /ZI
; File C:\Program Files (x86)\Microsoft Visual Studio\2019\Community\VC\Tools\MSVC\14.29.30133\include\xstring
;	COMDAT ??0?$basic_string@_SU?$char_traits@_S@std@@V?$allocator@_S@2@@std@@QAE@QB_SI@Z
_TEXT	SEGMENT
$T2 = -265						; size = 1
__Proxy$ = -64						; size = 8
_$S4$ = -45						; size = 1
__Alproxy$ = -36					; size = 4
_this$ = -24						; size = 4
__$ArrayPad$ = -16					; size = 4
__$EHRec$ = -12						; size = 12
__Ptr$ = 8						; size = 4
__Count$ = 12						; size = 4
??0?$basic_string@_SU?$char_traits@_S@std@@V?$allocator@_S@2@@std@@QAE@QB_SI@Z PROC ; std::basic_string<char16_t,std::char_traits<char16_t>,std::allocator<char16_t> >::basic_string<char16_t,std::char_traits<char16_t>,std::allocator<char16_t> >, COMDAT
; _this$ = ecx

; 2465 :         : _Mypair(_Zero_then_variadic_args_t{}) {

	push	ebp
	mov	ebp, esp
	push	-1
	push	__ehhandler$??0?$basic_string@_SU?$char_traits@_S@std@@V?$allocator@_S@2@@std@@QAE@QB_SI@Z
	mov	eax, DWORD PTR fs:0
	push	eax
	sub	esp, 260				; 00000104H
	push	ebx
	push	esi
	push	edi
	push	ecx
	lea	edi, DWORD PTR [ebp-80]
	mov	ecx, 17					; 00000011H
	mov	eax, -858993460				; ccccccccH
	rep stosd
	pop	ecx
	mov	eax, DWORD PTR ___security_cookie
	xor	eax, ebp
	mov	DWORD PTR __$ArrayPad$[ebp], eax
	push	eax
	lea	eax, DWORD PTR __$EHRec$[ebp]
	mov	DWORD PTR fs:0, eax
	mov	DWORD PTR _this$[ebp], ecx
	mov	ecx, OFFSET __0D019051_xstring
	call	@__CheckForDebuggerJustMyCode@4
	movzx	eax, BYTE PTR $T2[ebp]
	push	eax
	mov	ecx, DWORD PTR _this$[ebp]
	call	??$?0$$V@?$_Compressed_pair@V?$allocator@_S@std@@V?$_String_val@U?$_Simple_types@_S@std@@@2@$00@std@@QAE@U_Zero_then_variadic_args_t@1@@Z ; std::_Compressed_pair<std::allocator<char16_t>,std::_String_val<std::_Simple_types<char16_t> >,1>::_Compressed_pair<std::allocator<char16_t>,std::_String_val<std::_Simple_types<char16_t> >,1><>
	mov	DWORD PTR __$EHRec$[ebp+8], 0

; 2466 :         auto&& _Alproxy = _GET_PROXY_ALLOCATOR(_Alty, _Getal());

	mov	ecx, DWORD PTR _this$[ebp]
	call	?_Getal@?$basic_string@_SU?$char_traits@_S@std@@V?$allocator@_S@2@@std@@AAEAAV?$allocator@_S@2@XZ ; std::basic_string<char16_t,std::char_traits<char16_t>,std::allocator<char16_t> >::_Getal
	push	eax
	lea	ecx, DWORD PTR _$S4$[ebp]
	call	??$?0_S@?$allocator@U_Container_proxy@std@@@std@@QAE@ABV?$allocator@_S@1@@Z ; std::allocator<std::_Container_proxy>::allocator<std::_Container_proxy><char16_t>
	lea	eax, DWORD PTR _$S4$[ebp]
	mov	DWORD PTR __Alproxy$[ebp], eax

; 2467 :         _Container_proxy_ptr<_Alty> _Proxy(_Alproxy, _Mypair._Myval2);

	mov	eax, DWORD PTR _this$[ebp]
	push	eax
	mov	ecx, DWORD PTR __Alproxy$[ebp]
	push	ecx
	lea	ecx, DWORD PTR __Proxy$[ebp]
	call	??0?$_Container_proxy_ptr12@V?$allocator@U_Container_proxy@std@@@std@@@std@@QAE@AAV?$allocator@U_Container_proxy@std@@@1@AAU_Container_base12@1@@Z ; std::_Container_proxy_ptr12<std::allocator<std::_Container_proxy> >::_Container_proxy_ptr12<std::allocator<std::_Container_proxy> >
	mov	BYTE PTR __$EHRec$[ebp+8], 1

; 2468 :         _Tidy_init();

	mov	ecx, DWORD PTR _this$[ebp]
	call	?_Tidy_init@?$basic_string@_SU?$char_traits@_S@std@@V?$allocator@_S@2@@std@@AAEXXZ ; std::basic_string<char16_t,std::char_traits<char16_t>,std::allocator<char16_t> >::_Tidy_init

; 2469 :         assign(_Ptr, _Count);

	mov	eax, DWORD PTR __Count$[ebp]
	push	eax
	mov	ecx, DWORD PTR __Ptr$[ebp]
	push	ecx
	mov	ecx, DWORD PTR _this$[ebp]
	call	?assign@?$basic_string@_SU?$char_traits@_S@std@@V?$allocator@_S@2@@std@@QAEAAV12@QB_SI@Z ; std::basic_string<char16_t,std::char_traits<char16_t>,std::allocator<char16_t> >::assign

; 2470 :         _Proxy._Release();

	lea	ecx, DWORD PTR __Proxy$[ebp]
	call	?_Release@_Basic_container_proxy_ptr12@std@@QAEXXZ ; std::_Basic_container_proxy_ptr12::_Release

; 2471 :     }

	mov	BYTE PTR __$EHRec$[ebp+8], 0
	lea	ecx, DWORD PTR __Proxy$[ebp]
	call	??1?$_Container_proxy_ptr12@V?$allocator@U_Container_proxy@std@@@std@@@std@@QAE@XZ ; std::_Container_proxy_ptr12<std::allocator<std::_Container_proxy> >::~_Container_proxy_ptr12<std::allocator<std::_Container_proxy> >
	mov	DWORD PTR __$EHRec$[ebp+8], -1
	mov	eax, DWORD PTR _this$[ebp]
	push	edx
	mov	ecx, ebp
	push	eax
	lea	edx, DWORD PTR $LN9@basic_stri
	call	@_RTC_CheckStackVars@8
	pop	eax
	pop	edx
	mov	ecx, DWORD PTR __$EHRec$[ebp]
	mov	DWORD PTR fs:0, ecx
	pop	ecx
	pop	edi
	pop	esi
	pop	ebx
	mov	ecx, DWORD PTR __$ArrayPad$[ebp]
	xor	ecx, ebp
	call	@__security_check_cookie@4
	add	esp, 272				; 00000110H
	cmp	ebp, esp
	call	__RTC_CheckEsp
	mov	esp, ebp
	pop	ebp
	ret	8
$LN9@basic_stri:
	DD	2
	DD	$LN8@basic_stri
$LN8@basic_stri:
	DD	-45					; ffffffd3H
	DD	1
	DD	$LN5@basic_stri
	DD	-64					; ffffffc0H
	DD	8
	DD	$LN6@basic_stri
$LN6@basic_stri:
	DB	95					; 0000005fH
	DB	80					; 00000050H
	DB	114					; 00000072H
	DB	111					; 0000006fH
	DB	120					; 00000078H
	DB	121					; 00000079H
	DB	0
$LN5@basic_stri:
	DB	36					; 00000024H
	DB	83					; 00000053H
	DB	52					; 00000034H
	DB	0
_TEXT	ENDS
;	COMDAT text$x
text$x	SEGMENT
__unwindfunclet$??0?$basic_string@_SU?$char_traits@_S@std@@V?$allocator@_S@2@@std@@QAE@QB_SI@Z$0:
	mov	ecx, DWORD PTR _this$[ebp]
	jmp	??1?$_Compressed_pair@V?$allocator@_S@std@@V?$_String_val@U?$_Simple_types@_S@std@@@2@$00@std@@QAE@XZ
__unwindfunclet$??0?$basic_string@_SU?$char_traits@_S@std@@V?$allocator@_S@2@@std@@QAE@QB_SI@Z$1:
	lea	ecx, DWORD PTR __Proxy$[ebp]
	jmp	??1?$_Container_proxy_ptr12@V?$allocator@U_Container_proxy@std@@@std@@@std@@QAE@XZ ; std::_Container_proxy_ptr12<std::allocator<std::_Container_proxy> >::~_Container_proxy_ptr12<std::allocator<std::_Container_proxy> >
	int	3
	int	3
	int	3
	int	3
	int	3
__ehhandler$??0?$basic_string@_SU?$char_traits@_S@std@@V?$allocator@_S@2@@std@@QAE@QB_SI@Z:
	npad	1
	npad	1
	mov	edx, DWORD PTR [esp+8]
	lea	eax, DWORD PTR [edx+12]
	mov	ecx, DWORD PTR [edx-276]
	xor	ecx, eax
	call	@__security_check_cookie@4
	mov	ecx, DWORD PTR [edx-4]
	xor	ecx, eax
	call	@__security_check_cookie@4
	mov	eax, OFFSET __ehfuncinfo$??0?$basic_string@_SU?$char_traits@_S@std@@V?$allocator@_S@2@@std@@QAE@QB_SI@Z
	jmp	___CxxFrameHandler3
text$x	ENDS
??0?$basic_string@_SU?$char_traits@_S@std@@V?$allocator@_S@2@@std@@QAE@QB_SI@Z ENDP ; std::basic_string<char16_t,std::char_traits<char16_t>,std::allocator<char16_t> >::basic_string<char16_t,std::char_traits<char16_t>,std::allocator<char16_t> >
; Function compile flags: /Odtp /RTCsu /ZI
;	COMDAT ??1?$_String_val@U?$_Simple_types@_S@std@@@std@@QAE@XZ
_TEXT	SEGMENT
_this$ = -8						; size = 4
??1?$_String_val@U?$_Simple_types@_S@std@@@std@@QAE@XZ PROC ; std::_String_val<std::_Simple_types<char16_t> >::~_String_val<std::_Simple_types<char16_t> >, COMDAT
; _this$ = ecx
	push	ebp
	mov	ebp, esp
	sub	esp, 204				; 000000ccH
	push	ebx
	push	esi
	push	edi
	push	ecx
	lea	edi, DWORD PTR [ebp-12]
	mov	ecx, 3
	mov	eax, -858993460				; ccccccccH
	rep stosd
	pop	ecx
	mov	DWORD PTR _this$[ebp], ecx
	mov	ecx, DWORD PTR _this$[ebp]
	add	ecx, 4
	call	??1_Bxty@?$_String_val@U?$_Simple_types@_S@std@@@std@@QAE@XZ ; std::_String_val<std::_Simple_types<char16_t> >::_Bxty::~_Bxty
	pop	edi
	pop	esi
	pop	ebx
	add	esp, 204				; 000000ccH
	cmp	ebp, esp
	call	__RTC_CheckEsp
	mov	esp, ebp
	pop	ebp
	ret	0
??1?$_String_val@U?$_Simple_types@_S@std@@@std@@QAE@XZ ENDP ; std::_String_val<std::_Simple_types<char16_t> >::~_String_val<std::_Simple_types<char16_t> >
_TEXT	ENDS
; Function compile flags: /Odtp /RTCsu /ZI
; File C:\Program Files (x86)\Microsoft Visual Studio\2019\Community\VC\Tools\MSVC\14.29.30133\include\xstring
;	COMDAT ??1_Bxty@?$_String_val@U?$_Simple_types@_S@std@@@std@@QAE@XZ
_TEXT	SEGMENT
_this$ = -8						; size = 4
??1_Bxty@?$_String_val@U?$_Simple_types@_S@std@@@std@@QAE@XZ PROC ; std::_String_val<std::_Simple_types<char16_t> >::_Bxty::~_Bxty, COMDAT
; _this$ = ecx

; 2315 :         _CONSTEXPR20_CONTAINER ~_Bxty() noexcept {} // user-provided, for fancy pointers

	push	ebp
	mov	ebp, esp
	sub	esp, 204				; 000000ccH
	push	ebx
	push	esi
	push	edi
	push	ecx
	lea	edi, DWORD PTR [ebp-12]
	mov	ecx, 3
	mov	eax, -858993460				; ccccccccH
	rep stosd
	pop	ecx
	mov	DWORD PTR _this$[ebp], ecx
	mov	ecx, OFFSET __0D019051_xstring
	call	@__CheckForDebuggerJustMyCode@4
	pop	edi
	pop	esi
	pop	ebx
	add	esp, 204				; 000000ccH
	cmp	ebp, esp
	call	__RTC_CheckEsp
	mov	esp, ebp
	pop	ebp
	ret	0
??1_Bxty@?$_String_val@U?$_Simple_types@_S@std@@@std@@QAE@XZ ENDP ; std::_String_val<std::_Simple_types<char16_t> >::_Bxty::~_Bxty
_TEXT	ENDS
; Function compile flags: /Odtp /RTCsu /ZI
; File C:\Program Files (x86)\Microsoft Visual Studio\2019\Community\VC\Tools\MSVC\14.29.30133\include\xstring
;	COMDAT ??0_Bxty@?$_String_val@U?$_Simple_types@_S@std@@@std@@QAE@XZ
_TEXT	SEGMENT
_this$ = -8						; size = 4
??0_Bxty@?$_String_val@U?$_Simple_types@_S@std@@@std@@QAE@XZ PROC ; std::_String_val<std::_Simple_types<char16_t> >::_Bxty::_Bxty, COMDAT
; _this$ = ecx

; 2313 :         _CONSTEXPR20_CONTAINER _Bxty() noexcept : _Ptr() {} // user-provided, for fancy pointers

	push	ebp
	mov	ebp, esp
	sub	esp, 204				; 000000ccH
	push	ebx
	push	esi
	push	edi
	push	ecx
	lea	edi, DWORD PTR [ebp-12]
	mov	ecx, 3
	mov	eax, -858993460				; ccccccccH
	rep stosd
	pop	ecx
	mov	DWORD PTR _this$[ebp], ecx
	mov	ecx, OFFSET __0D019051_xstring
	call	@__CheckForDebuggerJustMyCode@4
	mov	eax, DWORD PTR _this$[ebp]
	mov	DWORD PTR [eax], 0
	mov	eax, DWORD PTR _this$[ebp]
	pop	edi
	pop	esi
	pop	ebx
	add	esp, 204				; 000000ccH
	cmp	ebp, esp
	call	__RTC_CheckEsp
	mov	esp, ebp
	pop	ebp
	ret	0
??0_Bxty@?$_String_val@U?$_Simple_types@_S@std@@@std@@QAE@XZ ENDP ; std::_String_val<std::_Simple_types<char16_t> >::_Bxty::_Bxty
_TEXT	ENDS
; Function compile flags: /Odtp /RTCsu /ZI
; File C:\Program Files (x86)\Microsoft Visual Studio\2019\Community\VC\Tools\MSVC\14.29.30133\include\xstring
;	COMDAT ?_Large_string_engaged@?$_String_val@U?$_Simple_types@_S@std@@@std@@QBE_NXZ
_TEXT	SEGMENT
tv66 = -208						; size = 4
_this$ = -8						; size = 4
?_Large_string_engaged@?$_String_val@U?$_Simple_types@_S@std@@@std@@QBE_NXZ PROC ; std::_String_val<std::_Simple_types<char16_t> >::_Large_string_engaged, COMDAT
; _this$ = ecx

; 2280 :     _CONSTEXPR20_CONTAINER bool _Large_string_engaged() const noexcept {

	push	ebp
	mov	ebp, esp
	sub	esp, 208				; 000000d0H
	push	ebx
	push	esi
	push	edi
	push	ecx
	lea	edi, DWORD PTR [ebp-16]
	mov	ecx, 4
	mov	eax, -858993460				; ccccccccH
	rep stosd
	pop	ecx
	mov	DWORD PTR _this$[ebp], ecx
	mov	ecx, OFFSET __0D019051_xstring
	call	@__CheckForDebuggerJustMyCode@4

; 2281 : #ifdef __cpp_lib_constexpr_string
; 2282 :         if (_STD is_constant_evaluated()) {
; 2283 :             return true;
; 2284 :         }
; 2285 : #endif // __cpp_lib_constexpr_string
; 2286 :         return _BUF_SIZE <= _Myres;

	mov	eax, DWORD PTR _this$[ebp]
	cmp	DWORD PTR [eax+24], 8
	jb	SHORT $LN3@Large_stri
	mov	DWORD PTR tv66[ebp], 1
	jmp	SHORT $LN4@Large_stri
$LN3@Large_stri:
	mov	DWORD PTR tv66[ebp], 0
$LN4@Large_stri:
	mov	al, BYTE PTR tv66[ebp]

; 2287 :     }

	pop	edi
	pop	esi
	pop	ebx
	add	esp, 208				; 000000d0H
	cmp	ebp, esp
	call	__RTC_CheckEsp
	mov	esp, ebp
	pop	ebp
	ret	0
?_Large_string_engaged@?$_String_val@U?$_Simple_types@_S@std@@@std@@QBE_NXZ ENDP ; std::_String_val<std::_Simple_types<char16_t> >::_Large_string_engaged
_TEXT	ENDS
; Function compile flags: /Odtp /RTCsu /ZI
; File C:\Program Files (x86)\Microsoft Visual Studio\2019\Community\VC\Tools\MSVC\14.29.30133\include\xstring
;	COMDAT ?_Myptr@?$_String_val@U?$_Simple_types@_S@std@@@std@@QAEPA_SXZ
_TEXT	SEGMENT
__Result$ = -20						; size = 4
_this$ = -8						; size = 4
?_Myptr@?$_String_val@U?$_Simple_types@_S@std@@@std@@QAEPA_SXZ PROC ; std::_String_val<std::_Simple_types<char16_t> >::_Myptr, COMDAT
; _this$ = ecx

; 2262 :     _CONSTEXPR20_CONTAINER value_type* _Myptr() noexcept {

	push	ebp
	mov	ebp, esp
	sub	esp, 216				; 000000d8H
	push	ebx
	push	esi
	push	edi
	push	ecx
	lea	edi, DWORD PTR [ebp-24]
	mov	ecx, 6
	mov	eax, -858993460				; ccccccccH
	rep stosd
	pop	ecx
	mov	DWORD PTR _this$[ebp], ecx
	mov	ecx, OFFSET __0D019051_xstring
	call	@__CheckForDebuggerJustMyCode@4

; 2263 :         value_type* _Result = _Bx._Buf;

	mov	eax, DWORD PTR _this$[ebp]
	add	eax, 4
	mov	DWORD PTR __Result$[ebp], eax

; 2264 :         if (_Large_string_engaged()) {

	mov	ecx, DWORD PTR _this$[ebp]
	call	?_Large_string_engaged@?$_String_val@U?$_Simple_types@_S@std@@@std@@QBE_NXZ ; std::_String_val<std::_Simple_types<char16_t> >::_Large_string_engaged
	movzx	eax, al
	test	eax, eax
	je	SHORT $LN2@Myptr

; 2265 :             _Result = _Unfancy(_Bx._Ptr);

	mov	eax, DWORD PTR _this$[ebp]
	mov	ecx, DWORD PTR [eax+4]
	push	ecx
	call	??$_Unfancy@_S@std@@YAPA_SPA_S@Z	; std::_Unfancy<char16_t>
	add	esp, 4
	mov	DWORD PTR __Result$[ebp], eax
$LN2@Myptr:

; 2266 :         }
; 2267 : 
; 2268 :         return _Result;

	mov	eax, DWORD PTR __Result$[ebp]

; 2269 :     }

	pop	edi
	pop	esi
	pop	ebx
	add	esp, 216				; 000000d8H
	cmp	ebp, esp
	call	__RTC_CheckEsp
	mov	esp, ebp
	pop	ebp
	ret	0
?_Myptr@?$_String_val@U?$_Simple_types@_S@std@@@std@@QAEPA_SXZ ENDP ; std::_String_val<std::_Simple_types<char16_t> >::_Myptr
_TEXT	ENDS
; Function compile flags: /Odtp /RTCsu /ZI
; File C:\Program Files (x86)\Microsoft Visual Studio\2019\Community\VC\Tools\MSVC\14.29.30133\include\xstring
;	COMDAT ??0?$_String_val@U?$_Simple_types@_S@std@@@std@@QAE@XZ
_TEXT	SEGMENT
_this$ = -8						; size = 4
??0?$_String_val@U?$_Simple_types@_S@std@@@std@@QAE@XZ PROC ; std::_String_val<std::_Simple_types<char16_t> >::_String_val<std::_Simple_types<char16_t> >, COMDAT
; _this$ = ecx

; 2251 :     _CONSTEXPR20_CONTAINER _String_val() noexcept : _Bx() {}

	push	ebp
	mov	ebp, esp
	sub	esp, 204				; 000000ccH
	push	ebx
	push	esi
	push	edi
	push	ecx
	lea	edi, DWORD PTR [ebp-12]
	mov	ecx, 3
	mov	eax, -858993460				; ccccccccH
	rep stosd
	pop	ecx
	mov	DWORD PTR _this$[ebp], ecx
	mov	ecx, OFFSET __0D019051_xstring
	call	@__CheckForDebuggerJustMyCode@4
	mov	ecx, DWORD PTR _this$[ebp]
	call	??0_Container_base12@std@@QAE@XZ	; std::_Container_base12::_Container_base12
	mov	ecx, DWORD PTR _this$[ebp]
	add	ecx, 4
	call	??0_Bxty@?$_String_val@U?$_Simple_types@_S@std@@@std@@QAE@XZ ; std::_String_val<std::_Simple_types<char16_t> >::_Bxty::_Bxty

; 2252 : 
; 2253 :     // length of internal buffer, [1, 16]:
; 2254 :     static constexpr size_type _BUF_SIZE = 16 / sizeof(value_type) < 1 ? 1 : 16 / sizeof(value_type);
; 2255 :     // roundup mask for allocated buffers, [0, 15]:
; 2256 :     static constexpr size_type _ALLOC_MASK = sizeof(value_type) <= 1 ? 15
; 2257 :                                            : sizeof(value_type) <= 2 ? 7
; 2258 :                                            : sizeof(value_type) <= 4 ? 3
; 2259 :                                            : sizeof(value_type) <= 8 ? 1
; 2260 :                                                                      : 0;
; 2261 : 
; 2262 :     _CONSTEXPR20_CONTAINER value_type* _Myptr() noexcept {
; 2263 :         value_type* _Result = _Bx._Buf;
; 2264 :         if (_Large_string_engaged()) {
; 2265 :             _Result = _Unfancy(_Bx._Ptr);
; 2266 :         }
; 2267 : 
; 2268 :         return _Result;
; 2269 :     }
; 2270 : 
; 2271 :     _CONSTEXPR20_CONTAINER const value_type* _Myptr() const noexcept {
; 2272 :         const value_type* _Result = _Bx._Buf;
; 2273 :         if (_Large_string_engaged()) {
; 2274 :             _Result = _Unfancy(_Bx._Ptr);
; 2275 :         }
; 2276 : 
; 2277 :         return _Result;
; 2278 :     }
; 2279 : 
; 2280 :     _CONSTEXPR20_CONTAINER bool _Large_string_engaged() const noexcept {
; 2281 : #ifdef __cpp_lib_constexpr_string
; 2282 :         if (_STD is_constant_evaluated()) {
; 2283 :             return true;
; 2284 :         }
; 2285 : #endif // __cpp_lib_constexpr_string
; 2286 :         return _BUF_SIZE <= _Myres;
; 2287 :     }
; 2288 : 
; 2289 :     _CONSTEXPR20_CONTAINER void _Check_offset(const size_type _Off) const {
; 2290 :         // checks whether _Off is in the bounds of [0, size()]
; 2291 :         if (_Mysize < _Off) {
; 2292 :             _Xran();
; 2293 :         }
; 2294 :     }
; 2295 : 
; 2296 :     _CONSTEXPR20_CONTAINER void _Check_offset_exclusive(const size_type _Off) const {
; 2297 :         // checks whether _Off is in the bounds of [0, size())
; 2298 :         if (_Mysize <= _Off) {
; 2299 :             _Xran();
; 2300 :         }
; 2301 :     }
; 2302 : 
; 2303 :     [[noreturn]] static void _Xran() {
; 2304 :         _Xout_of_range("invalid string position");
; 2305 :     }
; 2306 : 
; 2307 :     _CONSTEXPR20_CONTAINER size_type _Clamp_suffix_size(const size_type _Off, const size_type _Size) const noexcept {
; 2308 :         // trims _Size to the longest it can be assuming a string at/after _Off
; 2309 :         return (_STD min)(_Size, _Mysize - _Off);
; 2310 :     }
; 2311 : 
; 2312 :     union _Bxty { // storage for small buffer or pointer to larger one
; 2313 :         _CONSTEXPR20_CONTAINER _Bxty() noexcept : _Ptr() {} // user-provided, for fancy pointers
; 2314 : 
; 2315 :         _CONSTEXPR20_CONTAINER ~_Bxty() noexcept {} // user-provided, for fancy pointers
; 2316 : 
; 2317 :         value_type _Buf[_BUF_SIZE];
; 2318 :         pointer _Ptr;
; 2319 :         char _Alias[_BUF_SIZE]; // TRANSITION, ABI: _Alias is preserved for binary compatibility (especially /clr)
; 2320 :     } _Bx;
; 2321 : 
; 2322 :     size_type _Mysize = 0; // current length of string

	mov	eax, DWORD PTR _this$[ebp]
	mov	DWORD PTR [eax+20], 0

; 2323 :     size_type _Myres  = 0; // current storage reserved for string

	mov	eax, DWORD PTR _this$[ebp]
	mov	DWORD PTR [eax+24], 0

; 2251 :     _CONSTEXPR20_CONTAINER _String_val() noexcept : _Bx() {}

	mov	eax, DWORD PTR _this$[ebp]
	pop	edi
	pop	esi
	pop	ebx
	add	esp, 204				; 000000ccH
	cmp	ebp, esp
	call	__RTC_CheckEsp
	mov	esp, ebp
	pop	ebp
	ret	0
??0?$_String_val@U?$_Simple_types@_S@std@@@std@@QAE@XZ ENDP ; std::_String_val<std::_Simple_types<char16_t> >::_String_val<std::_Simple_types<char16_t> >
_TEXT	ENDS
; Function compile flags: /Odtp /RTCsu /ZI
; File C:\Program Files (x86)\Microsoft Visual Studio\2019\Community\VC\Tools\MSVC\14.29.30133\include\xmemory
;	COMDAT ?max_size@?$_Default_allocator_traits@V?$allocator@_S@std@@@std@@SAIABV?$allocator@_S@2@@Z
_TEXT	SEGMENT
___formal$ = 8						; size = 4
?max_size@?$_Default_allocator_traits@V?$allocator@_S@std@@@std@@SAIABV?$allocator@_S@2@@Z PROC ; std::_Default_allocator_traits<std::allocator<char16_t> >::max_size, COMDAT

; 694  :     _NODISCARD static _CONSTEXPR20_DYNALLOC size_type max_size(const _Alloc&) noexcept {

	push	ebp
	mov	ebp, esp
	sub	esp, 192				; 000000c0H
	push	ebx
	push	esi
	push	edi
	mov	edi, ebp
	xor	ecx, ecx
	mov	eax, -858993460				; ccccccccH
	rep stosd
	mov	ecx, OFFSET __79D216CD_xmemory
	call	@__CheckForDebuggerJustMyCode@4

; 695  :         return static_cast<size_t>(-1) / sizeof(value_type);

	mov	eax, 2147483647				; 7fffffffH

; 696  :     }

	pop	edi
	pop	esi
	pop	ebx
	add	esp, 192				; 000000c0H
	cmp	ebp, esp
	call	__RTC_CheckEsp
	mov	esp, ebp
	pop	ebp
	ret	0
?max_size@?$_Default_allocator_traits@V?$allocator@_S@std@@@std@@SAIABV?$allocator@_S@2@@Z ENDP ; std::_Default_allocator_traits<std::allocator<char16_t> >::max_size
_TEXT	ENDS
; Function compile flags: /Odtp /RTCsu /ZI
; File C:\Program Files (x86)\Microsoft Visual Studio\2019\Community\VC\Tools\MSVC\14.29.30133\include\xmemory
;	COMDAT ?allocate@?$allocator@_S@std@@QAEPA_SI@Z
_TEXT	SEGMENT
_this$ = -8						; size = 4
__Count$ = 8						; size = 4
?allocate@?$allocator@_S@std@@QAEPA_SI@Z PROC		; std::allocator<char16_t>::allocate, COMDAT
; _this$ = ecx

; 800  :     _NODISCARD _CONSTEXPR20_DYNALLOC __declspec(allocator) _Ty* allocate(_CRT_GUARDOVERFLOW const size_t _Count) {

	push	ebp
	mov	ebp, esp
	sub	esp, 204				; 000000ccH
	push	ebx
	push	esi
	push	edi
	push	ecx
	lea	edi, DWORD PTR [ebp-12]
	mov	ecx, 3
	mov	eax, -858993460				; ccccccccH
	rep stosd
	pop	ecx
	mov	DWORD PTR _this$[ebp], ecx
	mov	ecx, OFFSET __79D216CD_xmemory
	call	@__CheckForDebuggerJustMyCode@4

; 801  :         return static_cast<_Ty*>(_Allocate<_New_alignof<_Ty>>(_Get_size_of_n<sizeof(_Ty)>(_Count)));

	mov	eax, DWORD PTR __Count$[ebp]
	push	eax
	call	??$_Get_size_of_n@$01@std@@YAII@Z	; std::_Get_size_of_n<2>
	add	esp, 4
	push	eax
	call	??$_Allocate@$07U_Default_allocate_traits@std@@$0A@@std@@YAPAXI@Z ; std::_Allocate<8,std::_Default_allocate_traits,0>
	add	esp, 4

; 802  :     }

	pop	edi
	pop	esi
	pop	ebx
	add	esp, 204				; 000000ccH
	cmp	ebp, esp
	call	__RTC_CheckEsp
	mov	esp, ebp
	pop	ebp
	ret	4
?allocate@?$allocator@_S@std@@QAEPA_SI@Z ENDP		; std::allocator<char16_t>::allocate
_TEXT	ENDS
; Function compile flags: /Odtp /RTCsu /ZI
; File C:\Program Files (x86)\Microsoft Visual Studio\2019\Community\VC\Tools\MSVC\14.29.30133\include\xmemory
;	COMDAT ?deallocate@?$allocator@_S@std@@QAEXQA_SI@Z
_TEXT	SEGMENT
_this$ = -8						; size = 4
__Ptr$ = 8						; size = 4
__Count$ = 12						; size = 4
?deallocate@?$allocator@_S@std@@QAEXQA_SI@Z PROC	; std::allocator<char16_t>::deallocate, COMDAT
; _this$ = ecx

; 795  :     _CONSTEXPR20_DYNALLOC void deallocate(_Ty* const _Ptr, const size_t _Count) {

	push	ebp
	mov	ebp, esp
	sub	esp, 204				; 000000ccH
	push	ebx
	push	esi
	push	edi
	push	ecx
	lea	edi, DWORD PTR [ebp-12]
	mov	ecx, 3
	mov	eax, -858993460				; ccccccccH
	rep stosd
	pop	ecx
	mov	DWORD PTR _this$[ebp], ecx
	mov	ecx, OFFSET __79D216CD_xmemory
	call	@__CheckForDebuggerJustMyCode@4

; 796  :         // no overflow check on the following multiply; we assume _Allocate did that check
; 797  :         _Deallocate<_New_alignof<_Ty>>(_Ptr, sizeof(_Ty) * _Count);

	mov	eax, DWORD PTR __Count$[ebp]
	shl	eax, 1
	push	eax
	mov	ecx, DWORD PTR __Ptr$[ebp]
	push	ecx
	call	??$_Deallocate@$07$0A@@std@@YAXPAXI@Z	; std::_Deallocate<8,0>
	add	esp, 8

; 798  :     }

	pop	edi
	pop	esi
	pop	ebx
	add	esp, 204				; 000000ccH
	cmp	ebp, esp
	call	__RTC_CheckEsp
	mov	esp, ebp
	pop	ebp
	ret	8
?deallocate@?$allocator@_S@std@@QAEXQA_SI@Z ENDP	; std::allocator<char16_t>::deallocate
_TEXT	ENDS
; Function compile flags: /Odtp /RTCsu /ZI
; File C:\Program Files (x86)\Microsoft Visual Studio\2019\Community\VC\Tools\MSVC\14.29.30133\include\xmemory
;	COMDAT ??0?$allocator@_S@std@@QAE@XZ
_TEXT	SEGMENT
_this$ = -8						; size = 4
??0?$allocator@_S@std@@QAE@XZ PROC			; std::allocator<char16_t>::allocator<char16_t>, COMDAT
; _this$ = ecx

; 787  :     constexpr allocator() noexcept {}

	push	ebp
	mov	ebp, esp
	sub	esp, 204				; 000000ccH
	push	ebx
	push	esi
	push	edi
	push	ecx
	lea	edi, DWORD PTR [ebp-12]
	mov	ecx, 3
	mov	eax, -858993460				; ccccccccH
	rep stosd
	pop	ecx
	mov	DWORD PTR _this$[ebp], ecx
	mov	ecx, OFFSET __79D216CD_xmemory
	call	@__CheckForDebuggerJustMyCode@4
	mov	eax, DWORD PTR _this$[ebp]
	pop	edi
	pop	esi
	pop	ebx
	add	esp, 204				; 000000ccH
	cmp	ebp, esp
	call	__RTC_CheckEsp
	mov	esp, ebp
	pop	ebp
	ret	0
??0?$allocator@_S@std@@QAE@XZ ENDP			; std::allocator<char16_t>::allocator<char16_t>
_TEXT	ENDS
; Function compile flags: /Odtp /RTCsu /ZI
; File C:\Program Files (x86)\Microsoft Visual Studio\2019\Community\VC\Tools\MSVC\14.29.30133\include\xstring
;	COMDAT ??__Ks@string_literals@literals@std@@YA?AV?$basic_string@_SU?$char_traits@_S@std@@V?$allocator@_S@2@@3@PB_SI@Z
_TEXT	SEGMENT
$T1 = -200						; size = 4
___$ReturnUdt$ = 8					; size = 4
__Str$ = 12						; size = 4
__Len$ = 16						; size = 4
??__Ks@string_literals@literals@std@@YA?AV?$basic_string@_SU?$char_traits@_S@std@@V?$allocator@_S@2@@3@PB_SI@Z PROC ; std::literals::string_literals::operator "" s, COMDAT

; 4973 :         _NODISCARD _CONSTEXPR20_STRING_LITERALS u16string operator"" s(const char16_t* _Str, size_t _Len) {

	push	ebp
	mov	ebp, esp
	sub	esp, 204				; 000000ccH
	push	ebx
	push	esi
	push	edi
	lea	edi, DWORD PTR [ebp-12]
	mov	ecx, 3
	mov	eax, -858993460				; ccccccccH
	rep stosd
	mov	DWORD PTR $T1[ebp], 0
	mov	ecx, OFFSET __0D019051_xstring
	call	@__CheckForDebuggerJustMyCode@4

; 4974 :             return u16string(_Str, _Len);

	mov	eax, DWORD PTR __Len$[ebp]
	push	eax
	mov	ecx, DWORD PTR __Str$[ebp]
	push	ecx
	mov	ecx, DWORD PTR ___$ReturnUdt$[ebp]
	call	??0?$basic_string@_SU?$char_traits@_S@std@@V?$allocator@_S@2@@std@@QAE@QB_SI@Z ; std::basic_string<char16_t,std::char_traits<char16_t>,std::allocator<char16_t> >::basic_string<char16_t,std::char_traits<char16_t>,std::allocator<char16_t> >
	mov	edx, DWORD PTR $T1[ebp]
	or	edx, 1
	mov	DWORD PTR $T1[ebp], edx
	mov	eax, DWORD PTR ___$ReturnUdt$[ebp]

; 4975 :         }

	pop	edi
	pop	esi
	pop	ebx
	add	esp, 204				; 000000ccH
	cmp	ebp, esp
	call	__RTC_CheckEsp
	mov	esp, ebp
	pop	ebp
	ret	0
??__Ks@string_literals@literals@std@@YA?AV?$basic_string@_SU?$char_traits@_S@std@@V?$allocator@_S@2@@3@PB_SI@Z ENDP ; std::literals::string_literals::operator "" s
_TEXT	ENDS
; Function compile flags: /Odtp /RTCsu /ZI
;	COMDAT ??1?$_Compressed_pair@V?$allocator@_W@std@@V?$_String_val@U?$_Simple_types@_W@std@@@2@$00@std@@QAE@XZ
_TEXT	SEGMENT
_this$ = -8						; size = 4
??1?$_Compressed_pair@V?$allocator@_W@std@@V?$_String_val@U?$_Simple_types@_W@std@@@2@$00@std@@QAE@XZ PROC ; std::_Compressed_pair<std::allocator<wchar_t>,std::_String_val<std::_Simple_types<wchar_t> >,1>::~_Compressed_pair<std::allocator<wchar_t>,std::_String_val<std::_Simple_types<wchar_t> >,1>, COMDAT
; _this$ = ecx
	push	ebp
	mov	ebp, esp
	sub	esp, 204				; 000000ccH
	push	ebx
	push	esi
	push	edi
	push	ecx
	lea	edi, DWORD PTR [ebp-12]
	mov	ecx, 3
	mov	eax, -858993460				; ccccccccH
	rep stosd
	pop	ecx
	mov	DWORD PTR _this$[ebp], ecx
	mov	ecx, DWORD PTR _this$[ebp]
	call	??1?$_String_val@U?$_Simple_types@_W@std@@@std@@QAE@XZ
	pop	edi
	pop	esi
	pop	ebx
	add	esp, 204				; 000000ccH
	cmp	ebp, esp
	call	__RTC_CheckEsp
	mov	esp, ebp
	pop	ebp
	ret	0
??1?$_Compressed_pair@V?$allocator@_W@std@@V?$_String_val@U?$_Simple_types@_W@std@@@2@$00@std@@QAE@XZ ENDP ; std::_Compressed_pair<std::allocator<wchar_t>,std::_String_val<std::_Simple_types<wchar_t> >,1>::~_Compressed_pair<std::allocator<wchar_t>,std::_String_val<std::_Simple_types<wchar_t> >,1>
_TEXT	ENDS
; Function compile flags: /Odtp /RTCsu /ZI
; File C:\Program Files (x86)\Microsoft Visual Studio\2019\Community\VC\Tools\MSVC\14.29.30133\include\xmemory
;	COMDAT ?_Get_first@?$_Compressed_pair@V?$allocator@_W@std@@V?$_String_val@U?$_Simple_types@_W@std@@@2@$00@std@@QBEABV?$allocator@_W@2@XZ
_TEXT	SEGMENT
_this$ = -8						; size = 4
?_Get_first@?$_Compressed_pair@V?$allocator@_W@std@@V?$_String_val@U?$_Simple_types@_W@std@@@2@$00@std@@QBEABV?$allocator@_W@2@XZ PROC ; std::_Compressed_pair<std::allocator<wchar_t>,std::_String_val<std::_Simple_types<wchar_t> >,1>::_Get_first, COMDAT
; _this$ = ecx

; 1342 :     constexpr const _Ty1& _Get_first() const noexcept {

	push	ebp
	mov	ebp, esp
	sub	esp, 204				; 000000ccH
	push	ebx
	push	esi
	push	edi
	push	ecx
	lea	edi, DWORD PTR [ebp-12]
	mov	ecx, 3
	mov	eax, -858993460				; ccccccccH
	rep stosd
	pop	ecx
	mov	DWORD PTR _this$[ebp], ecx
	mov	ecx, OFFSET __79D216CD_xmemory
	call	@__CheckForDebuggerJustMyCode@4

; 1343 :         return *this;

	mov	eax, DWORD PTR _this$[ebp]

; 1344 :     }

	pop	edi
	pop	esi
	pop	ebx
	add	esp, 204				; 000000ccH
	cmp	ebp, esp
	call	__RTC_CheckEsp
	mov	esp, ebp
	pop	ebp
	ret	0
?_Get_first@?$_Compressed_pair@V?$allocator@_W@std@@V?$_String_val@U?$_Simple_types@_W@std@@@2@$00@std@@QBEABV?$allocator@_W@2@XZ ENDP ; std::_Compressed_pair<std::allocator<wchar_t>,std::_String_val<std::_Simple_types<wchar_t> >,1>::_Get_first
_TEXT	ENDS
; Function compile flags: /Odtp /RTCsu /ZI
; File C:\Program Files (x86)\Microsoft Visual Studio\2019\Community\VC\Tools\MSVC\14.29.30133\include\xmemory
;	COMDAT ?_Get_first@?$_Compressed_pair@V?$allocator@_W@std@@V?$_String_val@U?$_Simple_types@_W@std@@@2@$00@std@@QAEAAV?$allocator@_W@2@XZ
_TEXT	SEGMENT
_this$ = -8						; size = 4
?_Get_first@?$_Compressed_pair@V?$allocator@_W@std@@V?$_String_val@U?$_Simple_types@_W@std@@@2@$00@std@@QAEAAV?$allocator@_W@2@XZ PROC ; std::_Compressed_pair<std::allocator<wchar_t>,std::_String_val<std::_Simple_types<wchar_t> >,1>::_Get_first, COMDAT
; _this$ = ecx

; 1338 :     constexpr _Ty1& _Get_first() noexcept {

	push	ebp
	mov	ebp, esp
	sub	esp, 204				; 000000ccH
	push	ebx
	push	esi
	push	edi
	push	ecx
	lea	edi, DWORD PTR [ebp-12]
	mov	ecx, 3
	mov	eax, -858993460				; ccccccccH
	rep stosd
	pop	ecx
	mov	DWORD PTR _this$[ebp], ecx
	mov	ecx, OFFSET __79D216CD_xmemory
	call	@__CheckForDebuggerJustMyCode@4

; 1339 :         return *this;

	mov	eax, DWORD PTR _this$[ebp]

; 1340 :     }

	pop	edi
	pop	esi
	pop	ebx
	add	esp, 204				; 000000ccH
	cmp	ebp, esp
	call	__RTC_CheckEsp
	mov	esp, ebp
	pop	ebp
	ret	0
?_Get_first@?$_Compressed_pair@V?$allocator@_W@std@@V?$_String_val@U?$_Simple_types@_W@std@@@2@$00@std@@QAEAAV?$allocator@_W@2@XZ ENDP ; std::_Compressed_pair<std::allocator<wchar_t>,std::_String_val<std::_Simple_types<wchar_t> >,1>::_Get_first
_TEXT	ENDS
; Function compile flags: /Odtp /RTCsu /ZI
; File C:\Program Files (x86)\Microsoft Visual Studio\2019\Community\VC\Tools\MSVC\14.29.30133\include\xstring
;	COMDAT ?_Getal@?$basic_string@_WU?$char_traits@_W@std@@V?$allocator@_W@2@@std@@ABEABV?$allocator@_W@2@XZ
_TEXT	SEGMENT
_this$ = -8						; size = 4
?_Getal@?$basic_string@_WU?$char_traits@_W@std@@V?$allocator@_W@2@@std@@ABEABV?$allocator@_W@2@XZ PROC ; std::basic_string<wchar_t,std::char_traits<wchar_t>,std::allocator<wchar_t> >::_Getal, COMDAT
; _this$ = ecx

; 4620 :     _CONSTEXPR20_CONTAINER const _Alty& _Getal() const noexcept {

	push	ebp
	mov	ebp, esp
	sub	esp, 204				; 000000ccH
	push	ebx
	push	esi
	push	edi
	push	ecx
	lea	edi, DWORD PTR [ebp-12]
	mov	ecx, 3
	mov	eax, -858993460				; ccccccccH
	rep stosd
	pop	ecx
	mov	DWORD PTR _this$[ebp], ecx
	mov	ecx, OFFSET __0D019051_xstring
	call	@__CheckForDebuggerJustMyCode@4

; 4621 :         return _Mypair._Get_first();

	mov	ecx, DWORD PTR _this$[ebp]
	call	?_Get_first@?$_Compressed_pair@V?$allocator@_W@std@@V?$_String_val@U?$_Simple_types@_W@std@@@2@$00@std@@QBEABV?$allocator@_W@2@XZ ; std::_Compressed_pair<std::allocator<wchar_t>,std::_String_val<std::_Simple_types<wchar_t> >,1>::_Get_first

; 4622 :     }

	pop	edi
	pop	esi
	pop	ebx
	add	esp, 204				; 000000ccH
	cmp	ebp, esp
	call	__RTC_CheckEsp
	mov	esp, ebp
	pop	ebp
	ret	0
?_Getal@?$basic_string@_WU?$char_traits@_W@std@@V?$allocator@_W@2@@std@@ABEABV?$allocator@_W@2@XZ ENDP ; std::basic_string<wchar_t,std::char_traits<wchar_t>,std::allocator<wchar_t> >::_Getal
_TEXT	ENDS
; Function compile flags: /Odtp /RTCsu /ZI
; File C:\Program Files (x86)\Microsoft Visual Studio\2019\Community\VC\Tools\MSVC\14.29.30133\include\xstring
;	COMDAT ?_Getal@?$basic_string@_WU?$char_traits@_W@std@@V?$allocator@_W@2@@std@@AAEAAV?$allocator@_W@2@XZ
_TEXT	SEGMENT
_this$ = -8						; size = 4
?_Getal@?$basic_string@_WU?$char_traits@_W@std@@V?$allocator@_W@2@@std@@AAEAAV?$allocator@_W@2@XZ PROC ; std::basic_string<wchar_t,std::char_traits<wchar_t>,std::allocator<wchar_t> >::_Getal, COMDAT
; _this$ = ecx

; 4616 :     _CONSTEXPR20_CONTAINER _Alty& _Getal() noexcept {

	push	ebp
	mov	ebp, esp
	sub	esp, 204				; 000000ccH
	push	ebx
	push	esi
	push	edi
	push	ecx
	lea	edi, DWORD PTR [ebp-12]
	mov	ecx, 3
	mov	eax, -858993460				; ccccccccH
	rep stosd
	pop	ecx
	mov	DWORD PTR _this$[ebp], ecx
	mov	ecx, OFFSET __0D019051_xstring
	call	@__CheckForDebuggerJustMyCode@4

; 4617 :         return _Mypair._Get_first();

	mov	ecx, DWORD PTR _this$[ebp]
	call	?_Get_first@?$_Compressed_pair@V?$allocator@_W@std@@V?$_String_val@U?$_Simple_types@_W@std@@@2@$00@std@@QAEAAV?$allocator@_W@2@XZ ; std::_Compressed_pair<std::allocator<wchar_t>,std::_String_val<std::_Simple_types<wchar_t> >,1>::_Get_first

; 4618 :     }

	pop	edi
	pop	esi
	pop	ebx
	add	esp, 204				; 000000ccH
	cmp	ebp, esp
	call	__RTC_CheckEsp
	mov	esp, ebp
	pop	ebp
	ret	0
?_Getal@?$basic_string@_WU?$char_traits@_W@std@@V?$allocator@_W@2@@std@@AAEAAV?$allocator@_W@2@XZ ENDP ; std::basic_string<wchar_t,std::char_traits<wchar_t>,std::allocator<wchar_t> >::_Getal
_TEXT	ENDS
; Function compile flags: /Odtp /RTCsu /ZI
; File C:\Program Files (x86)\Microsoft Visual Studio\2019\Community\VC\Tools\MSVC\14.29.30133\include\xstring
;	COMDAT ?_Swap_proxy_and_iterators@?$basic_string@_WU?$char_traits@_W@std@@V?$allocator@_W@2@@std@@AAEXAAV12@@Z
_TEXT	SEGMENT
_this$ = -8						; size = 4
__Right$ = 8						; size = 4
?_Swap_proxy_and_iterators@?$basic_string@_WU?$char_traits@_W@std@@V?$allocator@_W@2@@std@@AAEXAAV12@@Z PROC ; std::basic_string<wchar_t,std::char_traits<wchar_t>,std::allocator<wchar_t> >::_Swap_proxy_and_iterators, COMDAT
; _this$ = ecx

; 4612 :     _CONSTEXPR20_CONTAINER void _Swap_proxy_and_iterators(basic_string& _Right) {

	push	ebp
	mov	ebp, esp
	sub	esp, 204				; 000000ccH
	push	ebx
	push	esi
	push	edi
	push	ecx
	lea	edi, DWORD PTR [ebp-12]
	mov	ecx, 3
	mov	eax, -858993460				; ccccccccH
	rep stosd
	pop	ecx
	mov	DWORD PTR _this$[ebp], ecx
	mov	ecx, OFFSET __0D019051_xstring
	call	@__CheckForDebuggerJustMyCode@4

; 4613 :         _Mypair._Myval2._Swap_proxy_and_iterators(_Right._Mypair._Myval2);

	mov	eax, DWORD PTR __Right$[ebp]
	push	eax
	mov	ecx, DWORD PTR _this$[ebp]
	call	?_Swap_proxy_and_iterators@_Container_base12@std@@QAEXAAU12@@Z ; std::_Container_base12::_Swap_proxy_and_iterators

; 4614 :     }

	pop	edi
	pop	esi
	pop	ebx
	add	esp, 204				; 000000ccH
	cmp	ebp, esp
	call	__RTC_CheckEsp
	mov	esp, ebp
	pop	ebp
	ret	4
?_Swap_proxy_and_iterators@?$basic_string@_WU?$char_traits@_W@std@@V?$allocator@_W@2@@std@@AAEXAAV12@@Z ENDP ; std::basic_string<wchar_t,std::char_traits<wchar_t>,std::allocator<wchar_t> >::_Swap_proxy_and_iterators
_TEXT	ENDS
; Function compile flags: /Odtp /RTCsu /ZI
; File C:\Program Files (x86)\Microsoft Visual Studio\2019\Community\VC\Tools\MSVC\14.29.30133\include\xstring
;	COMDAT ?_Tidy_deallocate@?$basic_string@_WU?$char_traits@_W@std@@V?$allocator@_W@2@@std@@AAEXXZ
_TEXT	SEGMENT
$T2 = -246						; size = 2
__Al$3 = -44						; size = 4
__Ptr$4 = -32						; size = 4
_this$ = -20						; size = 4
__$EHRec$ = -12						; size = 12
?_Tidy_deallocate@?$basic_string@_WU?$char_traits@_W@std@@V?$allocator@_W@2@@std@@AAEXXZ PROC ; std::basic_string<wchar_t,std::char_traits<wchar_t>,std::allocator<wchar_t> >::_Tidy_deallocate, COMDAT
; _this$ = ecx

; 4582 :     _CONSTEXPR20_CONTAINER void _Tidy_deallocate() noexcept { // initialize buffer, deallocating any storage

	push	ebp
	mov	ebp, esp
	push	-1
	push	__ehhandler$?_Tidy_deallocate@?$basic_string@_WU?$char_traits@_W@std@@V?$allocator@_W@2@@std@@AAEXXZ
	mov	eax, DWORD PTR fs:0
	push	eax
	sub	esp, 240				; 000000f0H
	push	ebx
	push	esi
	push	edi
	push	ecx
	lea	edi, DWORD PTR [ebp-60]
	mov	ecx, 12					; 0000000cH
	mov	eax, -858993460				; ccccccccH
	rep stosd
	pop	ecx
	mov	eax, DWORD PTR ___security_cookie
	xor	eax, ebp
	push	eax
	lea	eax, DWORD PTR __$EHRec$[ebp]
	mov	DWORD PTR fs:0, eax
	mov	DWORD PTR _this$[ebp], ecx
	mov	ecx, OFFSET __0D019051_xstring
	call	@__CheckForDebuggerJustMyCode@4

; 4583 :         _Mypair._Myval2._Orphan_all();

	mov	ecx, DWORD PTR _this$[ebp]
	call	?_Orphan_all@_Container_base12@std@@QAEXXZ ; std::_Container_base12::_Orphan_all

; 4584 :         if (_Mypair._Myval2._Large_string_engaged()) {

	mov	ecx, DWORD PTR _this$[ebp]
	call	?_Large_string_engaged@?$_String_val@U?$_Simple_types@_W@std@@@std@@QBE_NXZ ; std::_String_val<std::_Simple_types<wchar_t> >::_Large_string_engaged
	movzx	eax, al
	test	eax, eax
	je	SHORT $LN2@Tidy_deall

; 4585 :             const pointer _Ptr = _Mypair._Myval2._Bx._Ptr;

	mov	eax, DWORD PTR _this$[ebp]
	mov	ecx, DWORD PTR [eax+4]
	mov	DWORD PTR __Ptr$4[ebp], ecx

; 4586 :             auto& _Al          = _Getal();

	mov	ecx, DWORD PTR _this$[ebp]
	call	?_Getal@?$basic_string@_WU?$char_traits@_W@std@@V?$allocator@_W@2@@std@@AAEAAV?$allocator@_W@2@XZ ; std::basic_string<wchar_t,std::char_traits<wchar_t>,std::allocator<wchar_t> >::_Getal
	mov	DWORD PTR __Al$3[ebp], eax

; 4587 :             _Destroy_in_place(_Mypair._Myval2._Bx._Ptr);

	mov	eax, DWORD PTR _this$[ebp]
	add	eax, 4
	push	eax
	call	??$_Destroy_in_place@PA_W@std@@YAXAAPA_W@Z ; std::_Destroy_in_place<wchar_t *>
	add	esp, 4

; 4588 :             _Al.deallocate(_Ptr, _Mypair._Myval2._Myres + 1);

	mov	eax, DWORD PTR _this$[ebp]
	mov	ecx, DWORD PTR [eax+24]
	add	ecx, 1
	push	ecx
	mov	edx, DWORD PTR __Ptr$4[ebp]
	push	edx
	mov	ecx, DWORD PTR __Al$3[ebp]
	call	?deallocate@?$allocator@_W@std@@QAEXQA_WI@Z ; std::allocator<wchar_t>::deallocate
$LN2@Tidy_deall:

; 4589 :         }
; 4590 : 
; 4591 : #ifdef __cpp_lib_constexpr_string
; 4592 :         if (_STD is_constant_evaluated()) {
; 4593 :             _Mypair._Myval2._Bx._Ptr = nullptr;
; 4594 :             _Mypair._Myval2._Mysize  = 0;
; 4595 :             _Mypair._Myval2._Myres   = 0;
; 4596 :         } else
; 4597 : #endif // __cpp_lib_constexpr_string
; 4598 :         {
; 4599 :             _Mypair._Myval2._Mysize = 0;

	mov	eax, DWORD PTR _this$[ebp]
	mov	DWORD PTR [eax+20], 0

; 4600 :             _Mypair._Myval2._Myres  = _BUF_SIZE - 1;

	mov	eax, DWORD PTR _this$[ebp]
	mov	DWORD PTR [eax+24], 7

; 4601 :             // the _Traits::assign is last so the codegen doesn't think the char write can alias this
; 4602 :             _Traits::assign(_Mypair._Myval2._Bx._Buf[0], _Elem());

	xor	eax, eax
	mov	WORD PTR $T2[ebp], ax
	lea	ecx, DWORD PTR $T2[ebp]
	push	ecx
	mov	edx, 2
	imul	eax, edx, 0
	mov	ecx, DWORD PTR _this$[ebp]
	lea	edx, DWORD PTR [ecx+eax+4]
	push	edx
	call	?assign@?$_WChar_traits@_W@std@@SAXAA_WAB_W@Z ; std::_WChar_traits<wchar_t>::assign
	add	esp, 8

; 4603 :         }
; 4604 :     }

	mov	ecx, DWORD PTR __$EHRec$[ebp]
	mov	DWORD PTR fs:0, ecx
	pop	ecx
	pop	edi
	pop	esi
	pop	ebx
	add	esp, 252				; 000000fcH
	cmp	ebp, esp
	call	__RTC_CheckEsp
	mov	esp, ebp
	pop	ebp
	ret	0
	int	3
	int	3
	int	3
	int	3
	int	3
_TEXT	ENDS
;	COMDAT text$x
text$x	SEGMENT
__ehhandler$?_Tidy_deallocate@?$basic_string@_WU?$char_traits@_W@std@@V?$allocator@_W@2@@std@@AAEXXZ:
	npad	1
	npad	1
	mov	edx, DWORD PTR [esp+8]
	lea	eax, DWORD PTR [edx+12]
	mov	ecx, DWORD PTR [edx-256]
	xor	ecx, eax
	call	@__security_check_cookie@4
	mov	eax, OFFSET __ehfuncinfo$?_Tidy_deallocate@?$basic_string@_WU?$char_traits@_W@std@@V?$allocator@_W@2@@std@@AAEXXZ
	jmp	___CxxFrameHandler3
text$x	ENDS
?_Tidy_deallocate@?$basic_string@_WU?$char_traits@_W@std@@V?$allocator@_W@2@@std@@AAEXXZ ENDP ; std::basic_string<wchar_t,std::char_traits<wchar_t>,std::allocator<wchar_t> >::_Tidy_deallocate
; Function compile flags: /Odtp /RTCsu /ZI
; File C:\Program Files (x86)\Microsoft Visual Studio\2019\Community\VC\Tools\MSVC\14.29.30133\include\xstring
;	COMDAT ?_Tidy_init@?$basic_string@_WU?$char_traits@_W@std@@V?$allocator@_W@2@@std@@AAEXXZ
_TEXT	SEGMENT
$T1 = -222						; size = 2
__My_data$ = -20					; size = 4
_this$ = -8						; size = 4
?_Tidy_init@?$basic_string@_WU?$char_traits@_W@std@@V?$allocator@_W@2@@std@@AAEXXZ PROC ; std::basic_string<wchar_t,std::char_traits<wchar_t>,std::allocator<wchar_t> >::_Tidy_init, COMDAT
; _this$ = ecx

; 4560 :     _CONSTEXPR20_CONTAINER void _Tidy_init() noexcept { // initialize basic_string data members

	push	ebp
	mov	ebp, esp
	sub	esp, 228				; 000000e4H
	push	ebx
	push	esi
	push	edi
	push	ecx
	lea	edi, DWORD PTR [ebp-36]
	mov	ecx, 9
	mov	eax, -858993460				; ccccccccH
	rep stosd
	pop	ecx
	mov	DWORD PTR _this$[ebp], ecx
	mov	ecx, OFFSET __0D019051_xstring
	call	@__CheckForDebuggerJustMyCode@4

; 4561 :         auto& _My_data   = _Mypair._Myval2;

	mov	eax, DWORD PTR _this$[ebp]
	mov	DWORD PTR __My_data$[ebp], eax

; 4562 :         _My_data._Mysize = 0;

	mov	eax, DWORD PTR __My_data$[ebp]
	mov	DWORD PTR [eax+20], 0

; 4563 : 
; 4564 : #ifdef __cpp_lib_constexpr_string
; 4565 :         if (_STD is_constant_evaluated()) {
; 4566 :             _My_data._Myres        = _BUF_SIZE; // SSO disabled in constexpr context
; 4567 :             auto& _Al              = _Getal();
; 4568 :             const pointer _New_ptr = _Al.allocate(_BUF_SIZE + 1); // throws
; 4569 :             _My_data._Bx._Ptr      = _New_ptr;
; 4570 : 
; 4571 :             _Elem* const _Raw_new = _Unfancy(_New_ptr);
; 4572 :             _Traits::assign(_Raw_new, _BUF_SIZE + 1, _Elem());
; 4573 :         } else
; 4574 : #endif // __cpp_lib_constexpr_string
; 4575 :         {
; 4576 :             _My_data._Myres = _BUF_SIZE - 1;

	mov	eax, DWORD PTR __My_data$[ebp]
	mov	DWORD PTR [eax+24], 7

; 4577 :             // the _Traits::assign is last so the codegen doesn't think the char write can alias this
; 4578 :             _Traits::assign(_My_data._Bx._Buf[0], _Elem());

	xor	eax, eax
	mov	WORD PTR $T1[ebp], ax
	lea	ecx, DWORD PTR $T1[ebp]
	push	ecx
	mov	edx, 2
	imul	eax, edx, 0
	mov	ecx, DWORD PTR __My_data$[ebp]
	lea	edx, DWORD PTR [ecx+eax+4]
	push	edx
	call	?assign@?$_WChar_traits@_W@std@@SAXAA_WAB_W@Z ; std::_WChar_traits<wchar_t>::assign
	add	esp, 8

; 4579 :         }
; 4580 :     }

	pop	edi
	pop	esi
	pop	ebx
	add	esp, 228				; 000000e4H
	cmp	ebp, esp
	call	__RTC_CheckEsp
	mov	esp, ebp
	pop	ebp
	ret	0
?_Tidy_init@?$basic_string@_WU?$char_traits@_W@std@@V?$allocator@_W@2@@std@@AAEXXZ ENDP ; std::basic_string<wchar_t,std::char_traits<wchar_t>,std::allocator<wchar_t> >::_Tidy_init
_TEXT	ENDS
; Function compile flags: /Odtp /RTCsu /ZI
; File C:\Program Files (x86)\Microsoft Visual Studio\2019\Community\VC\Tools\MSVC\14.29.30133\include\xstring
;	COMDAT ?_Calculate_growth@?$basic_string@_WU?$char_traits@_W@std@@V?$allocator@_W@2@@std@@ABEII@Z
_TEXT	SEGMENT
_this$ = -8						; size = 4
__Requested$ = 8					; size = 4
?_Calculate_growth@?$basic_string@_WU?$char_traits@_W@std@@V?$allocator@_W@2@@std@@ABEII@Z PROC ; std::basic_string<wchar_t,std::char_traits<wchar_t>,std::allocator<wchar_t> >::_Calculate_growth, COMDAT
; _this$ = ecx

; 4466 :     _NODISCARD _CONSTEXPR20_CONTAINER size_type _Calculate_growth(const size_type _Requested) const noexcept {

	push	ebp
	mov	ebp, esp
	sub	esp, 204				; 000000ccH
	push	ebx
	push	esi
	push	edi
	push	ecx
	lea	edi, DWORD PTR [ebp-12]
	mov	ecx, 3
	mov	eax, -858993460				; ccccccccH
	rep stosd
	pop	ecx
	mov	DWORD PTR _this$[ebp], ecx
	mov	ecx, OFFSET __0D019051_xstring
	call	@__CheckForDebuggerJustMyCode@4

; 4467 :         return _Calculate_growth(_Requested, _Mypair._Myval2._Myres, max_size());

	mov	ecx, DWORD PTR _this$[ebp]
	call	?max_size@?$basic_string@_WU?$char_traits@_W@std@@V?$allocator@_W@2@@std@@QBEIXZ ; std::basic_string<wchar_t,std::char_traits<wchar_t>,std::allocator<wchar_t> >::max_size
	push	eax
	mov	eax, DWORD PTR _this$[ebp]
	mov	ecx, DWORD PTR [eax+24]
	push	ecx
	mov	edx, DWORD PTR __Requested$[ebp]
	push	edx
	call	?_Calculate_growth@?$basic_string@_WU?$char_traits@_W@std@@V?$allocator@_W@2@@std@@CAIIII@Z ; std::basic_string<wchar_t,std::char_traits<wchar_t>,std::allocator<wchar_t> >::_Calculate_growth
	add	esp, 12					; 0000000cH

; 4468 :     }

	pop	edi
	pop	esi
	pop	ebx
	add	esp, 204				; 000000ccH
	cmp	ebp, esp
	call	__RTC_CheckEsp
	mov	esp, ebp
	pop	ebp
	ret	4
?_Calculate_growth@?$basic_string@_WU?$char_traits@_W@std@@V?$allocator@_W@2@@std@@ABEII@Z ENDP ; std::basic_string<wchar_t,std::char_traits<wchar_t>,std::allocator<wchar_t> >::_Calculate_growth
_TEXT	ENDS
; Function compile flags: /Odtp /RTCsu /ZI
; File C:\Program Files (x86)\Microsoft Visual Studio\2019\Community\VC\Tools\MSVC\14.29.30133\include\xstring
;	COMDAT ?_Calculate_growth@?$basic_string@_WU?$char_traits@_W@std@@V?$allocator@_W@2@@std@@CAIIII@Z
_TEXT	SEGMENT
$T1 = -216						; size = 4
__Masked$ = -12						; size = 4
__$ArrayPad$ = -4					; size = 4
__Requested$ = 8					; size = 4
__Old$ = 12						; size = 4
__Max$ = 16						; size = 4
?_Calculate_growth@?$basic_string@_WU?$char_traits@_W@std@@V?$allocator@_W@2@@std@@CAIIII@Z PROC ; std::basic_string<wchar_t,std::char_traits<wchar_t>,std::allocator<wchar_t> >::_Calculate_growth, COMDAT

; 4453 :         const size_type _Requested, const size_type _Old, const size_type _Max) noexcept {

	push	ebp
	mov	ebp, esp
	sub	esp, 220				; 000000dcH
	push	ebx
	push	esi
	push	edi
	lea	edi, DWORD PTR [ebp-28]
	mov	ecx, 7
	mov	eax, -858993460				; ccccccccH
	rep stosd
	mov	eax, DWORD PTR ___security_cookie
	xor	eax, ebp
	mov	DWORD PTR __$ArrayPad$[ebp], eax
	mov	ecx, OFFSET __0D019051_xstring
	call	@__CheckForDebuggerJustMyCode@4

; 4454 :         const size_type _Masked = _Requested | _ALLOC_MASK;

	mov	eax, DWORD PTR __Requested$[ebp]
	or	eax, 7
	mov	DWORD PTR __Masked$[ebp], eax

; 4455 :         if (_Masked > _Max) { // the mask overflows, settle for max_size()

	mov	eax, DWORD PTR __Masked$[ebp]
	cmp	eax, DWORD PTR __Max$[ebp]
	jbe	SHORT $LN2@Calculate_

; 4456 :             return _Max;

	mov	eax, DWORD PTR __Max$[ebp]
	jmp	SHORT $LN4@Calculate_
$LN2@Calculate_:

; 4457 :         }
; 4458 : 
; 4459 :         if (_Old > _Max - _Old / 2) { // similarly, geometric overflows

	mov	eax, DWORD PTR __Old$[ebp]
	shr	eax, 1
	mov	ecx, DWORD PTR __Max$[ebp]
	sub	ecx, eax
	cmp	DWORD PTR __Old$[ebp], ecx
	jbe	SHORT $LN3@Calculate_

; 4460 :             return _Max;

	mov	eax, DWORD PTR __Max$[ebp]
	jmp	SHORT $LN4@Calculate_
$LN3@Calculate_:

; 4461 :         }
; 4462 : 
; 4463 :         return (_STD max)(_Masked, _Old + _Old / 2);

	mov	eax, DWORD PTR __Old$[ebp]
	shr	eax, 1
	add	eax, DWORD PTR __Old$[ebp]
	mov	DWORD PTR $T1[ebp], eax
	lea	ecx, DWORD PTR $T1[ebp]
	push	ecx
	lea	edx, DWORD PTR __Masked$[ebp]
	push	edx
	call	??$max@I@std@@YAABIABI0@Z		; std::max<unsigned int>
	add	esp, 8
	mov	eax, DWORD PTR [eax]
$LN4@Calculate_:

; 4464 :     }

	push	edx
	mov	ecx, ebp
	push	eax
	lea	edx, DWORD PTR $LN7@Calculate_
	call	@_RTC_CheckStackVars@8
	pop	eax
	pop	edx
	pop	edi
	pop	esi
	pop	ebx
	mov	ecx, DWORD PTR __$ArrayPad$[ebp]
	xor	ecx, ebp
	call	@__security_check_cookie@4
	add	esp, 220				; 000000dcH
	cmp	ebp, esp
	call	__RTC_CheckEsp
	mov	esp, ebp
	pop	ebp
	ret	0
	npad	1
$LN7@Calculate_:
	DD	1
	DD	$LN6@Calculate_
$LN6@Calculate_:
	DD	-12					; fffffff4H
	DD	4
	DD	$LN5@Calculate_
$LN5@Calculate_:
	DB	95					; 0000005fH
	DB	77					; 0000004dH
	DB	97					; 00000061H
	DB	115					; 00000073H
	DB	107					; 0000006bH
	DB	101					; 00000065H
	DB	100					; 00000064H
	DB	0
?_Calculate_growth@?$basic_string@_WU?$char_traits@_W@std@@V?$allocator@_W@2@@std@@CAIIII@Z ENDP ; std::basic_string<wchar_t,std::char_traits<wchar_t>,std::allocator<wchar_t> >::_Calculate_growth
_TEXT	ENDS
; Function compile flags: /Odtp /RTCsu /ZI
; File C:\Program Files (x86)\Microsoft Visual Studio\2019\Community\VC\Tools\MSVC\14.29.30133\include\xstring
;	COMDAT ?max_size@?$basic_string@_WU?$char_traits@_W@std@@V?$allocator@_W@2@@std@@QBEIXZ
_TEXT	SEGMENT
$T1 = -264						; size = 4
$T2 = -252						; size = 4
$T3 = -240						; size = 4
__Storage_max$ = -36					; size = 4
__Alloc_max$ = -24					; size = 4
_this$ = -12						; size = 4
__$ArrayPad$ = -4					; size = 4
?max_size@?$basic_string@_WU?$char_traits@_W@std@@V?$allocator@_W@2@@std@@QBEIXZ PROC ; std::basic_string<wchar_t,std::char_traits<wchar_t>,std::allocator<wchar_t> >::max_size, COMDAT
; _this$ = ecx

; 3909 :     _NODISCARD _CONSTEXPR20_CONTAINER size_type max_size() const noexcept {

	push	ebp
	mov	ebp, esp
	sub	esp, 268				; 0000010cH
	push	ebx
	push	esi
	push	edi
	push	ecx
	lea	edi, DWORD PTR [ebp-76]
	mov	ecx, 19					; 00000013H
	mov	eax, -858993460				; ccccccccH
	rep stosd
	pop	ecx
	mov	eax, DWORD PTR ___security_cookie
	xor	eax, ebp
	mov	DWORD PTR __$ArrayPad$[ebp], eax
	mov	DWORD PTR _this$[ebp], ecx
	mov	ecx, OFFSET __0D019051_xstring
	call	@__CheckForDebuggerJustMyCode@4

; 3910 :         const size_type _Alloc_max   = _Alty_traits::max_size(_Getal());

	mov	ecx, DWORD PTR _this$[ebp]
	call	?_Getal@?$basic_string@_WU?$char_traits@_W@std@@V?$allocator@_W@2@@std@@ABEABV?$allocator@_W@2@XZ ; std::basic_string<wchar_t,std::char_traits<wchar_t>,std::allocator<wchar_t> >::_Getal
	push	eax
	call	?max_size@?$_Default_allocator_traits@V?$allocator@_W@std@@@std@@SAIABV?$allocator@_W@2@@Z ; std::_Default_allocator_traits<std::allocator<wchar_t> >::max_size
	add	esp, 4
	mov	DWORD PTR __Alloc_max$[ebp], eax

; 3911 :         const size_type _Storage_max = // can always store small string

	mov	DWORD PTR $T3[ebp], 8
	lea	eax, DWORD PTR $T3[ebp]
	push	eax
	lea	ecx, DWORD PTR __Alloc_max$[ebp]
	push	ecx
	call	??$max@I@std@@YAABIABI0@Z		; std::max<unsigned int>
	add	esp, 8
	mov	edx, DWORD PTR [eax]
	mov	DWORD PTR __Storage_max$[ebp], edx

; 3912 :             (_STD max)(_Alloc_max, static_cast<size_type>(_BUF_SIZE));
; 3913 :         return (_STD min)(static_cast<size_type>((numeric_limits<difference_type>::max)()),

	mov	eax, DWORD PTR __Storage_max$[ebp]
	sub	eax, 1
	mov	DWORD PTR $T2[ebp], eax
	call	?max@?$numeric_limits@H@std@@SAHXZ	; std::numeric_limits<int>::max
	mov	DWORD PTR $T1[ebp], eax
	lea	ecx, DWORD PTR $T2[ebp]
	push	ecx
	lea	edx, DWORD PTR $T1[ebp]
	push	edx
	call	??$min@I@std@@YAABIABI0@Z		; std::min<unsigned int>
	add	esp, 8
	mov	eax, DWORD PTR [eax]

; 3914 :             _Storage_max - 1 // -1 is for null terminator and/or npos
; 3915 :         );
; 3916 :     }

	push	edx
	mov	ecx, ebp
	push	eax
	lea	edx, DWORD PTR $LN5@max_size
	call	@_RTC_CheckStackVars@8
	pop	eax
	pop	edx
	pop	edi
	pop	esi
	pop	ebx
	mov	ecx, DWORD PTR __$ArrayPad$[ebp]
	xor	ecx, ebp
	call	@__security_check_cookie@4
	add	esp, 268				; 0000010cH
	cmp	ebp, esp
	call	__RTC_CheckEsp
	mov	esp, ebp
	pop	ebp
	ret	0
$LN5@max_size:
	DD	1
	DD	$LN4@max_size
$LN4@max_size:
	DD	-24					; ffffffe8H
	DD	4
	DD	$LN3@max_size
$LN3@max_size:
	DB	95					; 0000005fH
	DB	65					; 00000041H
	DB	108					; 0000006cH
	DB	108					; 0000006cH
	DB	111					; 0000006fH
	DB	99					; 00000063H
	DB	95					; 0000005fH
	DB	109					; 0000006dH
	DB	97					; 00000061H
	DB	120					; 00000078H
	DB	0
?max_size@?$basic_string@_WU?$char_traits@_W@std@@V?$allocator@_W@2@@std@@QBEIXZ ENDP ; std::basic_string<wchar_t,std::char_traits<wchar_t>,std::allocator<wchar_t> >::max_size
_TEXT	ENDS
; Function compile flags: /Odtp /RTCsu /ZI
; File C:\Program Files (x86)\Microsoft Visual Studio\2019\Community\VC\Tools\MSVC\14.29.30133\include\xstring
;	COMDAT ?size@?$basic_string@_WU?$char_traits@_W@std@@V?$allocator@_W@2@@std@@QBEIXZ
_TEXT	SEGMENT
_this$ = -8						; size = 4
?size@?$basic_string@_WU?$char_traits@_W@std@@V?$allocator@_W@2@@std@@QBEIXZ PROC ; std::basic_string<wchar_t,std::char_traits<wchar_t>,std::allocator<wchar_t> >::size, COMDAT
; _this$ = ecx

; 3905 :     _NODISCARD _CONSTEXPR20_CONTAINER size_type size() const noexcept {

	push	ebp
	mov	ebp, esp
	sub	esp, 204				; 000000ccH
	push	ebx
	push	esi
	push	edi
	push	ecx
	lea	edi, DWORD PTR [ebp-12]
	mov	ecx, 3
	mov	eax, -858993460				; ccccccccH
	rep stosd
	pop	ecx
	mov	DWORD PTR _this$[ebp], ecx
	mov	ecx, OFFSET __0D019051_xstring
	call	@__CheckForDebuggerJustMyCode@4

; 3906 :         return _Mypair._Myval2._Mysize;

	mov	eax, DWORD PTR _this$[ebp]
	mov	eax, DWORD PTR [eax+20]

; 3907 :     }

	pop	edi
	pop	esi
	pop	ebx
	add	esp, 204				; 000000ccH
	cmp	ebp, esp
	call	__RTC_CheckEsp
	mov	esp, ebp
	pop	ebp
	ret	0
?size@?$basic_string@_WU?$char_traits@_W@std@@V?$allocator@_W@2@@std@@QBEIXZ ENDP ; std::basic_string<wchar_t,std::char_traits<wchar_t>,std::allocator<wchar_t> >::size
_TEXT	ENDS
; Function compile flags: /Odtp /RTCsu /ZI
; File C:\Program Files (x86)\Microsoft Visual Studio\2019\Community\VC\Tools\MSVC\14.29.30133\include\xstring
;	COMDAT ?data@?$basic_string@_WU?$char_traits@_W@std@@V?$allocator@_W@2@@std@@QBEPB_WXZ
_TEXT	SEGMENT
_this$ = -8						; size = 4
?data@?$basic_string@_WU?$char_traits@_W@std@@V?$allocator@_W@2@@std@@QBEPB_WXZ PROC ; std::basic_string<wchar_t,std::char_traits<wchar_t>,std::allocator<wchar_t> >::data, COMDAT
; _this$ = ecx

; 3891 :     _NODISCARD _CONSTEXPR20_CONTAINER _Ret_z_ const _Elem* data() const noexcept {

	push	ebp
	mov	ebp, esp
	sub	esp, 204				; 000000ccH
	push	ebx
	push	esi
	push	edi
	push	ecx
	lea	edi, DWORD PTR [ebp-12]
	mov	ecx, 3
	mov	eax, -858993460				; ccccccccH
	rep stosd
	pop	ecx
	mov	DWORD PTR _this$[ebp], ecx
	mov	ecx, OFFSET __0D019051_xstring
	call	@__CheckForDebuggerJustMyCode@4

; 3892 :         return _Mypair._Myval2._Myptr();

	mov	ecx, DWORD PTR _this$[ebp]
	call	?_Myptr@?$_String_val@U?$_Simple_types@_W@std@@@std@@QBEPB_WXZ ; std::_String_val<std::_Simple_types<wchar_t> >::_Myptr

; 3893 :     }

	pop	edi
	pop	esi
	pop	ebx
	add	esp, 204				; 000000ccH
	cmp	ebp, esp
	call	__RTC_CheckEsp
	mov	esp, ebp
	pop	ebp
	ret	0
?data@?$basic_string@_WU?$char_traits@_W@std@@V?$allocator@_W@2@@std@@QBEPB_WXZ ENDP ; std::basic_string<wchar_t,std::char_traits<wchar_t>,std::allocator<wchar_t> >::data
_TEXT	ENDS
; Function compile flags: /Odtp /RTCsu /ZI
; File C:\Program Files (x86)\Microsoft Visual Studio\2019\Community\VC\Tools\MSVC\14.29.30133\include\xstring
;	COMDAT ?assign@?$basic_string@_WU?$char_traits@_W@std@@V?$allocator@_W@2@@std@@QAEAAV12@QB_WI@Z
_TEXT	SEGMENT
$T1 = -233						; size = 1
$T2 = -222						; size = 2
__Old_ptr$3 = -20					; size = 4
_this$ = -8						; size = 4
__Ptr$ = 8						; size = 4
__Count$ = 12						; size = 4
?assign@?$basic_string@_WU?$char_traits@_W@std@@V?$allocator@_W@2@@std@@QAEAAV12@QB_WI@Z PROC ; std::basic_string<wchar_t,std::char_traits<wchar_t>,std::allocator<wchar_t> >::assign, COMDAT
; _this$ = ecx

; 3210 :         _In_reads_(_Count) const _Elem* const _Ptr, _CRT_GUARDOVERFLOW const size_type _Count) {

	push	ebp
	mov	ebp, esp
	sub	esp, 240				; 000000f0H
	push	ebx
	push	esi
	push	edi
	push	ecx
	lea	edi, DWORD PTR [ebp-48]
	mov	ecx, 12					; 0000000cH
	mov	eax, -858993460				; ccccccccH
	rep stosd
	pop	ecx
	mov	DWORD PTR _this$[ebp], ecx
	mov	ecx, OFFSET __0D019051_xstring
	call	@__CheckForDebuggerJustMyCode@4

; 3211 :         // assign [_Ptr, _Ptr + _Count)
; 3212 :         if (_Count <= _Mypair._Myval2._Myres) {

	mov	eax, DWORD PTR _this$[ebp]
	mov	ecx, DWORD PTR __Count$[ebp]
	cmp	ecx, DWORD PTR [eax+24]
	ja	SHORT $LN2@assign

; 3213 :             _Elem* const _Old_ptr   = _Mypair._Myval2._Myptr();

	mov	ecx, DWORD PTR _this$[ebp]
	call	?_Myptr@?$_String_val@U?$_Simple_types@_W@std@@@std@@QAEPA_WXZ ; std::_String_val<std::_Simple_types<wchar_t> >::_Myptr
	mov	DWORD PTR __Old_ptr$3[ebp], eax

; 3214 :             _Mypair._Myval2._Mysize = _Count;

	mov	eax, DWORD PTR _this$[ebp]
	mov	ecx, DWORD PTR __Count$[ebp]
	mov	DWORD PTR [eax+20], ecx

; 3215 :             _Traits::move(_Old_ptr, _Ptr, _Count);

	mov	eax, DWORD PTR __Count$[ebp]
	push	eax
	mov	ecx, DWORD PTR __Ptr$[ebp]
	push	ecx
	mov	edx, DWORD PTR __Old_ptr$3[ebp]
	push	edx
	call	?move@?$_Char_traits@_WG@std@@SAPA_WQA_WQB_WI@Z ; std::_Char_traits<wchar_t,unsigned short>::move
	add	esp, 12					; 0000000cH

; 3216 :             _Traits::assign(_Old_ptr[_Count], _Elem());

	xor	eax, eax
	mov	WORD PTR $T2[ebp], ax
	lea	ecx, DWORD PTR $T2[ebp]
	push	ecx
	mov	edx, DWORD PTR __Count$[ebp]
	mov	eax, DWORD PTR __Old_ptr$3[ebp]
	lea	ecx, DWORD PTR [eax+edx*2]
	push	ecx
	call	?assign@?$_WChar_traits@_W@std@@SAXAA_WAB_W@Z ; std::_WChar_traits<wchar_t>::assign
	add	esp, 8

; 3217 :             return *this;

	mov	eax, DWORD PTR _this$[ebp]
	jmp	SHORT $LN1@assign
$LN2@assign:

; 3218 :         }
; 3219 : 
; 3220 :         return _Reallocate_for(

	xor	eax, eax
	mov	BYTE PTR $T1[ebp], al
	mov	ecx, DWORD PTR __Ptr$[ebp]
	push	ecx
	movzx	edx, BYTE PTR $T1[ebp]
	push	edx
	mov	eax, DWORD PTR __Count$[ebp]
	push	eax
	mov	ecx, DWORD PTR _this$[ebp]
	call	??$_Reallocate_for@V<lambda_03628ca18370b1f44a99b655e704819b>@@PB_W@?$basic_string@_WU?$char_traits@_W@std@@V?$allocator@_W@2@@std@@AAEAAV01@IV<lambda_03628ca18370b1f44a99b655e704819b>@@PB_W@Z ; std::basic_string<wchar_t,std::char_traits<wchar_t>,std::allocator<wchar_t> >::_Reallocate_for<<lambda_03628ca18370b1f44a99b655e704819b>,wchar_t const *>
$LN1@assign:

; 3221 :             _Count,
; 3222 :             [](_Elem* const _New_ptr, const size_type _Count, const _Elem* const _Ptr) {
; 3223 :                 _Traits::copy(_New_ptr, _Ptr, _Count);
; 3224 :                 _Traits::assign(_New_ptr[_Count], _Elem());
; 3225 :             },
; 3226 :             _Ptr);
; 3227 :     }

	pop	edi
	pop	esi
	pop	ebx
	add	esp, 240				; 000000f0H
	cmp	ebp, esp
	call	__RTC_CheckEsp
	mov	esp, ebp
	pop	ebp
	ret	8
?assign@?$basic_string@_WU?$char_traits@_W@std@@V?$allocator@_W@2@@std@@QAEAAV12@QB_WI@Z ENDP ; std::basic_string<wchar_t,std::char_traits<wchar_t>,std::allocator<wchar_t> >::assign
_TEXT	ENDS
; Function compile flags: /Odtp /RTCsu /ZI
; File C:\Program Files (x86)\Microsoft Visual Studio\2019\Community\VC\Tools\MSVC\14.29.30133\include\xstring
;	COMDAT ?append@?$basic_string@_WU?$char_traits@_W@std@@V?$allocator@_W@2@@std@@QAEAAV12@QB_W@Z
_TEXT	SEGMENT
_this$ = -8						; size = 4
__Ptr$ = 8						; size = 4
?append@?$basic_string@_WU?$char_traits@_W@std@@V?$allocator@_W@2@@std@@QAEAAV12@QB_W@Z PROC ; std::basic_string<wchar_t,std::char_traits<wchar_t>,std::allocator<wchar_t> >::append, COMDAT
; _this$ = ecx

; 3140 :     _CONSTEXPR20_CONTAINER basic_string& append(_In_z_ const _Elem* const _Ptr) { // append [_Ptr, <null>)

	push	ebp
	mov	ebp, esp
	sub	esp, 204				; 000000ccH
	push	ebx
	push	esi
	push	edi
	push	ecx
	lea	edi, DWORD PTR [ebp-12]
	mov	ecx, 3
	mov	eax, -858993460				; ccccccccH
	rep stosd
	pop	ecx
	mov	DWORD PTR _this$[ebp], ecx
	mov	ecx, OFFSET __0D019051_xstring
	call	@__CheckForDebuggerJustMyCode@4

; 3141 :         return append(_Ptr, _Convert_size<size_type>(_Traits::length(_Ptr)));

	mov	eax, DWORD PTR __Ptr$[ebp]
	push	eax
	call	?length@?$_WChar_traits@_W@std@@SAIPB_W@Z ; std::_WChar_traits<wchar_t>::length
	add	esp, 4
	push	eax
	call	??$_Convert_size@I@std@@YAII@Z		; std::_Convert_size<unsigned int>
	add	esp, 4
	push	eax
	mov	ecx, DWORD PTR __Ptr$[ebp]
	push	ecx
	mov	ecx, DWORD PTR _this$[ebp]
	call	?append@?$basic_string@_WU?$char_traits@_W@std@@V?$allocator@_W@2@@std@@QAEAAV12@QB_WI@Z ; std::basic_string<wchar_t,std::char_traits<wchar_t>,std::allocator<wchar_t> >::append

; 3142 :     }

	pop	edi
	pop	esi
	pop	ebx
	add	esp, 204				; 000000ccH
	cmp	ebp, esp
	call	__RTC_CheckEsp
	mov	esp, ebp
	pop	ebp
	ret	4
?append@?$basic_string@_WU?$char_traits@_W@std@@V?$allocator@_W@2@@std@@QAEAAV12@QB_W@Z ENDP ; std::basic_string<wchar_t,std::char_traits<wchar_t>,std::allocator<wchar_t> >::append
_TEXT	ENDS
; Function compile flags: /Odtp /RTCsu /ZI
; File C:\Program Files (x86)\Microsoft Visual Studio\2019\Community\VC\Tools\MSVC\14.29.30133\include\xstring
;	COMDAT ?append@?$basic_string@_WU?$char_traits@_W@std@@V?$allocator@_W@2@@std@@QAEAAV12@QB_WI@Z
_TEXT	SEGMENT
$T1 = -245						; size = 1
$T2 = -234						; size = 2
__Old_ptr$3 = -32					; size = 4
__Old_size$ = -20					; size = 4
_this$ = -8						; size = 4
__Ptr$ = 8						; size = 4
__Count$ = 12						; size = 4
?append@?$basic_string@_WU?$char_traits@_W@std@@V?$allocator@_W@2@@std@@QAEAAV12@QB_WI@Z PROC ; std::basic_string<wchar_t,std::char_traits<wchar_t>,std::allocator<wchar_t> >::append, COMDAT
; _this$ = ecx

; 3118 :         _In_reads_(_Count) const _Elem* const _Ptr, _CRT_GUARDOVERFLOW const size_type _Count) {

	push	ebp
	mov	ebp, esp
	sub	esp, 252				; 000000fcH
	push	ebx
	push	esi
	push	edi
	push	ecx
	lea	edi, DWORD PTR [ebp-60]
	mov	ecx, 15					; 0000000fH
	mov	eax, -858993460				; ccccccccH
	rep stosd
	pop	ecx
	mov	DWORD PTR _this$[ebp], ecx
	mov	ecx, OFFSET __0D019051_xstring
	call	@__CheckForDebuggerJustMyCode@4

; 3119 :         // append [_Ptr, _Ptr + _Count)
; 3120 :         const size_type _Old_size = _Mypair._Myval2._Mysize;

	mov	eax, DWORD PTR _this$[ebp]
	mov	ecx, DWORD PTR [eax+20]
	mov	DWORD PTR __Old_size$[ebp], ecx

; 3121 :         if (_Count <= _Mypair._Myval2._Myres - _Old_size) {

	mov	eax, DWORD PTR _this$[ebp]
	mov	ecx, DWORD PTR [eax+24]
	sub	ecx, DWORD PTR __Old_size$[ebp]
	cmp	DWORD PTR __Count$[ebp], ecx
	ja	SHORT $LN2@append

; 3122 :             _Mypair._Myval2._Mysize = _Old_size + _Count;

	mov	eax, DWORD PTR __Old_size$[ebp]
	add	eax, DWORD PTR __Count$[ebp]
	mov	ecx, DWORD PTR _this$[ebp]
	mov	DWORD PTR [ecx+20], eax

; 3123 :             _Elem* const _Old_ptr   = _Mypair._Myval2._Myptr();

	mov	ecx, DWORD PTR _this$[ebp]
	call	?_Myptr@?$_String_val@U?$_Simple_types@_W@std@@@std@@QAEPA_WXZ ; std::_String_val<std::_Simple_types<wchar_t> >::_Myptr
	mov	DWORD PTR __Old_ptr$3[ebp], eax

; 3124 :             _Traits::move(_Old_ptr + _Old_size, _Ptr, _Count);

	mov	eax, DWORD PTR __Count$[ebp]
	push	eax
	mov	ecx, DWORD PTR __Ptr$[ebp]
	push	ecx
	mov	edx, DWORD PTR __Old_size$[ebp]
	mov	eax, DWORD PTR __Old_ptr$3[ebp]
	lea	ecx, DWORD PTR [eax+edx*2]
	push	ecx
	call	?move@?$_Char_traits@_WG@std@@SAPA_WQA_WQB_WI@Z ; std::_Char_traits<wchar_t,unsigned short>::move
	add	esp, 12					; 0000000cH

; 3125 :             _Traits::assign(_Old_ptr[_Old_size + _Count], _Elem());

	xor	eax, eax
	mov	WORD PTR $T2[ebp], ax
	lea	ecx, DWORD PTR $T2[ebp]
	push	ecx
	mov	edx, DWORD PTR __Old_size$[ebp]
	add	edx, DWORD PTR __Count$[ebp]
	mov	eax, DWORD PTR __Old_ptr$3[ebp]
	lea	ecx, DWORD PTR [eax+edx*2]
	push	ecx
	call	?assign@?$_WChar_traits@_W@std@@SAXAA_WAB_W@Z ; std::_WChar_traits<wchar_t>::assign
	add	esp, 8

; 3126 :             return *this;

	mov	eax, DWORD PTR _this$[ebp]
	jmp	SHORT $LN1@append
$LN2@append:

; 3127 :         }
; 3128 : 
; 3129 :         return _Reallocate_grow_by(

	xor	eax, eax
	mov	BYTE PTR $T1[ebp], al
	mov	ecx, DWORD PTR __Count$[ebp]
	push	ecx
	mov	edx, DWORD PTR __Ptr$[ebp]
	push	edx
	movzx	eax, BYTE PTR $T1[ebp]
	push	eax
	mov	ecx, DWORD PTR __Count$[ebp]
	push	ecx
	mov	ecx, DWORD PTR _this$[ebp]
	call	??$_Reallocate_grow_by@V<lambda_2fb699096920f2dc628cb0826b07831d>@@PB_WI@?$basic_string@_WU?$char_traits@_W@std@@V?$allocator@_W@2@@std@@AAEAAV01@IV<lambda_2fb699096920f2dc628cb0826b07831d>@@PB_WI@Z ; std::basic_string<wchar_t,std::char_traits<wchar_t>,std::allocator<wchar_t> >::_Reallocate_grow_by<<lambda_2fb699096920f2dc628cb0826b07831d>,wchar_t const *,unsigned int>
$LN1@append:

; 3130 :             _Count,
; 3131 :             [](_Elem* const _New_ptr, const _Elem* const _Old_ptr, const size_type _Old_size, const _Elem* const _Ptr,
; 3132 :                 const size_type _Count) {
; 3133 :                 _Traits::copy(_New_ptr, _Old_ptr, _Old_size);
; 3134 :                 _Traits::copy(_New_ptr + _Old_size, _Ptr, _Count);
; 3135 :                 _Traits::assign(_New_ptr[_Old_size + _Count], _Elem());
; 3136 :             },
; 3137 :             _Ptr, _Count);
; 3138 :     }

	pop	edi
	pop	esi
	pop	ebx
	add	esp, 252				; 000000fcH
	cmp	ebp, esp
	call	__RTC_CheckEsp
	mov	esp, ebp
	pop	ebp
	ret	8
?append@?$basic_string@_WU?$char_traits@_W@std@@V?$allocator@_W@2@@std@@QAEAAV12@QB_WI@Z ENDP ; std::basic_string<wchar_t,std::char_traits<wchar_t>,std::allocator<wchar_t> >::append
_TEXT	ENDS
; Function compile flags: /Odtp /RTCsu /ZI
; File C:\Program Files (x86)\Microsoft Visual Studio\2019\Community\VC\Tools\MSVC\14.29.30133\include\xstring
;	COMDAT ??1?$basic_string@_WU?$char_traits@_W@std@@V?$allocator@_W@2@@std@@QAE@XZ
_TEXT	SEGMENT
__To_delete$ = -48					; size = 4
_$S5$ = -33						; size = 1
__Alproxy$ = -24					; size = 4
_this$ = -12						; size = 4
__$ArrayPad$ = -4					; size = 4
??1?$basic_string@_WU?$char_traits@_W@std@@V?$allocator@_W@2@@std@@QAE@XZ PROC ; std::basic_string<wchar_t,std::char_traits<wchar_t>,std::allocator<wchar_t> >::~basic_string<wchar_t,std::char_traits<wchar_t>,std::allocator<wchar_t> >, COMDAT
; _this$ = ecx

; 2968 :     _CONSTEXPR20_CONTAINER ~basic_string() noexcept {

	push	ebp
	mov	ebp, esp
	sub	esp, 244				; 000000f4H
	push	ebx
	push	esi
	push	edi
	push	ecx
	lea	edi, DWORD PTR [ebp-52]
	mov	ecx, 13					; 0000000dH
	mov	eax, -858993460				; ccccccccH
	rep stosd
	pop	ecx
	mov	eax, DWORD PTR ___security_cookie
	xor	eax, ebp
	mov	DWORD PTR __$ArrayPad$[ebp], eax
	mov	DWORD PTR _this$[ebp], ecx
	mov	ecx, OFFSET __0D019051_xstring
	call	@__CheckForDebuggerJustMyCode@4

; 2969 :         _Tidy_deallocate();

	mov	ecx, DWORD PTR _this$[ebp]
	call	?_Tidy_deallocate@?$basic_string@_WU?$char_traits@_W@std@@V?$allocator@_W@2@@std@@AAEXXZ ; std::basic_string<wchar_t,std::char_traits<wchar_t>,std::allocator<wchar_t> >::_Tidy_deallocate

; 2970 : #if _ITERATOR_DEBUG_LEVEL != 0
; 2971 :         auto&& _Alproxy          = _GET_PROXY_ALLOCATOR(_Alty, _Getal());

	mov	ecx, DWORD PTR _this$[ebp]
	call	?_Getal@?$basic_string@_WU?$char_traits@_W@std@@V?$allocator@_W@2@@std@@AAEAAV?$allocator@_W@2@XZ ; std::basic_string<wchar_t,std::char_traits<wchar_t>,std::allocator<wchar_t> >::_Getal
	push	eax
	lea	ecx, DWORD PTR _$S5$[ebp]
	call	??$?0_W@?$allocator@U_Container_proxy@std@@@std@@QAE@ABV?$allocator@_W@1@@Z ; std::allocator<std::_Container_proxy>::allocator<std::_Container_proxy><wchar_t>
	lea	eax, DWORD PTR _$S5$[ebp]
	mov	DWORD PTR __Alproxy$[ebp], eax

; 2972 :         const auto _To_delete    = _Mypair._Myval2._Myproxy;

	mov	eax, DWORD PTR _this$[ebp]
	mov	ecx, DWORD PTR [eax]
	mov	DWORD PTR __To_delete$[ebp], ecx

; 2973 :         _Mypair._Myval2._Myproxy = nullptr;

	mov	eax, DWORD PTR _this$[ebp]
	mov	DWORD PTR [eax], 0

; 2974 :         _Delete_plain_internal(_Alproxy, _To_delete);

	mov	eax, DWORD PTR __To_delete$[ebp]
	push	eax
	mov	ecx, DWORD PTR __Alproxy$[ebp]
	push	ecx
	call	??$_Delete_plain_internal@V?$allocator@U_Container_proxy@std@@@std@@@std@@YAXAAV?$allocator@U_Container_proxy@std@@@0@QAU_Container_proxy@0@@Z ; std::_Delete_plain_internal<std::allocator<std::_Container_proxy> >
	add	esp, 8

; 2975 : #endif // _ITERATOR_DEBUG_LEVEL != 0
; 2976 :     }

	mov	ecx, DWORD PTR _this$[ebp]
	call	??1?$_Compressed_pair@V?$allocator@_W@std@@V?$_String_val@U?$_Simple_types@_W@std@@@2@$00@std@@QAE@XZ
	push	edx
	mov	ecx, ebp
	push	eax
	lea	edx, DWORD PTR $LN5@basic_stri
	call	@_RTC_CheckStackVars@8
	pop	eax
	pop	edx
	pop	edi
	pop	esi
	pop	ebx
	mov	ecx, DWORD PTR __$ArrayPad$[ebp]
	xor	ecx, ebp
	call	@__security_check_cookie@4
	add	esp, 244				; 000000f4H
	cmp	ebp, esp
	call	__RTC_CheckEsp
	mov	esp, ebp
	pop	ebp
	ret	0
	npad	1
$LN5@basic_stri:
	DD	1
	DD	$LN4@basic_stri
$LN4@basic_stri:
	DD	-33					; ffffffdfH
	DD	1
	DD	$LN3@basic_stri
$LN3@basic_stri:
	DB	36					; 00000024H
	DB	83					; 00000053H
	DB	53					; 00000035H
	DB	0
??1?$basic_string@_WU?$char_traits@_W@std@@V?$allocator@_W@2@@std@@QAE@XZ ENDP ; std::basic_string<wchar_t,std::char_traits<wchar_t>,std::allocator<wchar_t> >::~basic_string<wchar_t,std::char_traits<wchar_t>,std::allocator<wchar_t> >
_TEXT	ENDS
; Function compile flags: /Odtp /RTCsu /ZI
; File C:\Program Files (x86)\Microsoft Visual Studio\2019\Community\VC\Tools\MSVC\14.29.30133\include\xstring
;	COMDAT ?_Take_contents@?$basic_string@_WU?$char_traits@_W@std@@V?$allocator@_W@2@@std@@AAEXAAV12@@Z
_TEXT	SEGMENT
__Right_data$ = -44					; size = 4
__My_data$ = -32					; size = 4
_this$ = -20						; size = 4
__$EHRec$ = -12						; size = 12
__Right$ = 8						; size = 4
?_Take_contents@?$basic_string@_WU?$char_traits@_W@std@@V?$allocator@_W@2@@std@@AAEXAAV12@@Z PROC ; std::basic_string<wchar_t,std::char_traits<wchar_t>,std::allocator<wchar_t> >::_Take_contents, COMDAT
; _this$ = ecx

; 2838 :     _CONSTEXPR20_CONTAINER void _Take_contents(basic_string& _Right) noexcept {

	push	ebp
	mov	ebp, esp
	push	-1
	push	__ehhandler$?_Take_contents@?$basic_string@_WU?$char_traits@_W@std@@V?$allocator@_W@2@@std@@AAEXAAV12@@Z
	mov	eax, DWORD PTR fs:0
	push	eax
	sub	esp, 228				; 000000e4H
	push	ebx
	push	esi
	push	edi
	push	ecx
	lea	edi, DWORD PTR [ebp-48]
	mov	ecx, 9
	mov	eax, -858993460				; ccccccccH
	rep stosd
	pop	ecx
	mov	eax, DWORD PTR ___security_cookie
	xor	eax, ebp
	push	eax
	lea	eax, DWORD PTR __$EHRec$[ebp]
	mov	DWORD PTR fs:0, eax
	mov	DWORD PTR _this$[ebp], ecx
	mov	ecx, OFFSET __0D019051_xstring
	call	@__CheckForDebuggerJustMyCode@4

; 2839 :         // assign by stealing _Right's buffer
; 2840 :         // pre: this != &_Right
; 2841 :         // pre: allocator propagation (POCMA) from _Right, if necessary, is complete
; 2842 :         // pre: *this owns no memory, iterators orphaned
; 2843 :         // (note: _Buf/_Ptr/_Mysize/_Myres may be garbage init)
; 2844 :         auto& _My_data    = _Mypair._Myval2;

	mov	eax, DWORD PTR _this$[ebp]
	mov	DWORD PTR __My_data$[ebp], eax

; 2845 :         auto& _Right_data = _Right._Mypair._Myval2;

	mov	eax, DWORD PTR __Right$[ebp]
	mov	DWORD PTR __Right_data$[ebp], eax

; 2846 : 
; 2847 :         if constexpr (_Can_memcpy_val) {
; 2848 : #ifdef __cpp_lib_constexpr_string
; 2849 :             if (!_STD is_constant_evaluated())
; 2850 : #endif // __cpp_lib_constexpr_string
; 2851 :             {
; 2852 : #if _ITERATOR_DEBUG_LEVEL != 0
; 2853 :                 if (_Right_data._Large_string_engaged()) {

	mov	ecx, DWORD PTR __Right_data$[ebp]
	call	?_Large_string_engaged@?$_String_val@U?$_Simple_types@_W@std@@@std@@QBE_NXZ ; std::_String_val<std::_Simple_types<wchar_t> >::_Large_string_engaged
	movzx	eax, al
	test	eax, eax
	je	SHORT $LN2@Take_conte

; 2854 :                     // take ownership of _Right's iterators along with its buffer
; 2855 :                     _Swap_proxy_and_iterators(_Right);

	mov	eax, DWORD PTR __Right$[ebp]
	push	eax
	mov	ecx, DWORD PTR _this$[ebp]
	call	?_Swap_proxy_and_iterators@?$basic_string@_WU?$char_traits@_W@std@@V?$allocator@_W@2@@std@@AAEXAAV12@@Z ; std::basic_string<wchar_t,std::char_traits<wchar_t>,std::allocator<wchar_t> >::_Swap_proxy_and_iterators

; 2856 :                 } else {

	jmp	SHORT $LN3@Take_conte
$LN2@Take_conte:

; 2857 :                     _Right_data._Orphan_all();

	mov	ecx, DWORD PTR __Right_data$[ebp]
	call	?_Orphan_all@_Container_base12@std@@QAEXXZ ; std::_Container_base12::_Orphan_all
$LN3@Take_conte:

; 2858 :                 }
; 2859 : #endif // _ITERATOR_DEBUG_LEVEL != 0
; 2860 : 
; 2861 :                 _Memcpy_val_from(_Right);

	mov	eax, DWORD PTR __Right$[ebp]
	push	eax
	mov	ecx, DWORD PTR _this$[ebp]
	call	?_Memcpy_val_from@?$basic_string@_WU?$char_traits@_W@std@@V?$allocator@_W@2@@std@@AAEXABV12@@Z ; std::basic_string<wchar_t,std::char_traits<wchar_t>,std::allocator<wchar_t> >::_Memcpy_val_from

; 2862 :                 _Right._Tidy_init();

	mov	ecx, DWORD PTR __Right$[ebp]
	call	?_Tidy_init@?$basic_string@_WU?$char_traits@_W@std@@V?$allocator@_W@2@@std@@AAEXXZ ; std::basic_string<wchar_t,std::char_traits<wchar_t>,std::allocator<wchar_t> >::_Tidy_init

; 2863 :                 return;

	jmp	$LN6@Take_conte

; 2864 :             }
; 2865 :         }
; 2866 : 
; 2867 :         if (_Right_data._Large_string_engaged()) { // steal buffer

	mov	ecx, DWORD PTR __Right_data$[ebp]
	call	?_Large_string_engaged@?$_String_val@U?$_Simple_types@_W@std@@@std@@QBE_NXZ ; std::_String_val<std::_Simple_types<wchar_t> >::_Large_string_engaged
	movzx	eax, al
	test	eax, eax
	je	SHORT $LN4@Take_conte

; 2868 :             _Construct_in_place(_My_data._Bx._Ptr, _Right_data._Bx._Ptr);

	mov	eax, DWORD PTR __Right_data$[ebp]
	add	eax, 4
	push	eax
	mov	ecx, DWORD PTR __My_data$[ebp]
	add	ecx, 4
	push	ecx
	call	??$_Construct_in_place@PA_WAAPA_W@std@@YAXAAPA_W0@Z ; std::_Construct_in_place<wchar_t *,wchar_t * &>
	add	esp, 8

; 2869 :             _Right_data._Bx._Ptr = nullptr;

	mov	eax, DWORD PTR __Right_data$[ebp]
	mov	DWORD PTR [eax+4], 0

; 2870 :             _Swap_proxy_and_iterators(_Right);

	mov	eax, DWORD PTR __Right$[ebp]
	push	eax
	mov	ecx, DWORD PTR _this$[ebp]
	call	?_Swap_proxy_and_iterators@?$basic_string@_WU?$char_traits@_W@std@@V?$allocator@_W@2@@std@@AAEXAAV12@@Z ; std::basic_string<wchar_t,std::char_traits<wchar_t>,std::allocator<wchar_t> >::_Swap_proxy_and_iterators

; 2871 :         } else { // copy small string buffer

	jmp	SHORT $LN5@Take_conte
$LN4@Take_conte:

; 2872 :             _Traits::copy(_My_data._Bx._Buf, _Right_data._Bx._Buf, _Right_data._Mysize + 1);

	mov	eax, DWORD PTR __Right_data$[ebp]
	mov	ecx, DWORD PTR [eax+20]
	add	ecx, 1
	push	ecx
	mov	edx, DWORD PTR __Right_data$[ebp]
	add	edx, 4
	push	edx
	mov	eax, DWORD PTR __My_data$[ebp]
	add	eax, 4
	push	eax
	call	?copy@?$_Char_traits@_WG@std@@SAPA_WQA_WQB_WI@Z ; std::_Char_traits<wchar_t,unsigned short>::copy
	add	esp, 12					; 0000000cH

; 2873 :             _Right_data._Orphan_all();

	mov	ecx, DWORD PTR __Right_data$[ebp]
	call	?_Orphan_all@_Container_base12@std@@QAEXXZ ; std::_Container_base12::_Orphan_all
$LN5@Take_conte:

; 2874 :         }
; 2875 : 
; 2876 :         _My_data._Mysize = _Right_data._Mysize;

	mov	eax, DWORD PTR __My_data$[ebp]
	mov	ecx, DWORD PTR __Right_data$[ebp]
	mov	edx, DWORD PTR [ecx+20]
	mov	DWORD PTR [eax+20], edx

; 2877 :         _My_data._Myres  = _Right_data._Myres;

	mov	eax, DWORD PTR __My_data$[ebp]
	mov	ecx, DWORD PTR __Right_data$[ebp]
	mov	edx, DWORD PTR [ecx+24]
	mov	DWORD PTR [eax+24], edx

; 2878 :         _Right._Tidy_init();

	mov	ecx, DWORD PTR __Right$[ebp]
	call	?_Tidy_init@?$basic_string@_WU?$char_traits@_W@std@@V?$allocator@_W@2@@std@@AAEXXZ ; std::basic_string<wchar_t,std::char_traits<wchar_t>,std::allocator<wchar_t> >::_Tidy_init
$LN6@Take_conte:

; 2879 :     }

	mov	ecx, DWORD PTR __$EHRec$[ebp]
	mov	DWORD PTR fs:0, ecx
	pop	ecx
	pop	edi
	pop	esi
	pop	ebx
	add	esp, 240				; 000000f0H
	cmp	ebp, esp
	call	__RTC_CheckEsp
	mov	esp, ebp
	pop	ebp
	ret	4
	int	3
	int	3
	int	3
	int	3
	int	3
_TEXT	ENDS
;	COMDAT text$x
text$x	SEGMENT
__ehhandler$?_Take_contents@?$basic_string@_WU?$char_traits@_W@std@@V?$allocator@_W@2@@std@@AAEXAAV12@@Z:
	npad	1
	npad	1
	mov	edx, DWORD PTR [esp+8]
	lea	eax, DWORD PTR [edx+12]
	mov	ecx, DWORD PTR [edx-244]
	xor	ecx, eax
	call	@__security_check_cookie@4
	mov	eax, OFFSET __ehfuncinfo$?_Take_contents@?$basic_string@_WU?$char_traits@_W@std@@V?$allocator@_W@2@@std@@AAEXAAV12@@Z
	jmp	___CxxFrameHandler3
text$x	ENDS
?_Take_contents@?$basic_string@_WU?$char_traits@_W@std@@V?$allocator@_W@2@@std@@AAEXAAV12@@Z ENDP ; std::basic_string<wchar_t,std::char_traits<wchar_t>,std::allocator<wchar_t> >::_Take_contents
; Function compile flags: /Odtp /RTCsu /ZI
; File C:\Program Files (x86)\Microsoft Visual Studio\2019\Community\VC\Tools\MSVC\14.29.30133\include\xstring
;	COMDAT ?_Memcpy_val_from@?$basic_string@_WU?$char_traits@_W@std@@V?$allocator@_W@2@@std@@AAEXABV12@@Z
_TEXT	SEGMENT
__Right_data_mem$ = -32					; size = 4
__My_data_mem$ = -20					; size = 4
_this$ = -8						; size = 4
__Right$ = 8						; size = 4
?_Memcpy_val_from@?$basic_string@_WU?$char_traits@_W@std@@V?$allocator@_W@2@@std@@AAEXABV12@@Z PROC ; std::basic_string<wchar_t,std::char_traits<wchar_t>,std::allocator<wchar_t> >::_Memcpy_val_from, COMDAT
; _this$ = ecx

; 2829 :     void _Memcpy_val_from(const basic_string& _Right) noexcept {

	push	ebp
	mov	ebp, esp
	sub	esp, 228				; 000000e4H
	push	ebx
	push	esi
	push	edi
	push	ecx
	lea	edi, DWORD PTR [ebp-36]
	mov	ecx, 9
	mov	eax, -858993460				; ccccccccH
	rep stosd
	pop	ecx
	mov	DWORD PTR _this$[ebp], ecx
	mov	ecx, OFFSET __0D019051_xstring
	call	@__CheckForDebuggerJustMyCode@4

; 2830 :         _STL_INTERNAL_CHECK(_Can_memcpy_val); // TRANSITION, if constexpr
; 2831 :         const auto _My_data_mem =

	mov	eax, DWORD PTR _this$[ebp]
	push	eax
	call	??$addressof@V?$_String_val@U?$_Simple_types@_W@std@@@std@@@std@@YAPAV?$_String_val@U?$_Simple_types@_W@std@@@0@AAV10@@Z ; std::addressof<std::_String_val<std::_Simple_types<wchar_t> > >
	add	esp, 4
	add	eax, 4
	mov	DWORD PTR __My_data_mem$[ebp], eax

; 2832 :             reinterpret_cast<unsigned char*>(_STD addressof(_Mypair._Myval2)) + _Memcpy_val_offset;
; 2833 :         const auto _Right_data_mem =

	mov	eax, DWORD PTR __Right$[ebp]
	push	eax
	call	??$addressof@$$CBV?$_String_val@U?$_Simple_types@_W@std@@@std@@@std@@YAPBV?$_String_val@U?$_Simple_types@_W@std@@@0@ABV10@@Z ; std::addressof<std::_String_val<std::_Simple_types<wchar_t> > const >
	add	esp, 4
	add	eax, 4
	mov	DWORD PTR __Right_data_mem$[ebp], eax

; 2834 :             reinterpret_cast<const unsigned char*>(_STD addressof(_Right._Mypair._Myval2)) + _Memcpy_val_offset;
; 2835 :         _CSTD memcpy(_My_data_mem, _Right_data_mem, _Memcpy_val_size);

	push	24					; 00000018H
	mov	eax, DWORD PTR __Right_data_mem$[ebp]
	push	eax
	mov	ecx, DWORD PTR __My_data_mem$[ebp]
	push	ecx
	call	_memcpy
	add	esp, 12					; 0000000cH

; 2836 :     }

	pop	edi
	pop	esi
	pop	ebx
	add	esp, 228				; 000000e4H
	cmp	ebp, esp
	call	__RTC_CheckEsp
	mov	esp, ebp
	pop	ebp
	ret	4
?_Memcpy_val_from@?$basic_string@_WU?$char_traits@_W@std@@V?$allocator@_W@2@@std@@AAEXABV12@@Z ENDP ; std::basic_string<wchar_t,std::char_traits<wchar_t>,std::allocator<wchar_t> >::_Memcpy_val_from
_TEXT	ENDS
; Function compile flags: /Odtp /RTCsu /ZI
; File C:\Program Files (x86)\Microsoft Visual Studio\2019\Community\VC\Tools\MSVC\14.29.30133\include\xstring
;	COMDAT ??0?$basic_string@_WU?$char_traits@_W@std@@V?$allocator@_W@2@@std@@QAE@$$QAV01@@Z
_TEXT	SEGMENT
$T2 = -233						; size = 1
$T3 = -221						; size = 1
_this$ = -20						; size = 4
__$EHRec$ = -12						; size = 12
__Right$ = 8						; size = 4
??0?$basic_string@_WU?$char_traits@_W@std@@V?$allocator@_W@2@@std@@QAE@$$QAV01@@Z PROC ; std::basic_string<wchar_t,std::char_traits<wchar_t>,std::allocator<wchar_t> >::basic_string<wchar_t,std::char_traits<wchar_t>,std::allocator<wchar_t> >, COMDAT
; _this$ = ecx

; 2571 :         : _Mypair(_One_then_variadic_args_t{}, _STD move(_Right._Getal())) {

	push	ebp
	mov	ebp, esp
	push	-1
	push	__ehhandler$??0?$basic_string@_WU?$char_traits@_W@std@@V?$allocator@_W@2@@std@@QAE@$$QAV01@@Z
	mov	eax, DWORD PTR fs:0
	push	eax
	sub	esp, 228				; 000000e4H
	push	ebx
	push	esi
	push	edi
	push	ecx
	lea	edi, DWORD PTR [ebp-48]
	mov	ecx, 9
	mov	eax, -858993460				; ccccccccH
	rep stosd
	pop	ecx
	mov	eax, DWORD PTR ___security_cookie
	xor	eax, ebp
	push	eax
	lea	eax, DWORD PTR __$EHRec$[ebp]
	mov	DWORD PTR fs:0, eax
	mov	DWORD PTR _this$[ebp], ecx
	mov	ecx, OFFSET __0D019051_xstring
	call	@__CheckForDebuggerJustMyCode@4
	mov	ecx, DWORD PTR __Right$[ebp]
	call	?_Getal@?$basic_string@_WU?$char_traits@_W@std@@V?$allocator@_W@2@@std@@AAEAAV?$allocator@_W@2@XZ ; std::basic_string<wchar_t,std::char_traits<wchar_t>,std::allocator<wchar_t> >::_Getal
	push	eax
	call	??$move@AAV?$allocator@_W@std@@@std@@YA$$QAV?$allocator@_W@0@AAV10@@Z ; std::move<std::allocator<wchar_t> &>
	add	esp, 4
	push	eax
	movzx	eax, BYTE PTR $T3[ebp]
	push	eax
	mov	ecx, DWORD PTR _this$[ebp]
	call	??$?0V?$allocator@_W@std@@$$V@?$_Compressed_pair@V?$allocator@_W@std@@V?$_String_val@U?$_Simple_types@_W@std@@@2@$00@std@@QAE@U_One_then_variadic_args_t@1@$$QAV?$allocator@_W@1@@Z ; std::_Compressed_pair<std::allocator<wchar_t>,std::_String_val<std::_Simple_types<wchar_t> >,1>::_Compressed_pair<std::allocator<wchar_t>,std::_String_val<std::_Simple_types<wchar_t> >,1><std::allocator<wchar_t> >

; 2572 :         _Mypair._Myval2._Alloc_proxy(_GET_PROXY_ALLOCATOR(_Alty, _Getal()));

	mov	ecx, DWORD PTR _this$[ebp]
	call	?_Getal@?$basic_string@_WU?$char_traits@_W@std@@V?$allocator@_W@2@@std@@AAEAAV?$allocator@_W@2@XZ ; std::basic_string<wchar_t,std::char_traits<wchar_t>,std::allocator<wchar_t> >::_Getal
	push	eax
	lea	ecx, DWORD PTR $T2[ebp]
	call	??$?0_W@?$allocator@U_Container_proxy@std@@@std@@QAE@ABV?$allocator@_W@1@@Z ; std::allocator<std::_Container_proxy>::allocator<std::_Container_proxy><wchar_t>
	push	eax
	mov	ecx, DWORD PTR _this$[ebp]
	call	??$_Alloc_proxy@V?$allocator@U_Container_proxy@std@@@std@@@_Container_base12@std@@QAEX$$QAV?$allocator@U_Container_proxy@std@@@1@@Z ; std::_Container_base12::_Alloc_proxy<std::allocator<std::_Container_proxy> >

; 2573 :         _Take_contents(_Right);

	mov	eax, DWORD PTR __Right$[ebp]
	push	eax
	mov	ecx, DWORD PTR _this$[ebp]
	call	?_Take_contents@?$basic_string@_WU?$char_traits@_W@std@@V?$allocator@_W@2@@std@@AAEXAAV12@@Z ; std::basic_string<wchar_t,std::char_traits<wchar_t>,std::allocator<wchar_t> >::_Take_contents

; 2574 :     }

	mov	eax, DWORD PTR _this$[ebp]
	mov	ecx, DWORD PTR __$EHRec$[ebp]
	mov	DWORD PTR fs:0, ecx
	pop	ecx
	pop	edi
	pop	esi
	pop	ebx
	add	esp, 240				; 000000f0H
	cmp	ebp, esp
	call	__RTC_CheckEsp
	mov	esp, ebp
	pop	ebp
	ret	4
	int	3
	int	3
	int	3
	int	3
	int	3
_TEXT	ENDS
;	COMDAT text$x
text$x	SEGMENT
__ehhandler$??0?$basic_string@_WU?$char_traits@_W@std@@V?$allocator@_W@2@@std@@QAE@$$QAV01@@Z:
	npad	1
	npad	1
	mov	edx, DWORD PTR [esp+8]
	lea	eax, DWORD PTR [edx+12]
	mov	ecx, DWORD PTR [edx-244]
	xor	ecx, eax
	call	@__security_check_cookie@4
	mov	eax, OFFSET __ehfuncinfo$??0?$basic_string@_WU?$char_traits@_W@std@@V?$allocator@_W@2@@std@@QAE@$$QAV01@@Z
	jmp	___CxxFrameHandler3
text$x	ENDS
??0?$basic_string@_WU?$char_traits@_W@std@@V?$allocator@_W@2@@std@@QAE@$$QAV01@@Z ENDP ; std::basic_string<wchar_t,std::char_traits<wchar_t>,std::allocator<wchar_t> >::basic_string<wchar_t,std::char_traits<wchar_t>,std::allocator<wchar_t> >
; Function compile flags: /Odtp /RTCsu /ZI
; File C:\Program Files (x86)\Microsoft Visual Studio\2019\Community\VC\Tools\MSVC\14.29.30133\include\xstring
;	COMDAT ??0?$basic_string@_WU?$char_traits@_W@std@@V?$allocator@_W@2@@std@@QAE@QB_WI@Z
_TEXT	SEGMENT
$T2 = -265						; size = 1
__Proxy$ = -64						; size = 8
_$S7$ = -45						; size = 1
__Alproxy$ = -36					; size = 4
_this$ = -24						; size = 4
__$ArrayPad$ = -16					; size = 4
__$EHRec$ = -12						; size = 12
__Ptr$ = 8						; size = 4
__Count$ = 12						; size = 4
??0?$basic_string@_WU?$char_traits@_W@std@@V?$allocator@_W@2@@std@@QAE@QB_WI@Z PROC ; std::basic_string<wchar_t,std::char_traits<wchar_t>,std::allocator<wchar_t> >::basic_string<wchar_t,std::char_traits<wchar_t>,std::allocator<wchar_t> >, COMDAT
; _this$ = ecx

; 2465 :         : _Mypair(_Zero_then_variadic_args_t{}) {

	push	ebp
	mov	ebp, esp
	push	-1
	push	__ehhandler$??0?$basic_string@_WU?$char_traits@_W@std@@V?$allocator@_W@2@@std@@QAE@QB_WI@Z
	mov	eax, DWORD PTR fs:0
	push	eax
	sub	esp, 260				; 00000104H
	push	ebx
	push	esi
	push	edi
	push	ecx
	lea	edi, DWORD PTR [ebp-80]
	mov	ecx, 17					; 00000011H
	mov	eax, -858993460				; ccccccccH
	rep stosd
	pop	ecx
	mov	eax, DWORD PTR ___security_cookie
	xor	eax, ebp
	mov	DWORD PTR __$ArrayPad$[ebp], eax
	push	eax
	lea	eax, DWORD PTR __$EHRec$[ebp]
	mov	DWORD PTR fs:0, eax
	mov	DWORD PTR _this$[ebp], ecx
	mov	ecx, OFFSET __0D019051_xstring
	call	@__CheckForDebuggerJustMyCode@4
	movzx	eax, BYTE PTR $T2[ebp]
	push	eax
	mov	ecx, DWORD PTR _this$[ebp]
	call	??$?0$$V@?$_Compressed_pair@V?$allocator@_W@std@@V?$_String_val@U?$_Simple_types@_W@std@@@2@$00@std@@QAE@U_Zero_then_variadic_args_t@1@@Z ; std::_Compressed_pair<std::allocator<wchar_t>,std::_String_val<std::_Simple_types<wchar_t> >,1>::_Compressed_pair<std::allocator<wchar_t>,std::_String_val<std::_Simple_types<wchar_t> >,1><>
	mov	DWORD PTR __$EHRec$[ebp+8], 0

; 2466 :         auto&& _Alproxy = _GET_PROXY_ALLOCATOR(_Alty, _Getal());

	mov	ecx, DWORD PTR _this$[ebp]
	call	?_Getal@?$basic_string@_WU?$char_traits@_W@std@@V?$allocator@_W@2@@std@@AAEAAV?$allocator@_W@2@XZ ; std::basic_string<wchar_t,std::char_traits<wchar_t>,std::allocator<wchar_t> >::_Getal
	push	eax
	lea	ecx, DWORD PTR _$S7$[ebp]
	call	??$?0_W@?$allocator@U_Container_proxy@std@@@std@@QAE@ABV?$allocator@_W@1@@Z ; std::allocator<std::_Container_proxy>::allocator<std::_Container_proxy><wchar_t>
	lea	eax, DWORD PTR _$S7$[ebp]
	mov	DWORD PTR __Alproxy$[ebp], eax

; 2467 :         _Container_proxy_ptr<_Alty> _Proxy(_Alproxy, _Mypair._Myval2);

	mov	eax, DWORD PTR _this$[ebp]
	push	eax
	mov	ecx, DWORD PTR __Alproxy$[ebp]
	push	ecx
	lea	ecx, DWORD PTR __Proxy$[ebp]
	call	??0?$_Container_proxy_ptr12@V?$allocator@U_Container_proxy@std@@@std@@@std@@QAE@AAV?$allocator@U_Container_proxy@std@@@1@AAU_Container_base12@1@@Z ; std::_Container_proxy_ptr12<std::allocator<std::_Container_proxy> >::_Container_proxy_ptr12<std::allocator<std::_Container_proxy> >
	mov	BYTE PTR __$EHRec$[ebp+8], 1

; 2468 :         _Tidy_init();

	mov	ecx, DWORD PTR _this$[ebp]
	call	?_Tidy_init@?$basic_string@_WU?$char_traits@_W@std@@V?$allocator@_W@2@@std@@AAEXXZ ; std::basic_string<wchar_t,std::char_traits<wchar_t>,std::allocator<wchar_t> >::_Tidy_init

; 2469 :         assign(_Ptr, _Count);

	mov	eax, DWORD PTR __Count$[ebp]
	push	eax
	mov	ecx, DWORD PTR __Ptr$[ebp]
	push	ecx
	mov	ecx, DWORD PTR _this$[ebp]
	call	?assign@?$basic_string@_WU?$char_traits@_W@std@@V?$allocator@_W@2@@std@@QAEAAV12@QB_WI@Z ; std::basic_string<wchar_t,std::char_traits<wchar_t>,std::allocator<wchar_t> >::assign

; 2470 :         _Proxy._Release();

	lea	ecx, DWORD PTR __Proxy$[ebp]
	call	?_Release@_Basic_container_proxy_ptr12@std@@QAEXXZ ; std::_Basic_container_proxy_ptr12::_Release

; 2471 :     }

	mov	BYTE PTR __$EHRec$[ebp+8], 0
	lea	ecx, DWORD PTR __Proxy$[ebp]
	call	??1?$_Container_proxy_ptr12@V?$allocator@U_Container_proxy@std@@@std@@@std@@QAE@XZ ; std::_Container_proxy_ptr12<std::allocator<std::_Container_proxy> >::~_Container_proxy_ptr12<std::allocator<std::_Container_proxy> >
	mov	DWORD PTR __$EHRec$[ebp+8], -1
	mov	eax, DWORD PTR _this$[ebp]
	push	edx
	mov	ecx, ebp
	push	eax
	lea	edx, DWORD PTR $LN9@basic_stri
	call	@_RTC_CheckStackVars@8
	pop	eax
	pop	edx
	mov	ecx, DWORD PTR __$EHRec$[ebp]
	mov	DWORD PTR fs:0, ecx
	pop	ecx
	pop	edi
	pop	esi
	pop	ebx
	mov	ecx, DWORD PTR __$ArrayPad$[ebp]
	xor	ecx, ebp
	call	@__security_check_cookie@4
	add	esp, 272				; 00000110H
	cmp	ebp, esp
	call	__RTC_CheckEsp
	mov	esp, ebp
	pop	ebp
	ret	8
$LN9@basic_stri:
	DD	2
	DD	$LN8@basic_stri
$LN8@basic_stri:
	DD	-45					; ffffffd3H
	DD	1
	DD	$LN5@basic_stri
	DD	-64					; ffffffc0H
	DD	8
	DD	$LN6@basic_stri
$LN6@basic_stri:
	DB	95					; 0000005fH
	DB	80					; 00000050H
	DB	114					; 00000072H
	DB	111					; 0000006fH
	DB	120					; 00000078H
	DB	121					; 00000079H
	DB	0
$LN5@basic_stri:
	DB	36					; 00000024H
	DB	83					; 00000053H
	DB	55					; 00000037H
	DB	0
_TEXT	ENDS
;	COMDAT text$x
text$x	SEGMENT
__unwindfunclet$??0?$basic_string@_WU?$char_traits@_W@std@@V?$allocator@_W@2@@std@@QAE@QB_WI@Z$0:
	mov	ecx, DWORD PTR _this$[ebp]
	jmp	??1?$_Compressed_pair@V?$allocator@_W@std@@V?$_String_val@U?$_Simple_types@_W@std@@@2@$00@std@@QAE@XZ
__unwindfunclet$??0?$basic_string@_WU?$char_traits@_W@std@@V?$allocator@_W@2@@std@@QAE@QB_WI@Z$1:
	lea	ecx, DWORD PTR __Proxy$[ebp]
	jmp	??1?$_Container_proxy_ptr12@V?$allocator@U_Container_proxy@std@@@std@@@std@@QAE@XZ ; std::_Container_proxy_ptr12<std::allocator<std::_Container_proxy> >::~_Container_proxy_ptr12<std::allocator<std::_Container_proxy> >
	int	3
	int	3
	int	3
	int	3
	int	3
__ehhandler$??0?$basic_string@_WU?$char_traits@_W@std@@V?$allocator@_W@2@@std@@QAE@QB_WI@Z:
	npad	1
	npad	1
	mov	edx, DWORD PTR [esp+8]
	lea	eax, DWORD PTR [edx+12]
	mov	ecx, DWORD PTR [edx-276]
	xor	ecx, eax
	call	@__security_check_cookie@4
	mov	ecx, DWORD PTR [edx-4]
	xor	ecx, eax
	call	@__security_check_cookie@4
	mov	eax, OFFSET __ehfuncinfo$??0?$basic_string@_WU?$char_traits@_W@std@@V?$allocator@_W@2@@std@@QAE@QB_WI@Z
	jmp	___CxxFrameHandler3
text$x	ENDS
??0?$basic_string@_WU?$char_traits@_W@std@@V?$allocator@_W@2@@std@@QAE@QB_WI@Z ENDP ; std::basic_string<wchar_t,std::char_traits<wchar_t>,std::allocator<wchar_t> >::basic_string<wchar_t,std::char_traits<wchar_t>,std::allocator<wchar_t> >
; Function compile flags: /Odtp /RTCsu /ZI
;	COMDAT ??1?$_String_val@U?$_Simple_types@_W@std@@@std@@QAE@XZ
_TEXT	SEGMENT
_this$ = -8						; size = 4
??1?$_String_val@U?$_Simple_types@_W@std@@@std@@QAE@XZ PROC ; std::_String_val<std::_Simple_types<wchar_t> >::~_String_val<std::_Simple_types<wchar_t> >, COMDAT
; _this$ = ecx
	push	ebp
	mov	ebp, esp
	sub	esp, 204				; 000000ccH
	push	ebx
	push	esi
	push	edi
	push	ecx
	lea	edi, DWORD PTR [ebp-12]
	mov	ecx, 3
	mov	eax, -858993460				; ccccccccH
	rep stosd
	pop	ecx
	mov	DWORD PTR _this$[ebp], ecx
	mov	ecx, DWORD PTR _this$[ebp]
	add	ecx, 4
	call	??1_Bxty@?$_String_val@U?$_Simple_types@_W@std@@@std@@QAE@XZ ; std::_String_val<std::_Simple_types<wchar_t> >::_Bxty::~_Bxty
	pop	edi
	pop	esi
	pop	ebx
	add	esp, 204				; 000000ccH
	cmp	ebp, esp
	call	__RTC_CheckEsp
	mov	esp, ebp
	pop	ebp
	ret	0
??1?$_String_val@U?$_Simple_types@_W@std@@@std@@QAE@XZ ENDP ; std::_String_val<std::_Simple_types<wchar_t> >::~_String_val<std::_Simple_types<wchar_t> >
_TEXT	ENDS
; Function compile flags: /Odtp /RTCsu /ZI
; File C:\Program Files (x86)\Microsoft Visual Studio\2019\Community\VC\Tools\MSVC\14.29.30133\include\xstring
;	COMDAT ??1_Bxty@?$_String_val@U?$_Simple_types@_W@std@@@std@@QAE@XZ
_TEXT	SEGMENT
_this$ = -8						; size = 4
??1_Bxty@?$_String_val@U?$_Simple_types@_W@std@@@std@@QAE@XZ PROC ; std::_String_val<std::_Simple_types<wchar_t> >::_Bxty::~_Bxty, COMDAT
; _this$ = ecx

; 2315 :         _CONSTEXPR20_CONTAINER ~_Bxty() noexcept {} // user-provided, for fancy pointers

	push	ebp
	mov	ebp, esp
	sub	esp, 204				; 000000ccH
	push	ebx
	push	esi
	push	edi
	push	ecx
	lea	edi, DWORD PTR [ebp-12]
	mov	ecx, 3
	mov	eax, -858993460				; ccccccccH
	rep stosd
	pop	ecx
	mov	DWORD PTR _this$[ebp], ecx
	mov	ecx, OFFSET __0D019051_xstring
	call	@__CheckForDebuggerJustMyCode@4
	pop	edi
	pop	esi
	pop	ebx
	add	esp, 204				; 000000ccH
	cmp	ebp, esp
	call	__RTC_CheckEsp
	mov	esp, ebp
	pop	ebp
	ret	0
??1_Bxty@?$_String_val@U?$_Simple_types@_W@std@@@std@@QAE@XZ ENDP ; std::_String_val<std::_Simple_types<wchar_t> >::_Bxty::~_Bxty
_TEXT	ENDS
; Function compile flags: /Odtp /RTCsu /ZI
; File C:\Program Files (x86)\Microsoft Visual Studio\2019\Community\VC\Tools\MSVC\14.29.30133\include\xstring
;	COMDAT ??0_Bxty@?$_String_val@U?$_Simple_types@_W@std@@@std@@QAE@XZ
_TEXT	SEGMENT
_this$ = -8						; size = 4
??0_Bxty@?$_String_val@U?$_Simple_types@_W@std@@@std@@QAE@XZ PROC ; std::_String_val<std::_Simple_types<wchar_t> >::_Bxty::_Bxty, COMDAT
; _this$ = ecx

; 2313 :         _CONSTEXPR20_CONTAINER _Bxty() noexcept : _Ptr() {} // user-provided, for fancy pointers

	push	ebp
	mov	ebp, esp
	sub	esp, 204				; 000000ccH
	push	ebx
	push	esi
	push	edi
	push	ecx
	lea	edi, DWORD PTR [ebp-12]
	mov	ecx, 3
	mov	eax, -858993460				; ccccccccH
	rep stosd
	pop	ecx
	mov	DWORD PTR _this$[ebp], ecx
	mov	ecx, OFFSET __0D019051_xstring
	call	@__CheckForDebuggerJustMyCode@4
	mov	eax, DWORD PTR _this$[ebp]
	mov	DWORD PTR [eax], 0
	mov	eax, DWORD PTR _this$[ebp]
	pop	edi
	pop	esi
	pop	ebx
	add	esp, 204				; 000000ccH
	cmp	ebp, esp
	call	__RTC_CheckEsp
	mov	esp, ebp
	pop	ebp
	ret	0
??0_Bxty@?$_String_val@U?$_Simple_types@_W@std@@@std@@QAE@XZ ENDP ; std::_String_val<std::_Simple_types<wchar_t> >::_Bxty::_Bxty
_TEXT	ENDS
; Function compile flags: /Odtp /RTCsu /ZI
; File C:\Program Files (x86)\Microsoft Visual Studio\2019\Community\VC\Tools\MSVC\14.29.30133\include\xstring
;	COMDAT ?_Large_string_engaged@?$_String_val@U?$_Simple_types@_W@std@@@std@@QBE_NXZ
_TEXT	SEGMENT
tv66 = -208						; size = 4
_this$ = -8						; size = 4
?_Large_string_engaged@?$_String_val@U?$_Simple_types@_W@std@@@std@@QBE_NXZ PROC ; std::_String_val<std::_Simple_types<wchar_t> >::_Large_string_engaged, COMDAT
; _this$ = ecx

; 2280 :     _CONSTEXPR20_CONTAINER bool _Large_string_engaged() const noexcept {

	push	ebp
	mov	ebp, esp
	sub	esp, 208				; 000000d0H
	push	ebx
	push	esi
	push	edi
	push	ecx
	lea	edi, DWORD PTR [ebp-16]
	mov	ecx, 4
	mov	eax, -858993460				; ccccccccH
	rep stosd
	pop	ecx
	mov	DWORD PTR _this$[ebp], ecx
	mov	ecx, OFFSET __0D019051_xstring
	call	@__CheckForDebuggerJustMyCode@4

; 2281 : #ifdef __cpp_lib_constexpr_string
; 2282 :         if (_STD is_constant_evaluated()) {
; 2283 :             return true;
; 2284 :         }
; 2285 : #endif // __cpp_lib_constexpr_string
; 2286 :         return _BUF_SIZE <= _Myres;

	mov	eax, DWORD PTR _this$[ebp]
	cmp	DWORD PTR [eax+24], 8
	jb	SHORT $LN3@Large_stri
	mov	DWORD PTR tv66[ebp], 1
	jmp	SHORT $LN4@Large_stri
$LN3@Large_stri:
	mov	DWORD PTR tv66[ebp], 0
$LN4@Large_stri:
	mov	al, BYTE PTR tv66[ebp]

; 2287 :     }

	pop	edi
	pop	esi
	pop	ebx
	add	esp, 208				; 000000d0H
	cmp	ebp, esp
	call	__RTC_CheckEsp
	mov	esp, ebp
	pop	ebp
	ret	0
?_Large_string_engaged@?$_String_val@U?$_Simple_types@_W@std@@@std@@QBE_NXZ ENDP ; std::_String_val<std::_Simple_types<wchar_t> >::_Large_string_engaged
_TEXT	ENDS
; Function compile flags: /Odtp /RTCsu /ZI
; File C:\Program Files (x86)\Microsoft Visual Studio\2019\Community\VC\Tools\MSVC\14.29.30133\include\xstring
;	COMDAT ?_Myptr@?$_String_val@U?$_Simple_types@_W@std@@@std@@QBEPB_WXZ
_TEXT	SEGMENT
__Result$ = -20						; size = 4
_this$ = -8						; size = 4
?_Myptr@?$_String_val@U?$_Simple_types@_W@std@@@std@@QBEPB_WXZ PROC ; std::_String_val<std::_Simple_types<wchar_t> >::_Myptr, COMDAT
; _this$ = ecx

; 2271 :     _CONSTEXPR20_CONTAINER const value_type* _Myptr() const noexcept {

	push	ebp
	mov	ebp, esp
	sub	esp, 216				; 000000d8H
	push	ebx
	push	esi
	push	edi
	push	ecx
	lea	edi, DWORD PTR [ebp-24]
	mov	ecx, 6
	mov	eax, -858993460				; ccccccccH
	rep stosd
	pop	ecx
	mov	DWORD PTR _this$[ebp], ecx
	mov	ecx, OFFSET __0D019051_xstring
	call	@__CheckForDebuggerJustMyCode@4

; 2272 :         const value_type* _Result = _Bx._Buf;

	mov	eax, DWORD PTR _this$[ebp]
	add	eax, 4
	mov	DWORD PTR __Result$[ebp], eax

; 2273 :         if (_Large_string_engaged()) {

	mov	ecx, DWORD PTR _this$[ebp]
	call	?_Large_string_engaged@?$_String_val@U?$_Simple_types@_W@std@@@std@@QBE_NXZ ; std::_String_val<std::_Simple_types<wchar_t> >::_Large_string_engaged
	movzx	eax, al
	test	eax, eax
	je	SHORT $LN2@Myptr

; 2274 :             _Result = _Unfancy(_Bx._Ptr);

	mov	eax, DWORD PTR _this$[ebp]
	mov	ecx, DWORD PTR [eax+4]
	push	ecx
	call	??$_Unfancy@_W@std@@YAPA_WPA_W@Z	; std::_Unfancy<wchar_t>
	add	esp, 4
	mov	DWORD PTR __Result$[ebp], eax
$LN2@Myptr:

; 2275 :         }
; 2276 : 
; 2277 :         return _Result;

	mov	eax, DWORD PTR __Result$[ebp]

; 2278 :     }

	pop	edi
	pop	esi
	pop	ebx
	add	esp, 216				; 000000d8H
	cmp	ebp, esp
	call	__RTC_CheckEsp
	mov	esp, ebp
	pop	ebp
	ret	0
?_Myptr@?$_String_val@U?$_Simple_types@_W@std@@@std@@QBEPB_WXZ ENDP ; std::_String_val<std::_Simple_types<wchar_t> >::_Myptr
_TEXT	ENDS
; Function compile flags: /Odtp /RTCsu /ZI
; File C:\Program Files (x86)\Microsoft Visual Studio\2019\Community\VC\Tools\MSVC\14.29.30133\include\xstring
;	COMDAT ?_Myptr@?$_String_val@U?$_Simple_types@_W@std@@@std@@QAEPA_WXZ
_TEXT	SEGMENT
__Result$ = -20						; size = 4
_this$ = -8						; size = 4
?_Myptr@?$_String_val@U?$_Simple_types@_W@std@@@std@@QAEPA_WXZ PROC ; std::_String_val<std::_Simple_types<wchar_t> >::_Myptr, COMDAT
; _this$ = ecx

; 2262 :     _CONSTEXPR20_CONTAINER value_type* _Myptr() noexcept {

	push	ebp
	mov	ebp, esp
	sub	esp, 216				; 000000d8H
	push	ebx
	push	esi
	push	edi
	push	ecx
	lea	edi, DWORD PTR [ebp-24]
	mov	ecx, 6
	mov	eax, -858993460				; ccccccccH
	rep stosd
	pop	ecx
	mov	DWORD PTR _this$[ebp], ecx
	mov	ecx, OFFSET __0D019051_xstring
	call	@__CheckForDebuggerJustMyCode@4

; 2263 :         value_type* _Result = _Bx._Buf;

	mov	eax, DWORD PTR _this$[ebp]
	add	eax, 4
	mov	DWORD PTR __Result$[ebp], eax

; 2264 :         if (_Large_string_engaged()) {

	mov	ecx, DWORD PTR _this$[ebp]
	call	?_Large_string_engaged@?$_String_val@U?$_Simple_types@_W@std@@@std@@QBE_NXZ ; std::_String_val<std::_Simple_types<wchar_t> >::_Large_string_engaged
	movzx	eax, al
	test	eax, eax
	je	SHORT $LN2@Myptr

; 2265 :             _Result = _Unfancy(_Bx._Ptr);

	mov	eax, DWORD PTR _this$[ebp]
	mov	ecx, DWORD PTR [eax+4]
	push	ecx
	call	??$_Unfancy@_W@std@@YAPA_WPA_W@Z	; std::_Unfancy<wchar_t>
	add	esp, 4
	mov	DWORD PTR __Result$[ebp], eax
$LN2@Myptr:

; 2266 :         }
; 2267 : 
; 2268 :         return _Result;

	mov	eax, DWORD PTR __Result$[ebp]

; 2269 :     }

	pop	edi
	pop	esi
	pop	ebx
	add	esp, 216				; 000000d8H
	cmp	ebp, esp
	call	__RTC_CheckEsp
	mov	esp, ebp
	pop	ebp
	ret	0
?_Myptr@?$_String_val@U?$_Simple_types@_W@std@@@std@@QAEPA_WXZ ENDP ; std::_String_val<std::_Simple_types<wchar_t> >::_Myptr
_TEXT	ENDS
; Function compile flags: /Odtp /RTCsu /ZI
; File C:\Program Files (x86)\Microsoft Visual Studio\2019\Community\VC\Tools\MSVC\14.29.30133\include\xstring
;	COMDAT ??0?$_String_val@U?$_Simple_types@_W@std@@@std@@QAE@XZ
_TEXT	SEGMENT
_this$ = -8						; size = 4
??0?$_String_val@U?$_Simple_types@_W@std@@@std@@QAE@XZ PROC ; std::_String_val<std::_Simple_types<wchar_t> >::_String_val<std::_Simple_types<wchar_t> >, COMDAT
; _this$ = ecx

; 2251 :     _CONSTEXPR20_CONTAINER _String_val() noexcept : _Bx() {}

	push	ebp
	mov	ebp, esp
	sub	esp, 204				; 000000ccH
	push	ebx
	push	esi
	push	edi
	push	ecx
	lea	edi, DWORD PTR [ebp-12]
	mov	ecx, 3
	mov	eax, -858993460				; ccccccccH
	rep stosd
	pop	ecx
	mov	DWORD PTR _this$[ebp], ecx
	mov	ecx, OFFSET __0D019051_xstring
	call	@__CheckForDebuggerJustMyCode@4
	mov	ecx, DWORD PTR _this$[ebp]
	call	??0_Container_base12@std@@QAE@XZ	; std::_Container_base12::_Container_base12
	mov	ecx, DWORD PTR _this$[ebp]
	add	ecx, 4
	call	??0_Bxty@?$_String_val@U?$_Simple_types@_W@std@@@std@@QAE@XZ ; std::_String_val<std::_Simple_types<wchar_t> >::_Bxty::_Bxty

; 2252 : 
; 2253 :     // length of internal buffer, [1, 16]:
; 2254 :     static constexpr size_type _BUF_SIZE = 16 / sizeof(value_type) < 1 ? 1 : 16 / sizeof(value_type);
; 2255 :     // roundup mask for allocated buffers, [0, 15]:
; 2256 :     static constexpr size_type _ALLOC_MASK = sizeof(value_type) <= 1 ? 15
; 2257 :                                            : sizeof(value_type) <= 2 ? 7
; 2258 :                                            : sizeof(value_type) <= 4 ? 3
; 2259 :                                            : sizeof(value_type) <= 8 ? 1
; 2260 :                                                                      : 0;
; 2261 : 
; 2262 :     _CONSTEXPR20_CONTAINER value_type* _Myptr() noexcept {
; 2263 :         value_type* _Result = _Bx._Buf;
; 2264 :         if (_Large_string_engaged()) {
; 2265 :             _Result = _Unfancy(_Bx._Ptr);
; 2266 :         }
; 2267 : 
; 2268 :         return _Result;
; 2269 :     }
; 2270 : 
; 2271 :     _CONSTEXPR20_CONTAINER const value_type* _Myptr() const noexcept {
; 2272 :         const value_type* _Result = _Bx._Buf;
; 2273 :         if (_Large_string_engaged()) {
; 2274 :             _Result = _Unfancy(_Bx._Ptr);
; 2275 :         }
; 2276 : 
; 2277 :         return _Result;
; 2278 :     }
; 2279 : 
; 2280 :     _CONSTEXPR20_CONTAINER bool _Large_string_engaged() const noexcept {
; 2281 : #ifdef __cpp_lib_constexpr_string
; 2282 :         if (_STD is_constant_evaluated()) {
; 2283 :             return true;
; 2284 :         }
; 2285 : #endif // __cpp_lib_constexpr_string
; 2286 :         return _BUF_SIZE <= _Myres;
; 2287 :     }
; 2288 : 
; 2289 :     _CONSTEXPR20_CONTAINER void _Check_offset(const size_type _Off) const {
; 2290 :         // checks whether _Off is in the bounds of [0, size()]
; 2291 :         if (_Mysize < _Off) {
; 2292 :             _Xran();
; 2293 :         }
; 2294 :     }
; 2295 : 
; 2296 :     _CONSTEXPR20_CONTAINER void _Check_offset_exclusive(const size_type _Off) const {
; 2297 :         // checks whether _Off is in the bounds of [0, size())
; 2298 :         if (_Mysize <= _Off) {
; 2299 :             _Xran();
; 2300 :         }
; 2301 :     }
; 2302 : 
; 2303 :     [[noreturn]] static void _Xran() {
; 2304 :         _Xout_of_range("invalid string position");
; 2305 :     }
; 2306 : 
; 2307 :     _CONSTEXPR20_CONTAINER size_type _Clamp_suffix_size(const size_type _Off, const size_type _Size) const noexcept {
; 2308 :         // trims _Size to the longest it can be assuming a string at/after _Off
; 2309 :         return (_STD min)(_Size, _Mysize - _Off);
; 2310 :     }
; 2311 : 
; 2312 :     union _Bxty { // storage for small buffer or pointer to larger one
; 2313 :         _CONSTEXPR20_CONTAINER _Bxty() noexcept : _Ptr() {} // user-provided, for fancy pointers
; 2314 : 
; 2315 :         _CONSTEXPR20_CONTAINER ~_Bxty() noexcept {} // user-provided, for fancy pointers
; 2316 : 
; 2317 :         value_type _Buf[_BUF_SIZE];
; 2318 :         pointer _Ptr;
; 2319 :         char _Alias[_BUF_SIZE]; // TRANSITION, ABI: _Alias is preserved for binary compatibility (especially /clr)
; 2320 :     } _Bx;
; 2321 : 
; 2322 :     size_type _Mysize = 0; // current length of string

	mov	eax, DWORD PTR _this$[ebp]
	mov	DWORD PTR [eax+20], 0

; 2323 :     size_type _Myres  = 0; // current storage reserved for string

	mov	eax, DWORD PTR _this$[ebp]
	mov	DWORD PTR [eax+24], 0

; 2251 :     _CONSTEXPR20_CONTAINER _String_val() noexcept : _Bx() {}

	mov	eax, DWORD PTR _this$[ebp]
	pop	edi
	pop	esi
	pop	ebx
	add	esp, 204				; 000000ccH
	cmp	ebp, esp
	call	__RTC_CheckEsp
	mov	esp, ebp
	pop	ebp
	ret	0
??0?$_String_val@U?$_Simple_types@_W@std@@@std@@QAE@XZ ENDP ; std::_String_val<std::_Simple_types<wchar_t> >::_String_val<std::_Simple_types<wchar_t> >
_TEXT	ENDS
; Function compile flags: /Odtp /RTCsu /ZI
; File C:\Program Files (x86)\Microsoft Visual Studio\2019\Community\VC\Tools\MSVC\14.29.30133\include\xmemory
;	COMDAT ?max_size@?$_Default_allocator_traits@V?$allocator@_W@std@@@std@@SAIABV?$allocator@_W@2@@Z
_TEXT	SEGMENT
___formal$ = 8						; size = 4
?max_size@?$_Default_allocator_traits@V?$allocator@_W@std@@@std@@SAIABV?$allocator@_W@2@@Z PROC ; std::_Default_allocator_traits<std::allocator<wchar_t> >::max_size, COMDAT

; 694  :     _NODISCARD static _CONSTEXPR20_DYNALLOC size_type max_size(const _Alloc&) noexcept {

	push	ebp
	mov	ebp, esp
	sub	esp, 192				; 000000c0H
	push	ebx
	push	esi
	push	edi
	mov	edi, ebp
	xor	ecx, ecx
	mov	eax, -858993460				; ccccccccH
	rep stosd
	mov	ecx, OFFSET __79D216CD_xmemory
	call	@__CheckForDebuggerJustMyCode@4

; 695  :         return static_cast<size_t>(-1) / sizeof(value_type);

	mov	eax, 2147483647				; 7fffffffH

; 696  :     }

	pop	edi
	pop	esi
	pop	ebx
	add	esp, 192				; 000000c0H
	cmp	ebp, esp
	call	__RTC_CheckEsp
	mov	esp, ebp
	pop	ebp
	ret	0
?max_size@?$_Default_allocator_traits@V?$allocator@_W@std@@@std@@SAIABV?$allocator@_W@2@@Z ENDP ; std::_Default_allocator_traits<std::allocator<wchar_t> >::max_size
_TEXT	ENDS
; Function compile flags: /Odtp /RTCsu /ZI
; File C:\Program Files (x86)\Microsoft Visual Studio\2019\Community\VC\Tools\MSVC\14.29.30133\include\xmemory
;	COMDAT ?allocate@?$allocator@_W@std@@QAEPA_WI@Z
_TEXT	SEGMENT
_this$ = -8						; size = 4
__Count$ = 8						; size = 4
?allocate@?$allocator@_W@std@@QAEPA_WI@Z PROC		; std::allocator<wchar_t>::allocate, COMDAT
; _this$ = ecx

; 800  :     _NODISCARD _CONSTEXPR20_DYNALLOC __declspec(allocator) _Ty* allocate(_CRT_GUARDOVERFLOW const size_t _Count) {

	push	ebp
	mov	ebp, esp
	sub	esp, 204				; 000000ccH
	push	ebx
	push	esi
	push	edi
	push	ecx
	lea	edi, DWORD PTR [ebp-12]
	mov	ecx, 3
	mov	eax, -858993460				; ccccccccH
	rep stosd
	pop	ecx
	mov	DWORD PTR _this$[ebp], ecx
	mov	ecx, OFFSET __79D216CD_xmemory
	call	@__CheckForDebuggerJustMyCode@4

; 801  :         return static_cast<_Ty*>(_Allocate<_New_alignof<_Ty>>(_Get_size_of_n<sizeof(_Ty)>(_Count)));

	mov	eax, DWORD PTR __Count$[ebp]
	push	eax
	call	??$_Get_size_of_n@$01@std@@YAII@Z	; std::_Get_size_of_n<2>
	add	esp, 4
	push	eax
	call	??$_Allocate@$07U_Default_allocate_traits@std@@$0A@@std@@YAPAXI@Z ; std::_Allocate<8,std::_Default_allocate_traits,0>
	add	esp, 4

; 802  :     }

	pop	edi
	pop	esi
	pop	ebx
	add	esp, 204				; 000000ccH
	cmp	ebp, esp
	call	__RTC_CheckEsp
	mov	esp, ebp
	pop	ebp
	ret	4
?allocate@?$allocator@_W@std@@QAEPA_WI@Z ENDP		; std::allocator<wchar_t>::allocate
_TEXT	ENDS
; Function compile flags: /Odtp /RTCsu /ZI
; File C:\Program Files (x86)\Microsoft Visual Studio\2019\Community\VC\Tools\MSVC\14.29.30133\include\xmemory
;	COMDAT ?deallocate@?$allocator@_W@std@@QAEXQA_WI@Z
_TEXT	SEGMENT
_this$ = -8						; size = 4
__Ptr$ = 8						; size = 4
__Count$ = 12						; size = 4
?deallocate@?$allocator@_W@std@@QAEXQA_WI@Z PROC	; std::allocator<wchar_t>::deallocate, COMDAT
; _this$ = ecx

; 795  :     _CONSTEXPR20_DYNALLOC void deallocate(_Ty* const _Ptr, const size_t _Count) {

	push	ebp
	mov	ebp, esp
	sub	esp, 204				; 000000ccH
	push	ebx
	push	esi
	push	edi
	push	ecx
	lea	edi, DWORD PTR [ebp-12]
	mov	ecx, 3
	mov	eax, -858993460				; ccccccccH
	rep stosd
	pop	ecx
	mov	DWORD PTR _this$[ebp], ecx
	mov	ecx, OFFSET __79D216CD_xmemory
	call	@__CheckForDebuggerJustMyCode@4

; 796  :         // no overflow check on the following multiply; we assume _Allocate did that check
; 797  :         _Deallocate<_New_alignof<_Ty>>(_Ptr, sizeof(_Ty) * _Count);

	mov	eax, DWORD PTR __Count$[ebp]
	shl	eax, 1
	push	eax
	mov	ecx, DWORD PTR __Ptr$[ebp]
	push	ecx
	call	??$_Deallocate@$07$0A@@std@@YAXPAXI@Z	; std::_Deallocate<8,0>
	add	esp, 8

; 798  :     }

	pop	edi
	pop	esi
	pop	ebx
	add	esp, 204				; 000000ccH
	cmp	ebp, esp
	call	__RTC_CheckEsp
	mov	esp, ebp
	pop	ebp
	ret	8
?deallocate@?$allocator@_W@std@@QAEXQA_WI@Z ENDP	; std::allocator<wchar_t>::deallocate
_TEXT	ENDS
; Function compile flags: /Odtp /RTCsu /ZI
; File C:\Program Files (x86)\Microsoft Visual Studio\2019\Community\VC\Tools\MSVC\14.29.30133\include\xmemory
;	COMDAT ??0?$allocator@_W@std@@QAE@XZ
_TEXT	SEGMENT
_this$ = -8						; size = 4
??0?$allocator@_W@std@@QAE@XZ PROC			; std::allocator<wchar_t>::allocator<wchar_t>, COMDAT
; _this$ = ecx

; 787  :     constexpr allocator() noexcept {}

	push	ebp
	mov	ebp, esp
	sub	esp, 204				; 000000ccH
	push	ebx
	push	esi
	push	edi
	push	ecx
	lea	edi, DWORD PTR [ebp-12]
	mov	ecx, 3
	mov	eax, -858993460				; ccccccccH
	rep stosd
	pop	ecx
	mov	DWORD PTR _this$[ebp], ecx
	mov	ecx, OFFSET __79D216CD_xmemory
	call	@__CheckForDebuggerJustMyCode@4
	mov	eax, DWORD PTR _this$[ebp]
	pop	edi
	pop	esi
	pop	ebx
	add	esp, 204				; 000000ccH
	cmp	ebp, esp
	call	__RTC_CheckEsp
	mov	esp, ebp
	pop	ebp
	ret	0
??0?$allocator@_W@std@@QAE@XZ ENDP			; std::allocator<wchar_t>::allocator<wchar_t>
_TEXT	ENDS
; Function compile flags: /Odtp /RTCsu /ZI
; File C:\Program Files (x86)\Microsoft Visual Studio\2019\Community\VC\Tools\MSVC\14.29.30133\include\xstring
;	COMDAT ??__Ks@string_literals@literals@std@@YA?AV?$basic_string@_WU?$char_traits@_W@std@@V?$allocator@_W@2@@3@PB_WI@Z
_TEXT	SEGMENT
$T1 = -200						; size = 4
___$ReturnUdt$ = 8					; size = 4
__Str$ = 12						; size = 4
__Len$ = 16						; size = 4
??__Ks@string_literals@literals@std@@YA?AV?$basic_string@_WU?$char_traits@_W@std@@V?$allocator@_W@2@@3@PB_WI@Z PROC ; std::literals::string_literals::operator "" s, COMDAT

; 4963 :         _NODISCARD _CONSTEXPR20_STRING_LITERALS wstring operator"" s(const wchar_t* _Str, size_t _Len) {

	push	ebp
	mov	ebp, esp
	sub	esp, 204				; 000000ccH
	push	ebx
	push	esi
	push	edi
	lea	edi, DWORD PTR [ebp-12]
	mov	ecx, 3
	mov	eax, -858993460				; ccccccccH
	rep stosd
	mov	DWORD PTR $T1[ebp], 0
	mov	ecx, OFFSET __0D019051_xstring
	call	@__CheckForDebuggerJustMyCode@4

; 4964 :             return wstring(_Str, _Len);

	mov	eax, DWORD PTR __Len$[ebp]
	push	eax
	mov	ecx, DWORD PTR __Str$[ebp]
	push	ecx
	mov	ecx, DWORD PTR ___$ReturnUdt$[ebp]
	call	??0?$basic_string@_WU?$char_traits@_W@std@@V?$allocator@_W@2@@std@@QAE@QB_WI@Z ; std::basic_string<wchar_t,std::char_traits<wchar_t>,std::allocator<wchar_t> >::basic_string<wchar_t,std::char_traits<wchar_t>,std::allocator<wchar_t> >
	mov	edx, DWORD PTR $T1[ebp]
	or	edx, 1
	mov	DWORD PTR $T1[ebp], edx
	mov	eax, DWORD PTR ___$ReturnUdt$[ebp]

; 4965 :         }

	pop	edi
	pop	esi
	pop	ebx
	add	esp, 204				; 000000ccH
	cmp	ebp, esp
	call	__RTC_CheckEsp
	mov	esp, ebp
	pop	ebp
	ret	0
??__Ks@string_literals@literals@std@@YA?AV?$basic_string@_WU?$char_traits@_W@std@@V?$allocator@_W@2@@3@PB_WI@Z ENDP ; std::literals::string_literals::operator "" s
_TEXT	ENDS
; Function compile flags: /Odtp /RTCsu /ZI
;	COMDAT ??1?$_Compressed_pair@V?$allocator@D@std@@V?$_String_val@U?$_Simple_types@D@std@@@2@$00@std@@QAE@XZ
_TEXT	SEGMENT
_this$ = -8						; size = 4
??1?$_Compressed_pair@V?$allocator@D@std@@V?$_String_val@U?$_Simple_types@D@std@@@2@$00@std@@QAE@XZ PROC ; std::_Compressed_pair<std::allocator<char>,std::_String_val<std::_Simple_types<char> >,1>::~_Compressed_pair<std::allocator<char>,std::_String_val<std::_Simple_types<char> >,1>, COMDAT
; _this$ = ecx
	push	ebp
	mov	ebp, esp
	sub	esp, 204				; 000000ccH
	push	ebx
	push	esi
	push	edi
	push	ecx
	lea	edi, DWORD PTR [ebp-12]
	mov	ecx, 3
	mov	eax, -858993460				; ccccccccH
	rep stosd
	pop	ecx
	mov	DWORD PTR _this$[ebp], ecx
	mov	ecx, DWORD PTR _this$[ebp]
	call	??1?$_String_val@U?$_Simple_types@D@std@@@std@@QAE@XZ
	pop	edi
	pop	esi
	pop	ebx
	add	esp, 204				; 000000ccH
	cmp	ebp, esp
	call	__RTC_CheckEsp
	mov	esp, ebp
	pop	ebp
	ret	0
??1?$_Compressed_pair@V?$allocator@D@std@@V?$_String_val@U?$_Simple_types@D@std@@@2@$00@std@@QAE@XZ ENDP ; std::_Compressed_pair<std::allocator<char>,std::_String_val<std::_Simple_types<char> >,1>::~_Compressed_pair<std::allocator<char>,std::_String_val<std::_Simple_types<char> >,1>
_TEXT	ENDS
; Function compile flags: /Odtp /RTCsu /ZI
; File C:\Program Files (x86)\Microsoft Visual Studio\2019\Community\VC\Tools\MSVC\14.29.30133\include\xmemory
;	COMDAT ?_Get_first@?$_Compressed_pair@V?$allocator@D@std@@V?$_String_val@U?$_Simple_types@D@std@@@2@$00@std@@QBEABV?$allocator@D@2@XZ
_TEXT	SEGMENT
_this$ = -8						; size = 4
?_Get_first@?$_Compressed_pair@V?$allocator@D@std@@V?$_String_val@U?$_Simple_types@D@std@@@2@$00@std@@QBEABV?$allocator@D@2@XZ PROC ; std::_Compressed_pair<std::allocator<char>,std::_String_val<std::_Simple_types<char> >,1>::_Get_first, COMDAT
; _this$ = ecx

; 1342 :     constexpr const _Ty1& _Get_first() const noexcept {

	push	ebp
	mov	ebp, esp
	sub	esp, 204				; 000000ccH
	push	ebx
	push	esi
	push	edi
	push	ecx
	lea	edi, DWORD PTR [ebp-12]
	mov	ecx, 3
	mov	eax, -858993460				; ccccccccH
	rep stosd
	pop	ecx
	mov	DWORD PTR _this$[ebp], ecx
	mov	ecx, OFFSET __79D216CD_xmemory
	call	@__CheckForDebuggerJustMyCode@4

; 1343 :         return *this;

	mov	eax, DWORD PTR _this$[ebp]

; 1344 :     }

	pop	edi
	pop	esi
	pop	ebx
	add	esp, 204				; 000000ccH
	cmp	ebp, esp
	call	__RTC_CheckEsp
	mov	esp, ebp
	pop	ebp
	ret	0
?_Get_first@?$_Compressed_pair@V?$allocator@D@std@@V?$_String_val@U?$_Simple_types@D@std@@@2@$00@std@@QBEABV?$allocator@D@2@XZ ENDP ; std::_Compressed_pair<std::allocator<char>,std::_String_val<std::_Simple_types<char> >,1>::_Get_first
_TEXT	ENDS
; Function compile flags: /Odtp /RTCsu /ZI
; File C:\Program Files (x86)\Microsoft Visual Studio\2019\Community\VC\Tools\MSVC\14.29.30133\include\xmemory
;	COMDAT ?_Get_first@?$_Compressed_pair@V?$allocator@D@std@@V?$_String_val@U?$_Simple_types@D@std@@@2@$00@std@@QAEAAV?$allocator@D@2@XZ
_TEXT	SEGMENT
_this$ = -8						; size = 4
?_Get_first@?$_Compressed_pair@V?$allocator@D@std@@V?$_String_val@U?$_Simple_types@D@std@@@2@$00@std@@QAEAAV?$allocator@D@2@XZ PROC ; std::_Compressed_pair<std::allocator<char>,std::_String_val<std::_Simple_types<char> >,1>::_Get_first, COMDAT
; _this$ = ecx

; 1338 :     constexpr _Ty1& _Get_first() noexcept {

	push	ebp
	mov	ebp, esp
	sub	esp, 204				; 000000ccH
	push	ebx
	push	esi
	push	edi
	push	ecx
	lea	edi, DWORD PTR [ebp-12]
	mov	ecx, 3
	mov	eax, -858993460				; ccccccccH
	rep stosd
	pop	ecx
	mov	DWORD PTR _this$[ebp], ecx
	mov	ecx, OFFSET __79D216CD_xmemory
	call	@__CheckForDebuggerJustMyCode@4

; 1339 :         return *this;

	mov	eax, DWORD PTR _this$[ebp]

; 1340 :     }

	pop	edi
	pop	esi
	pop	ebx
	add	esp, 204				; 000000ccH
	cmp	ebp, esp
	call	__RTC_CheckEsp
	mov	esp, ebp
	pop	ebp
	ret	0
?_Get_first@?$_Compressed_pair@V?$allocator@D@std@@V?$_String_val@U?$_Simple_types@D@std@@@2@$00@std@@QAEAAV?$allocator@D@2@XZ ENDP ; std::_Compressed_pair<std::allocator<char>,std::_String_val<std::_Simple_types<char> >,1>::_Get_first
_TEXT	ENDS
; Function compile flags: /Odtp /RTCsu /ZI
; File C:\Program Files (x86)\Microsoft Visual Studio\2019\Community\VC\Tools\MSVC\14.29.30133\include\xstring
;	COMDAT ?_Getal@?$basic_string@DU?$char_traits@D@std@@V?$allocator@D@2@@std@@ABEABV?$allocator@D@2@XZ
_TEXT	SEGMENT
_this$ = -8						; size = 4
?_Getal@?$basic_string@DU?$char_traits@D@std@@V?$allocator@D@2@@std@@ABEABV?$allocator@D@2@XZ PROC ; std::basic_string<char,std::char_traits<char>,std::allocator<char> >::_Getal, COMDAT
; _this$ = ecx

; 4620 :     _CONSTEXPR20_CONTAINER const _Alty& _Getal() const noexcept {

	push	ebp
	mov	ebp, esp
	sub	esp, 204				; 000000ccH
	push	ebx
	push	esi
	push	edi
	push	ecx
	lea	edi, DWORD PTR [ebp-12]
	mov	ecx, 3
	mov	eax, -858993460				; ccccccccH
	rep stosd
	pop	ecx
	mov	DWORD PTR _this$[ebp], ecx
	mov	ecx, OFFSET __0D019051_xstring
	call	@__CheckForDebuggerJustMyCode@4

; 4621 :         return _Mypair._Get_first();

	mov	ecx, DWORD PTR _this$[ebp]
	call	?_Get_first@?$_Compressed_pair@V?$allocator@D@std@@V?$_String_val@U?$_Simple_types@D@std@@@2@$00@std@@QBEABV?$allocator@D@2@XZ ; std::_Compressed_pair<std::allocator<char>,std::_String_val<std::_Simple_types<char> >,1>::_Get_first

; 4622 :     }

	pop	edi
	pop	esi
	pop	ebx
	add	esp, 204				; 000000ccH
	cmp	ebp, esp
	call	__RTC_CheckEsp
	mov	esp, ebp
	pop	ebp
	ret	0
?_Getal@?$basic_string@DU?$char_traits@D@std@@V?$allocator@D@2@@std@@ABEABV?$allocator@D@2@XZ ENDP ; std::basic_string<char,std::char_traits<char>,std::allocator<char> >::_Getal
_TEXT	ENDS
; Function compile flags: /Odtp /RTCsu /ZI
; File C:\Program Files (x86)\Microsoft Visual Studio\2019\Community\VC\Tools\MSVC\14.29.30133\include\xstring
;	COMDAT ?_Getal@?$basic_string@DU?$char_traits@D@std@@V?$allocator@D@2@@std@@AAEAAV?$allocator@D@2@XZ
_TEXT	SEGMENT
_this$ = -8						; size = 4
?_Getal@?$basic_string@DU?$char_traits@D@std@@V?$allocator@D@2@@std@@AAEAAV?$allocator@D@2@XZ PROC ; std::basic_string<char,std::char_traits<char>,std::allocator<char> >::_Getal, COMDAT
; _this$ = ecx

; 4616 :     _CONSTEXPR20_CONTAINER _Alty& _Getal() noexcept {

	push	ebp
	mov	ebp, esp
	sub	esp, 204				; 000000ccH
	push	ebx
	push	esi
	push	edi
	push	ecx
	lea	edi, DWORD PTR [ebp-12]
	mov	ecx, 3
	mov	eax, -858993460				; ccccccccH
	rep stosd
	pop	ecx
	mov	DWORD PTR _this$[ebp], ecx
	mov	ecx, OFFSET __0D019051_xstring
	call	@__CheckForDebuggerJustMyCode@4

; 4617 :         return _Mypair._Get_first();

	mov	ecx, DWORD PTR _this$[ebp]
	call	?_Get_first@?$_Compressed_pair@V?$allocator@D@std@@V?$_String_val@U?$_Simple_types@D@std@@@2@$00@std@@QAEAAV?$allocator@D@2@XZ ; std::_Compressed_pair<std::allocator<char>,std::_String_val<std::_Simple_types<char> >,1>::_Get_first

; 4618 :     }

	pop	edi
	pop	esi
	pop	ebx
	add	esp, 204				; 000000ccH
	cmp	ebp, esp
	call	__RTC_CheckEsp
	mov	esp, ebp
	pop	ebp
	ret	0
?_Getal@?$basic_string@DU?$char_traits@D@std@@V?$allocator@D@2@@std@@AAEAAV?$allocator@D@2@XZ ENDP ; std::basic_string<char,std::char_traits<char>,std::allocator<char> >::_Getal
_TEXT	ENDS
; Function compile flags: /Odtp /RTCsu /ZI
; File C:\Program Files (x86)\Microsoft Visual Studio\2019\Community\VC\Tools\MSVC\14.29.30133\include\xstring
;	COMDAT ?_Swap_proxy_and_iterators@?$basic_string@DU?$char_traits@D@std@@V?$allocator@D@2@@std@@AAEXAAV12@@Z
_TEXT	SEGMENT
_this$ = -8						; size = 4
__Right$ = 8						; size = 4
?_Swap_proxy_and_iterators@?$basic_string@DU?$char_traits@D@std@@V?$allocator@D@2@@std@@AAEXAAV12@@Z PROC ; std::basic_string<char,std::char_traits<char>,std::allocator<char> >::_Swap_proxy_and_iterators, COMDAT
; _this$ = ecx

; 4612 :     _CONSTEXPR20_CONTAINER void _Swap_proxy_and_iterators(basic_string& _Right) {

	push	ebp
	mov	ebp, esp
	sub	esp, 204				; 000000ccH
	push	ebx
	push	esi
	push	edi
	push	ecx
	lea	edi, DWORD PTR [ebp-12]
	mov	ecx, 3
	mov	eax, -858993460				; ccccccccH
	rep stosd
	pop	ecx
	mov	DWORD PTR _this$[ebp], ecx
	mov	ecx, OFFSET __0D019051_xstring
	call	@__CheckForDebuggerJustMyCode@4

; 4613 :         _Mypair._Myval2._Swap_proxy_and_iterators(_Right._Mypair._Myval2);

	mov	eax, DWORD PTR __Right$[ebp]
	push	eax
	mov	ecx, DWORD PTR _this$[ebp]
	call	?_Swap_proxy_and_iterators@_Container_base12@std@@QAEXAAU12@@Z ; std::_Container_base12::_Swap_proxy_and_iterators

; 4614 :     }

	pop	edi
	pop	esi
	pop	ebx
	add	esp, 204				; 000000ccH
	cmp	ebp, esp
	call	__RTC_CheckEsp
	mov	esp, ebp
	pop	ebp
	ret	4
?_Swap_proxy_and_iterators@?$basic_string@DU?$char_traits@D@std@@V?$allocator@D@2@@std@@AAEXAAV12@@Z ENDP ; std::basic_string<char,std::char_traits<char>,std::allocator<char> >::_Swap_proxy_and_iterators
_TEXT	ENDS
; Function compile flags: /Odtp /RTCsu /ZI
; File C:\Program Files (x86)\Microsoft Visual Studio\2019\Community\VC\Tools\MSVC\14.29.30133\include\xstring
;	COMDAT ?_Tidy_deallocate@?$basic_string@DU?$char_traits@D@std@@V?$allocator@D@2@@std@@AAEXXZ
_TEXT	SEGMENT
$T2 = -245						; size = 1
__Al$3 = -44						; size = 4
__Ptr$4 = -32						; size = 4
_this$ = -20						; size = 4
__$EHRec$ = -12						; size = 12
?_Tidy_deallocate@?$basic_string@DU?$char_traits@D@std@@V?$allocator@D@2@@std@@AAEXXZ PROC ; std::basic_string<char,std::char_traits<char>,std::allocator<char> >::_Tidy_deallocate, COMDAT
; _this$ = ecx

; 4582 :     _CONSTEXPR20_CONTAINER void _Tidy_deallocate() noexcept { // initialize buffer, deallocating any storage

	push	ebp
	mov	ebp, esp
	push	-1
	push	__ehhandler$?_Tidy_deallocate@?$basic_string@DU?$char_traits@D@std@@V?$allocator@D@2@@std@@AAEXXZ
	mov	eax, DWORD PTR fs:0
	push	eax
	sub	esp, 240				; 000000f0H
	push	ebx
	push	esi
	push	edi
	push	ecx
	lea	edi, DWORD PTR [ebp-60]
	mov	ecx, 12					; 0000000cH
	mov	eax, -858993460				; ccccccccH
	rep stosd
	pop	ecx
	mov	eax, DWORD PTR ___security_cookie
	xor	eax, ebp
	push	eax
	lea	eax, DWORD PTR __$EHRec$[ebp]
	mov	DWORD PTR fs:0, eax
	mov	DWORD PTR _this$[ebp], ecx
	mov	ecx, OFFSET __0D019051_xstring
	call	@__CheckForDebuggerJustMyCode@4

; 4583 :         _Mypair._Myval2._Orphan_all();

	mov	ecx, DWORD PTR _this$[ebp]
	call	?_Orphan_all@_Container_base12@std@@QAEXXZ ; std::_Container_base12::_Orphan_all

; 4584 :         if (_Mypair._Myval2._Large_string_engaged()) {

	mov	ecx, DWORD PTR _this$[ebp]
	call	?_Large_string_engaged@?$_String_val@U?$_Simple_types@D@std@@@std@@QBE_NXZ ; std::_String_val<std::_Simple_types<char> >::_Large_string_engaged
	movzx	eax, al
	test	eax, eax
	je	SHORT $LN2@Tidy_deall

; 4585 :             const pointer _Ptr = _Mypair._Myval2._Bx._Ptr;

	mov	eax, DWORD PTR _this$[ebp]
	mov	ecx, DWORD PTR [eax+4]
	mov	DWORD PTR __Ptr$4[ebp], ecx

; 4586 :             auto& _Al          = _Getal();

	mov	ecx, DWORD PTR _this$[ebp]
	call	?_Getal@?$basic_string@DU?$char_traits@D@std@@V?$allocator@D@2@@std@@AAEAAV?$allocator@D@2@XZ ; std::basic_string<char,std::char_traits<char>,std::allocator<char> >::_Getal
	mov	DWORD PTR __Al$3[ebp], eax

; 4587 :             _Destroy_in_place(_Mypair._Myval2._Bx._Ptr);

	mov	eax, DWORD PTR _this$[ebp]
	add	eax, 4
	push	eax
	call	??$_Destroy_in_place@PAD@std@@YAXAAPAD@Z ; std::_Destroy_in_place<char *>
	add	esp, 4

; 4588 :             _Al.deallocate(_Ptr, _Mypair._Myval2._Myres + 1);

	mov	eax, DWORD PTR _this$[ebp]
	mov	ecx, DWORD PTR [eax+24]
	add	ecx, 1
	push	ecx
	mov	edx, DWORD PTR __Ptr$4[ebp]
	push	edx
	mov	ecx, DWORD PTR __Al$3[ebp]
	call	?deallocate@?$allocator@D@std@@QAEXQADI@Z ; std::allocator<char>::deallocate
$LN2@Tidy_deall:

; 4589 :         }
; 4590 : 
; 4591 : #ifdef __cpp_lib_constexpr_string
; 4592 :         if (_STD is_constant_evaluated()) {
; 4593 :             _Mypair._Myval2._Bx._Ptr = nullptr;
; 4594 :             _Mypair._Myval2._Mysize  = 0;
; 4595 :             _Mypair._Myval2._Myres   = 0;
; 4596 :         } else
; 4597 : #endif // __cpp_lib_constexpr_string
; 4598 :         {
; 4599 :             _Mypair._Myval2._Mysize = 0;

	mov	eax, DWORD PTR _this$[ebp]
	mov	DWORD PTR [eax+20], 0

; 4600 :             _Mypair._Myval2._Myres  = _BUF_SIZE - 1;

	mov	eax, DWORD PTR _this$[ebp]
	mov	DWORD PTR [eax+24], 15			; 0000000fH

; 4601 :             // the _Traits::assign is last so the codegen doesn't think the char write can alias this
; 4602 :             _Traits::assign(_Mypair._Myval2._Bx._Buf[0], _Elem());

	mov	BYTE PTR $T2[ebp], 0
	lea	eax, DWORD PTR $T2[ebp]
	push	eax
	mov	ecx, 1
	imul	edx, ecx, 0
	mov	eax, DWORD PTR _this$[ebp]
	lea	ecx, DWORD PTR [eax+edx+4]
	push	ecx
	call	?assign@?$_Narrow_char_traits@DH@std@@SAXAADABD@Z ; std::_Narrow_char_traits<char,int>::assign
	add	esp, 8

; 4603 :         }
; 4604 :     }

	mov	ecx, DWORD PTR __$EHRec$[ebp]
	mov	DWORD PTR fs:0, ecx
	pop	ecx
	pop	edi
	pop	esi
	pop	ebx
	add	esp, 252				; 000000fcH
	cmp	ebp, esp
	call	__RTC_CheckEsp
	mov	esp, ebp
	pop	ebp
	ret	0
	int	3
	int	3
	int	3
	int	3
	int	3
_TEXT	ENDS
;	COMDAT text$x
text$x	SEGMENT
__ehhandler$?_Tidy_deallocate@?$basic_string@DU?$char_traits@D@std@@V?$allocator@D@2@@std@@AAEXXZ:
	npad	1
	npad	1
	mov	edx, DWORD PTR [esp+8]
	lea	eax, DWORD PTR [edx+12]
	mov	ecx, DWORD PTR [edx-256]
	xor	ecx, eax
	call	@__security_check_cookie@4
	mov	eax, OFFSET __ehfuncinfo$?_Tidy_deallocate@?$basic_string@DU?$char_traits@D@std@@V?$allocator@D@2@@std@@AAEXXZ
	jmp	___CxxFrameHandler3
text$x	ENDS
?_Tidy_deallocate@?$basic_string@DU?$char_traits@D@std@@V?$allocator@D@2@@std@@AAEXXZ ENDP ; std::basic_string<char,std::char_traits<char>,std::allocator<char> >::_Tidy_deallocate
; Function compile flags: /Odtp /RTCsu /ZI
; File C:\Program Files (x86)\Microsoft Visual Studio\2019\Community\VC\Tools\MSVC\14.29.30133\include\xstring
;	COMDAT ?_Tidy_init@?$basic_string@DU?$char_traits@D@std@@V?$allocator@D@2@@std@@AAEXXZ
_TEXT	SEGMENT
$T1 = -221						; size = 1
__My_data$ = -20					; size = 4
_this$ = -8						; size = 4
?_Tidy_init@?$basic_string@DU?$char_traits@D@std@@V?$allocator@D@2@@std@@AAEXXZ PROC ; std::basic_string<char,std::char_traits<char>,std::allocator<char> >::_Tidy_init, COMDAT
; _this$ = ecx

; 4560 :     _CONSTEXPR20_CONTAINER void _Tidy_init() noexcept { // initialize basic_string data members

	push	ebp
	mov	ebp, esp
	sub	esp, 228				; 000000e4H
	push	ebx
	push	esi
	push	edi
	push	ecx
	lea	edi, DWORD PTR [ebp-36]
	mov	ecx, 9
	mov	eax, -858993460				; ccccccccH
	rep stosd
	pop	ecx
	mov	DWORD PTR _this$[ebp], ecx
	mov	ecx, OFFSET __0D019051_xstring
	call	@__CheckForDebuggerJustMyCode@4

; 4561 :         auto& _My_data   = _Mypair._Myval2;

	mov	eax, DWORD PTR _this$[ebp]
	mov	DWORD PTR __My_data$[ebp], eax

; 4562 :         _My_data._Mysize = 0;

	mov	eax, DWORD PTR __My_data$[ebp]
	mov	DWORD PTR [eax+20], 0

; 4563 : 
; 4564 : #ifdef __cpp_lib_constexpr_string
; 4565 :         if (_STD is_constant_evaluated()) {
; 4566 :             _My_data._Myres        = _BUF_SIZE; // SSO disabled in constexpr context
; 4567 :             auto& _Al              = _Getal();
; 4568 :             const pointer _New_ptr = _Al.allocate(_BUF_SIZE + 1); // throws
; 4569 :             _My_data._Bx._Ptr      = _New_ptr;
; 4570 : 
; 4571 :             _Elem* const _Raw_new = _Unfancy(_New_ptr);
; 4572 :             _Traits::assign(_Raw_new, _BUF_SIZE + 1, _Elem());
; 4573 :         } else
; 4574 : #endif // __cpp_lib_constexpr_string
; 4575 :         {
; 4576 :             _My_data._Myres = _BUF_SIZE - 1;

	mov	eax, DWORD PTR __My_data$[ebp]
	mov	DWORD PTR [eax+24], 15			; 0000000fH

; 4577 :             // the _Traits::assign is last so the codegen doesn't think the char write can alias this
; 4578 :             _Traits::assign(_My_data._Bx._Buf[0], _Elem());

	mov	BYTE PTR $T1[ebp], 0
	lea	eax, DWORD PTR $T1[ebp]
	push	eax
	mov	ecx, 1
	imul	edx, ecx, 0
	mov	eax, DWORD PTR __My_data$[ebp]
	lea	ecx, DWORD PTR [eax+edx+4]
	push	ecx
	call	?assign@?$_Narrow_char_traits@DH@std@@SAXAADABD@Z ; std::_Narrow_char_traits<char,int>::assign
	add	esp, 8

; 4579 :         }
; 4580 :     }

	pop	edi
	pop	esi
	pop	ebx
	add	esp, 228				; 000000e4H
	cmp	ebp, esp
	call	__RTC_CheckEsp
	mov	esp, ebp
	pop	ebp
	ret	0
?_Tidy_init@?$basic_string@DU?$char_traits@D@std@@V?$allocator@D@2@@std@@AAEXXZ ENDP ; std::basic_string<char,std::char_traits<char>,std::allocator<char> >::_Tidy_init
_TEXT	ENDS
; Function compile flags: /Odtp /RTCsu /ZI
; File C:\Program Files (x86)\Microsoft Visual Studio\2019\Community\VC\Tools\MSVC\14.29.30133\include\xstring
;	COMDAT ?_Calculate_growth@?$basic_string@DU?$char_traits@D@std@@V?$allocator@D@2@@std@@ABEII@Z
_TEXT	SEGMENT
_this$ = -8						; size = 4
__Requested$ = 8					; size = 4
?_Calculate_growth@?$basic_string@DU?$char_traits@D@std@@V?$allocator@D@2@@std@@ABEII@Z PROC ; std::basic_string<char,std::char_traits<char>,std::allocator<char> >::_Calculate_growth, COMDAT
; _this$ = ecx

; 4466 :     _NODISCARD _CONSTEXPR20_CONTAINER size_type _Calculate_growth(const size_type _Requested) const noexcept {

	push	ebp
	mov	ebp, esp
	sub	esp, 204				; 000000ccH
	push	ebx
	push	esi
	push	edi
	push	ecx
	lea	edi, DWORD PTR [ebp-12]
	mov	ecx, 3
	mov	eax, -858993460				; ccccccccH
	rep stosd
	pop	ecx
	mov	DWORD PTR _this$[ebp], ecx
	mov	ecx, OFFSET __0D019051_xstring
	call	@__CheckForDebuggerJustMyCode@4

; 4467 :         return _Calculate_growth(_Requested, _Mypair._Myval2._Myres, max_size());

	mov	ecx, DWORD PTR _this$[ebp]
	call	?max_size@?$basic_string@DU?$char_traits@D@std@@V?$allocator@D@2@@std@@QBEIXZ ; std::basic_string<char,std::char_traits<char>,std::allocator<char> >::max_size
	push	eax
	mov	eax, DWORD PTR _this$[ebp]
	mov	ecx, DWORD PTR [eax+24]
	push	ecx
	mov	edx, DWORD PTR __Requested$[ebp]
	push	edx
	call	?_Calculate_growth@?$basic_string@DU?$char_traits@D@std@@V?$allocator@D@2@@std@@CAIIII@Z ; std::basic_string<char,std::char_traits<char>,std::allocator<char> >::_Calculate_growth
	add	esp, 12					; 0000000cH

; 4468 :     }

	pop	edi
	pop	esi
	pop	ebx
	add	esp, 204				; 000000ccH
	cmp	ebp, esp
	call	__RTC_CheckEsp
	mov	esp, ebp
	pop	ebp
	ret	4
?_Calculate_growth@?$basic_string@DU?$char_traits@D@std@@V?$allocator@D@2@@std@@ABEII@Z ENDP ; std::basic_string<char,std::char_traits<char>,std::allocator<char> >::_Calculate_growth
_TEXT	ENDS
; Function compile flags: /Odtp /RTCsu /ZI
; File C:\Program Files (x86)\Microsoft Visual Studio\2019\Community\VC\Tools\MSVC\14.29.30133\include\xstring
;	COMDAT ?_Calculate_growth@?$basic_string@DU?$char_traits@D@std@@V?$allocator@D@2@@std@@CAIIII@Z
_TEXT	SEGMENT
$T1 = -216						; size = 4
__Masked$ = -12						; size = 4
__$ArrayPad$ = -4					; size = 4
__Requested$ = 8					; size = 4
__Old$ = 12						; size = 4
__Max$ = 16						; size = 4
?_Calculate_growth@?$basic_string@DU?$char_traits@D@std@@V?$allocator@D@2@@std@@CAIIII@Z PROC ; std::basic_string<char,std::char_traits<char>,std::allocator<char> >::_Calculate_growth, COMDAT

; 4453 :         const size_type _Requested, const size_type _Old, const size_type _Max) noexcept {

	push	ebp
	mov	ebp, esp
	sub	esp, 220				; 000000dcH
	push	ebx
	push	esi
	push	edi
	lea	edi, DWORD PTR [ebp-28]
	mov	ecx, 7
	mov	eax, -858993460				; ccccccccH
	rep stosd
	mov	eax, DWORD PTR ___security_cookie
	xor	eax, ebp
	mov	DWORD PTR __$ArrayPad$[ebp], eax
	mov	ecx, OFFSET __0D019051_xstring
	call	@__CheckForDebuggerJustMyCode@4

; 4454 :         const size_type _Masked = _Requested | _ALLOC_MASK;

	mov	eax, DWORD PTR __Requested$[ebp]
	or	eax, 15					; 0000000fH
	mov	DWORD PTR __Masked$[ebp], eax

; 4455 :         if (_Masked > _Max) { // the mask overflows, settle for max_size()

	mov	eax, DWORD PTR __Masked$[ebp]
	cmp	eax, DWORD PTR __Max$[ebp]
	jbe	SHORT $LN2@Calculate_

; 4456 :             return _Max;

	mov	eax, DWORD PTR __Max$[ebp]
	jmp	SHORT $LN4@Calculate_
$LN2@Calculate_:

; 4457 :         }
; 4458 : 
; 4459 :         if (_Old > _Max - _Old / 2) { // similarly, geometric overflows

	mov	eax, DWORD PTR __Old$[ebp]
	shr	eax, 1
	mov	ecx, DWORD PTR __Max$[ebp]
	sub	ecx, eax
	cmp	DWORD PTR __Old$[ebp], ecx
	jbe	SHORT $LN3@Calculate_

; 4460 :             return _Max;

	mov	eax, DWORD PTR __Max$[ebp]
	jmp	SHORT $LN4@Calculate_
$LN3@Calculate_:

; 4461 :         }
; 4462 : 
; 4463 :         return (_STD max)(_Masked, _Old + _Old / 2);

	mov	eax, DWORD PTR __Old$[ebp]
	shr	eax, 1
	add	eax, DWORD PTR __Old$[ebp]
	mov	DWORD PTR $T1[ebp], eax
	lea	ecx, DWORD PTR $T1[ebp]
	push	ecx
	lea	edx, DWORD PTR __Masked$[ebp]
	push	edx
	call	??$max@I@std@@YAABIABI0@Z		; std::max<unsigned int>
	add	esp, 8
	mov	eax, DWORD PTR [eax]
$LN4@Calculate_:

; 4464 :     }

	push	edx
	mov	ecx, ebp
	push	eax
	lea	edx, DWORD PTR $LN7@Calculate_
	call	@_RTC_CheckStackVars@8
	pop	eax
	pop	edx
	pop	edi
	pop	esi
	pop	ebx
	mov	ecx, DWORD PTR __$ArrayPad$[ebp]
	xor	ecx, ebp
	call	@__security_check_cookie@4
	add	esp, 220				; 000000dcH
	cmp	ebp, esp
	call	__RTC_CheckEsp
	mov	esp, ebp
	pop	ebp
	ret	0
	npad	1
$LN7@Calculate_:
	DD	1
	DD	$LN6@Calculate_
$LN6@Calculate_:
	DD	-12					; fffffff4H
	DD	4
	DD	$LN5@Calculate_
$LN5@Calculate_:
	DB	95					; 0000005fH
	DB	77					; 0000004dH
	DB	97					; 00000061H
	DB	115					; 00000073H
	DB	107					; 0000006bH
	DB	101					; 00000065H
	DB	100					; 00000064H
	DB	0
?_Calculate_growth@?$basic_string@DU?$char_traits@D@std@@V?$allocator@D@2@@std@@CAIIII@Z ENDP ; std::basic_string<char,std::char_traits<char>,std::allocator<char> >::_Calculate_growth
_TEXT	ENDS
; Function compile flags: /Odtp /RTCsu /ZI
; File C:\Program Files (x86)\Microsoft Visual Studio\2019\Community\VC\Tools\MSVC\14.29.30133\include\xstring
;	COMDAT ?max_size@?$basic_string@DU?$char_traits@D@std@@V?$allocator@D@2@@std@@QBEIXZ
_TEXT	SEGMENT
$T1 = -264						; size = 4
$T2 = -252						; size = 4
$T3 = -240						; size = 4
__Storage_max$ = -36					; size = 4
__Alloc_max$ = -24					; size = 4
_this$ = -12						; size = 4
__$ArrayPad$ = -4					; size = 4
?max_size@?$basic_string@DU?$char_traits@D@std@@V?$allocator@D@2@@std@@QBEIXZ PROC ; std::basic_string<char,std::char_traits<char>,std::allocator<char> >::max_size, COMDAT
; _this$ = ecx

; 3909 :     _NODISCARD _CONSTEXPR20_CONTAINER size_type max_size() const noexcept {

	push	ebp
	mov	ebp, esp
	sub	esp, 268				; 0000010cH
	push	ebx
	push	esi
	push	edi
	push	ecx
	lea	edi, DWORD PTR [ebp-76]
	mov	ecx, 19					; 00000013H
	mov	eax, -858993460				; ccccccccH
	rep stosd
	pop	ecx
	mov	eax, DWORD PTR ___security_cookie
	xor	eax, ebp
	mov	DWORD PTR __$ArrayPad$[ebp], eax
	mov	DWORD PTR _this$[ebp], ecx
	mov	ecx, OFFSET __0D019051_xstring
	call	@__CheckForDebuggerJustMyCode@4

; 3910 :         const size_type _Alloc_max   = _Alty_traits::max_size(_Getal());

	mov	ecx, DWORD PTR _this$[ebp]
	call	?_Getal@?$basic_string@DU?$char_traits@D@std@@V?$allocator@D@2@@std@@ABEABV?$allocator@D@2@XZ ; std::basic_string<char,std::char_traits<char>,std::allocator<char> >::_Getal
	push	eax
	call	?max_size@?$_Default_allocator_traits@V?$allocator@D@std@@@std@@SAIABV?$allocator@D@2@@Z ; std::_Default_allocator_traits<std::allocator<char> >::max_size
	add	esp, 4
	mov	DWORD PTR __Alloc_max$[ebp], eax

; 3911 :         const size_type _Storage_max = // can always store small string

	mov	DWORD PTR $T3[ebp], 16			; 00000010H
	lea	eax, DWORD PTR $T3[ebp]
	push	eax
	lea	ecx, DWORD PTR __Alloc_max$[ebp]
	push	ecx
	call	??$max@I@std@@YAABIABI0@Z		; std::max<unsigned int>
	add	esp, 8
	mov	edx, DWORD PTR [eax]
	mov	DWORD PTR __Storage_max$[ebp], edx

; 3912 :             (_STD max)(_Alloc_max, static_cast<size_type>(_BUF_SIZE));
; 3913 :         return (_STD min)(static_cast<size_type>((numeric_limits<difference_type>::max)()),

	mov	eax, DWORD PTR __Storage_max$[ebp]
	sub	eax, 1
	mov	DWORD PTR $T2[ebp], eax
	call	?max@?$numeric_limits@H@std@@SAHXZ	; std::numeric_limits<int>::max
	mov	DWORD PTR $T1[ebp], eax
	lea	ecx, DWORD PTR $T2[ebp]
	push	ecx
	lea	edx, DWORD PTR $T1[ebp]
	push	edx
	call	??$min@I@std@@YAABIABI0@Z		; std::min<unsigned int>
	add	esp, 8
	mov	eax, DWORD PTR [eax]

; 3914 :             _Storage_max - 1 // -1 is for null terminator and/or npos
; 3915 :         );
; 3916 :     }

	push	edx
	mov	ecx, ebp
	push	eax
	lea	edx, DWORD PTR $LN5@max_size
	call	@_RTC_CheckStackVars@8
	pop	eax
	pop	edx
	pop	edi
	pop	esi
	pop	ebx
	mov	ecx, DWORD PTR __$ArrayPad$[ebp]
	xor	ecx, ebp
	call	@__security_check_cookie@4
	add	esp, 268				; 0000010cH
	cmp	ebp, esp
	call	__RTC_CheckEsp
	mov	esp, ebp
	pop	ebp
	ret	0
$LN5@max_size:
	DD	1
	DD	$LN4@max_size
$LN4@max_size:
	DD	-24					; ffffffe8H
	DD	4
	DD	$LN3@max_size
$LN3@max_size:
	DB	95					; 0000005fH
	DB	65					; 00000041H
	DB	108					; 0000006cH
	DB	108					; 0000006cH
	DB	111					; 0000006fH
	DB	99					; 00000063H
	DB	95					; 0000005fH
	DB	109					; 0000006dH
	DB	97					; 00000061H
	DB	120					; 00000078H
	DB	0
?max_size@?$basic_string@DU?$char_traits@D@std@@V?$allocator@D@2@@std@@QBEIXZ ENDP ; std::basic_string<char,std::char_traits<char>,std::allocator<char> >::max_size
_TEXT	ENDS
; Function compile flags: /Odtp /RTCsu /ZI
; File C:\Program Files (x86)\Microsoft Visual Studio\2019\Community\VC\Tools\MSVC\14.29.30133\include\xstring
;	COMDAT ?size@?$basic_string@DU?$char_traits@D@std@@V?$allocator@D@2@@std@@QBEIXZ
_TEXT	SEGMENT
_this$ = -8						; size = 4
?size@?$basic_string@DU?$char_traits@D@std@@V?$allocator@D@2@@std@@QBEIXZ PROC ; std::basic_string<char,std::char_traits<char>,std::allocator<char> >::size, COMDAT
; _this$ = ecx

; 3905 :     _NODISCARD _CONSTEXPR20_CONTAINER size_type size() const noexcept {

	push	ebp
	mov	ebp, esp
	sub	esp, 204				; 000000ccH
	push	ebx
	push	esi
	push	edi
	push	ecx
	lea	edi, DWORD PTR [ebp-12]
	mov	ecx, 3
	mov	eax, -858993460				; ccccccccH
	rep stosd
	pop	ecx
	mov	DWORD PTR _this$[ebp], ecx
	mov	ecx, OFFSET __0D019051_xstring
	call	@__CheckForDebuggerJustMyCode@4

; 3906 :         return _Mypair._Myval2._Mysize;

	mov	eax, DWORD PTR _this$[ebp]
	mov	eax, DWORD PTR [eax+20]

; 3907 :     }

	pop	edi
	pop	esi
	pop	ebx
	add	esp, 204				; 000000ccH
	cmp	ebp, esp
	call	__RTC_CheckEsp
	mov	esp, ebp
	pop	ebp
	ret	0
?size@?$basic_string@DU?$char_traits@D@std@@V?$allocator@D@2@@std@@QBEIXZ ENDP ; std::basic_string<char,std::char_traits<char>,std::allocator<char> >::size
_TEXT	ENDS
; Function compile flags: /Odtp /RTCsu /ZI
; File C:\Program Files (x86)\Microsoft Visual Studio\2019\Community\VC\Tools\MSVC\14.29.30133\include\xstring
;	COMDAT ?data@?$basic_string@DU?$char_traits@D@std@@V?$allocator@D@2@@std@@QBEPBDXZ
_TEXT	SEGMENT
_this$ = -8						; size = 4
?data@?$basic_string@DU?$char_traits@D@std@@V?$allocator@D@2@@std@@QBEPBDXZ PROC ; std::basic_string<char,std::char_traits<char>,std::allocator<char> >::data, COMDAT
; _this$ = ecx

; 3891 :     _NODISCARD _CONSTEXPR20_CONTAINER _Ret_z_ const _Elem* data() const noexcept {

	push	ebp
	mov	ebp, esp
	sub	esp, 204				; 000000ccH
	push	ebx
	push	esi
	push	edi
	push	ecx
	lea	edi, DWORD PTR [ebp-12]
	mov	ecx, 3
	mov	eax, -858993460				; ccccccccH
	rep stosd
	pop	ecx
	mov	DWORD PTR _this$[ebp], ecx
	mov	ecx, OFFSET __0D019051_xstring
	call	@__CheckForDebuggerJustMyCode@4

; 3892 :         return _Mypair._Myval2._Myptr();

	mov	ecx, DWORD PTR _this$[ebp]
	call	?_Myptr@?$_String_val@U?$_Simple_types@D@std@@@std@@QBEPBDXZ ; std::_String_val<std::_Simple_types<char> >::_Myptr

; 3893 :     }

	pop	edi
	pop	esi
	pop	ebx
	add	esp, 204				; 000000ccH
	cmp	ebp, esp
	call	__RTC_CheckEsp
	mov	esp, ebp
	pop	ebp
	ret	0
?data@?$basic_string@DU?$char_traits@D@std@@V?$allocator@D@2@@std@@QBEPBDXZ ENDP ; std::basic_string<char,std::char_traits<char>,std::allocator<char> >::data
_TEXT	ENDS
; Function compile flags: /Odtp /RTCsu /ZI
; File C:\Program Files (x86)\Microsoft Visual Studio\2019\Community\VC\Tools\MSVC\14.29.30133\include\xstring
;	COMDAT ?c_str@?$basic_string@DU?$char_traits@D@std@@V?$allocator@D@2@@std@@QBEPBDXZ
_TEXT	SEGMENT
_this$ = -8						; size = 4
?c_str@?$basic_string@DU?$char_traits@D@std@@V?$allocator@D@2@@std@@QBEPBDXZ PROC ; std::basic_string<char,std::char_traits<char>,std::allocator<char> >::c_str, COMDAT
; _this$ = ecx

; 3887 :     _NODISCARD _CONSTEXPR20_CONTAINER _Ret_z_ const _Elem* c_str() const noexcept {

	push	ebp
	mov	ebp, esp
	sub	esp, 204				; 000000ccH
	push	ebx
	push	esi
	push	edi
	push	ecx
	lea	edi, DWORD PTR [ebp-12]
	mov	ecx, 3
	mov	eax, -858993460				; ccccccccH
	rep stosd
	pop	ecx
	mov	DWORD PTR _this$[ebp], ecx
	mov	ecx, OFFSET __0D019051_xstring
	call	@__CheckForDebuggerJustMyCode@4

; 3888 :         return _Mypair._Myval2._Myptr();

	mov	ecx, DWORD PTR _this$[ebp]
	call	?_Myptr@?$_String_val@U?$_Simple_types@D@std@@@std@@QBEPBDXZ ; std::_String_val<std::_Simple_types<char> >::_Myptr

; 3889 :     }

	pop	edi
	pop	esi
	pop	ebx
	add	esp, 204				; 000000ccH
	cmp	ebp, esp
	call	__RTC_CheckEsp
	mov	esp, ebp
	pop	ebp
	ret	0
?c_str@?$basic_string@DU?$char_traits@D@std@@V?$allocator@D@2@@std@@QBEPBDXZ ENDP ; std::basic_string<char,std::char_traits<char>,std::allocator<char> >::c_str
_TEXT	ENDS
; Function compile flags: /Odtp /RTCsu /ZI
; File C:\Program Files (x86)\Microsoft Visual Studio\2019\Community\VC\Tools\MSVC\14.29.30133\include\xstring
;	COMDAT ?assign@?$basic_string@DU?$char_traits@D@std@@V?$allocator@D@2@@std@@QAEAAV12@QBD@Z
_TEXT	SEGMENT
_this$ = -8						; size = 4
__Ptr$ = 8						; size = 4
?assign@?$basic_string@DU?$char_traits@D@std@@V?$allocator@D@2@@std@@QAEAAV12@QBD@Z PROC ; std::basic_string<char,std::char_traits<char>,std::allocator<char> >::assign, COMDAT
; _this$ = ecx

; 3229 :     _CONSTEXPR20_CONTAINER basic_string& assign(_In_z_ const _Elem* const _Ptr) {

	push	ebp
	mov	ebp, esp
	sub	esp, 204				; 000000ccH
	push	ebx
	push	esi
	push	edi
	push	ecx
	lea	edi, DWORD PTR [ebp-12]
	mov	ecx, 3
	mov	eax, -858993460				; ccccccccH
	rep stosd
	pop	ecx
	mov	DWORD PTR _this$[ebp], ecx
	mov	ecx, OFFSET __0D019051_xstring
	call	@__CheckForDebuggerJustMyCode@4

; 3230 :         return assign(_Ptr, _Convert_size<size_type>(_Traits::length(_Ptr)));

	mov	eax, DWORD PTR __Ptr$[ebp]
	push	eax
	call	?length@?$_Narrow_char_traits@DH@std@@SAIQBD@Z ; std::_Narrow_char_traits<char,int>::length
	add	esp, 4
	push	eax
	call	??$_Convert_size@I@std@@YAII@Z		; std::_Convert_size<unsigned int>
	add	esp, 4
	push	eax
	mov	ecx, DWORD PTR __Ptr$[ebp]
	push	ecx
	mov	ecx, DWORD PTR _this$[ebp]
	call	?assign@?$basic_string@DU?$char_traits@D@std@@V?$allocator@D@2@@std@@QAEAAV12@QBDI@Z ; std::basic_string<char,std::char_traits<char>,std::allocator<char> >::assign

; 3231 :     }

	pop	edi
	pop	esi
	pop	ebx
	add	esp, 204				; 000000ccH
	cmp	ebp, esp
	call	__RTC_CheckEsp
	mov	esp, ebp
	pop	ebp
	ret	4
?assign@?$basic_string@DU?$char_traits@D@std@@V?$allocator@D@2@@std@@QAEAAV12@QBD@Z ENDP ; std::basic_string<char,std::char_traits<char>,std::allocator<char> >::assign
_TEXT	ENDS
; Function compile flags: /Odtp /RTCsu /ZI
; File C:\Program Files (x86)\Microsoft Visual Studio\2019\Community\VC\Tools\MSVC\14.29.30133\include\xstring
;	COMDAT ?assign@?$basic_string@DU?$char_traits@D@std@@V?$allocator@D@2@@std@@QAEAAV12@QBDI@Z
_TEXT	SEGMENT
$T1 = -233						; size = 1
$T2 = -221						; size = 1
__Old_ptr$3 = -20					; size = 4
_this$ = -8						; size = 4
__Ptr$ = 8						; size = 4
__Count$ = 12						; size = 4
?assign@?$basic_string@DU?$char_traits@D@std@@V?$allocator@D@2@@std@@QAEAAV12@QBDI@Z PROC ; std::basic_string<char,std::char_traits<char>,std::allocator<char> >::assign, COMDAT
; _this$ = ecx

; 3210 :         _In_reads_(_Count) const _Elem* const _Ptr, _CRT_GUARDOVERFLOW const size_type _Count) {

	push	ebp
	mov	ebp, esp
	sub	esp, 240				; 000000f0H
	push	ebx
	push	esi
	push	edi
	push	ecx
	lea	edi, DWORD PTR [ebp-48]
	mov	ecx, 12					; 0000000cH
	mov	eax, -858993460				; ccccccccH
	rep stosd
	pop	ecx
	mov	DWORD PTR _this$[ebp], ecx
	mov	ecx, OFFSET __0D019051_xstring
	call	@__CheckForDebuggerJustMyCode@4

; 3211 :         // assign [_Ptr, _Ptr + _Count)
; 3212 :         if (_Count <= _Mypair._Myval2._Myres) {

	mov	eax, DWORD PTR _this$[ebp]
	mov	ecx, DWORD PTR __Count$[ebp]
	cmp	ecx, DWORD PTR [eax+24]
	ja	SHORT $LN2@assign

; 3213 :             _Elem* const _Old_ptr   = _Mypair._Myval2._Myptr();

	mov	ecx, DWORD PTR _this$[ebp]
	call	?_Myptr@?$_String_val@U?$_Simple_types@D@std@@@std@@QAEPADXZ ; std::_String_val<std::_Simple_types<char> >::_Myptr
	mov	DWORD PTR __Old_ptr$3[ebp], eax

; 3214 :             _Mypair._Myval2._Mysize = _Count;

	mov	eax, DWORD PTR _this$[ebp]
	mov	ecx, DWORD PTR __Count$[ebp]
	mov	DWORD PTR [eax+20], ecx

; 3215 :             _Traits::move(_Old_ptr, _Ptr, _Count);

	mov	eax, DWORD PTR __Count$[ebp]
	push	eax
	mov	ecx, DWORD PTR __Ptr$[ebp]
	push	ecx
	mov	edx, DWORD PTR __Old_ptr$3[ebp]
	push	edx
	call	?move@?$_Char_traits@DH@std@@SAPADQADQBDI@Z ; std::_Char_traits<char,int>::move
	add	esp, 12					; 0000000cH

; 3216 :             _Traits::assign(_Old_ptr[_Count], _Elem());

	mov	BYTE PTR $T2[ebp], 0
	lea	eax, DWORD PTR $T2[ebp]
	push	eax
	mov	ecx, DWORD PTR __Old_ptr$3[ebp]
	add	ecx, DWORD PTR __Count$[ebp]
	push	ecx
	call	?assign@?$_Narrow_char_traits@DH@std@@SAXAADABD@Z ; std::_Narrow_char_traits<char,int>::assign
	add	esp, 8

; 3217 :             return *this;

	mov	eax, DWORD PTR _this$[ebp]
	jmp	SHORT $LN1@assign
$LN2@assign:

; 3218 :         }
; 3219 : 
; 3220 :         return _Reallocate_for(

	xor	eax, eax
	mov	BYTE PTR $T1[ebp], al
	mov	ecx, DWORD PTR __Ptr$[ebp]
	push	ecx
	movzx	edx, BYTE PTR $T1[ebp]
	push	edx
	mov	eax, DWORD PTR __Count$[ebp]
	push	eax
	mov	ecx, DWORD PTR _this$[ebp]
	call	??$_Reallocate_for@V<lambda_9366063389c5f42a00a5088cf24e69de>@@PBD@?$basic_string@DU?$char_traits@D@std@@V?$allocator@D@2@@std@@AAEAAV01@IV<lambda_9366063389c5f42a00a5088cf24e69de>@@PBD@Z ; std::basic_string<char,std::char_traits<char>,std::allocator<char> >::_Reallocate_for<<lambda_9366063389c5f42a00a5088cf24e69de>,char const *>
$LN1@assign:

; 3221 :             _Count,
; 3222 :             [](_Elem* const _New_ptr, const size_type _Count, const _Elem* const _Ptr) {
; 3223 :                 _Traits::copy(_New_ptr, _Ptr, _Count);
; 3224 :                 _Traits::assign(_New_ptr[_Count], _Elem());
; 3225 :             },
; 3226 :             _Ptr);
; 3227 :     }

	pop	edi
	pop	esi
	pop	ebx
	add	esp, 240				; 000000f0H
	cmp	ebp, esp
	call	__RTC_CheckEsp
	mov	esp, ebp
	pop	ebp
	ret	8
?assign@?$basic_string@DU?$char_traits@D@std@@V?$allocator@D@2@@std@@QAEAAV12@QBDI@Z ENDP ; std::basic_string<char,std::char_traits<char>,std::allocator<char> >::assign
_TEXT	ENDS
; Function compile flags: /Odtp /RTCsu /ZI
; File C:\Program Files (x86)\Microsoft Visual Studio\2019\Community\VC\Tools\MSVC\14.29.30133\include\xstring
;	COMDAT ?append@?$basic_string@DU?$char_traits@D@std@@V?$allocator@D@2@@std@@QAEAAV12@QBD@Z
_TEXT	SEGMENT
_this$ = -8						; size = 4
__Ptr$ = 8						; size = 4
?append@?$basic_string@DU?$char_traits@D@std@@V?$allocator@D@2@@std@@QAEAAV12@QBD@Z PROC ; std::basic_string<char,std::char_traits<char>,std::allocator<char> >::append, COMDAT
; _this$ = ecx

; 3140 :     _CONSTEXPR20_CONTAINER basic_string& append(_In_z_ const _Elem* const _Ptr) { // append [_Ptr, <null>)

	push	ebp
	mov	ebp, esp
	sub	esp, 204				; 000000ccH
	push	ebx
	push	esi
	push	edi
	push	ecx
	lea	edi, DWORD PTR [ebp-12]
	mov	ecx, 3
	mov	eax, -858993460				; ccccccccH
	rep stosd
	pop	ecx
	mov	DWORD PTR _this$[ebp], ecx
	mov	ecx, OFFSET __0D019051_xstring
	call	@__CheckForDebuggerJustMyCode@4

; 3141 :         return append(_Ptr, _Convert_size<size_type>(_Traits::length(_Ptr)));

	mov	eax, DWORD PTR __Ptr$[ebp]
	push	eax
	call	?length@?$_Narrow_char_traits@DH@std@@SAIQBD@Z ; std::_Narrow_char_traits<char,int>::length
	add	esp, 4
	push	eax
	call	??$_Convert_size@I@std@@YAII@Z		; std::_Convert_size<unsigned int>
	add	esp, 4
	push	eax
	mov	ecx, DWORD PTR __Ptr$[ebp]
	push	ecx
	mov	ecx, DWORD PTR _this$[ebp]
	call	?append@?$basic_string@DU?$char_traits@D@std@@V?$allocator@D@2@@std@@QAEAAV12@QBDI@Z ; std::basic_string<char,std::char_traits<char>,std::allocator<char> >::append

; 3142 :     }

	pop	edi
	pop	esi
	pop	ebx
	add	esp, 204				; 000000ccH
	cmp	ebp, esp
	call	__RTC_CheckEsp
	mov	esp, ebp
	pop	ebp
	ret	4
?append@?$basic_string@DU?$char_traits@D@std@@V?$allocator@D@2@@std@@QAEAAV12@QBD@Z ENDP ; std::basic_string<char,std::char_traits<char>,std::allocator<char> >::append
_TEXT	ENDS
; Function compile flags: /Odtp /RTCsu /ZI
; File C:\Program Files (x86)\Microsoft Visual Studio\2019\Community\VC\Tools\MSVC\14.29.30133\include\xstring
;	COMDAT ?append@?$basic_string@DU?$char_traits@D@std@@V?$allocator@D@2@@std@@QAEAAV12@QBDI@Z
_TEXT	SEGMENT
$T1 = -245						; size = 1
$T2 = -233						; size = 1
__Old_ptr$3 = -32					; size = 4
__Old_size$ = -20					; size = 4
_this$ = -8						; size = 4
__Ptr$ = 8						; size = 4
__Count$ = 12						; size = 4
?append@?$basic_string@DU?$char_traits@D@std@@V?$allocator@D@2@@std@@QAEAAV12@QBDI@Z PROC ; std::basic_string<char,std::char_traits<char>,std::allocator<char> >::append, COMDAT
; _this$ = ecx

; 3118 :         _In_reads_(_Count) const _Elem* const _Ptr, _CRT_GUARDOVERFLOW const size_type _Count) {

	push	ebp
	mov	ebp, esp
	sub	esp, 252				; 000000fcH
	push	ebx
	push	esi
	push	edi
	push	ecx
	lea	edi, DWORD PTR [ebp-60]
	mov	ecx, 15					; 0000000fH
	mov	eax, -858993460				; ccccccccH
	rep stosd
	pop	ecx
	mov	DWORD PTR _this$[ebp], ecx
	mov	ecx, OFFSET __0D019051_xstring
	call	@__CheckForDebuggerJustMyCode@4

; 3119 :         // append [_Ptr, _Ptr + _Count)
; 3120 :         const size_type _Old_size = _Mypair._Myval2._Mysize;

	mov	eax, DWORD PTR _this$[ebp]
	mov	ecx, DWORD PTR [eax+20]
	mov	DWORD PTR __Old_size$[ebp], ecx

; 3121 :         if (_Count <= _Mypair._Myval2._Myres - _Old_size) {

	mov	eax, DWORD PTR _this$[ebp]
	mov	ecx, DWORD PTR [eax+24]
	sub	ecx, DWORD PTR __Old_size$[ebp]
	cmp	DWORD PTR __Count$[ebp], ecx
	ja	SHORT $LN2@append

; 3122 :             _Mypair._Myval2._Mysize = _Old_size + _Count;

	mov	eax, DWORD PTR __Old_size$[ebp]
	add	eax, DWORD PTR __Count$[ebp]
	mov	ecx, DWORD PTR _this$[ebp]
	mov	DWORD PTR [ecx+20], eax

; 3123 :             _Elem* const _Old_ptr   = _Mypair._Myval2._Myptr();

	mov	ecx, DWORD PTR _this$[ebp]
	call	?_Myptr@?$_String_val@U?$_Simple_types@D@std@@@std@@QAEPADXZ ; std::_String_val<std::_Simple_types<char> >::_Myptr
	mov	DWORD PTR __Old_ptr$3[ebp], eax

; 3124 :             _Traits::move(_Old_ptr + _Old_size, _Ptr, _Count);

	mov	eax, DWORD PTR __Count$[ebp]
	push	eax
	mov	ecx, DWORD PTR __Ptr$[ebp]
	push	ecx
	mov	edx, DWORD PTR __Old_ptr$3[ebp]
	add	edx, DWORD PTR __Old_size$[ebp]
	push	edx
	call	?move@?$_Char_traits@DH@std@@SAPADQADQBDI@Z ; std::_Char_traits<char,int>::move
	add	esp, 12					; 0000000cH

; 3125 :             _Traits::assign(_Old_ptr[_Old_size + _Count], _Elem());

	mov	BYTE PTR $T2[ebp], 0
	lea	eax, DWORD PTR $T2[ebp]
	push	eax
	mov	ecx, DWORD PTR __Old_size$[ebp]
	add	ecx, DWORD PTR __Count$[ebp]
	add	ecx, DWORD PTR __Old_ptr$3[ebp]
	push	ecx
	call	?assign@?$_Narrow_char_traits@DH@std@@SAXAADABD@Z ; std::_Narrow_char_traits<char,int>::assign
	add	esp, 8

; 3126 :             return *this;

	mov	eax, DWORD PTR _this$[ebp]
	jmp	SHORT $LN1@append
$LN2@append:

; 3127 :         }
; 3128 : 
; 3129 :         return _Reallocate_grow_by(

	xor	eax, eax
	mov	BYTE PTR $T1[ebp], al
	mov	ecx, DWORD PTR __Count$[ebp]
	push	ecx
	mov	edx, DWORD PTR __Ptr$[ebp]
	push	edx
	movzx	eax, BYTE PTR $T1[ebp]
	push	eax
	mov	ecx, DWORD PTR __Count$[ebp]
	push	ecx
	mov	ecx, DWORD PTR _this$[ebp]
	call	??$_Reallocate_grow_by@V<lambda_ab246b20b9526e2ef7792587e4298a77>@@PBDI@?$basic_string@DU?$char_traits@D@std@@V?$allocator@D@2@@std@@AAEAAV01@IV<lambda_ab246b20b9526e2ef7792587e4298a77>@@PBDI@Z ; std::basic_string<char,std::char_traits<char>,std::allocator<char> >::_Reallocate_grow_by<<lambda_ab246b20b9526e2ef7792587e4298a77>,char const *,unsigned int>
$LN1@append:

; 3130 :             _Count,
; 3131 :             [](_Elem* const _New_ptr, const _Elem* const _Old_ptr, const size_type _Old_size, const _Elem* const _Ptr,
; 3132 :                 const size_type _Count) {
; 3133 :                 _Traits::copy(_New_ptr, _Old_ptr, _Old_size);
; 3134 :                 _Traits::copy(_New_ptr + _Old_size, _Ptr, _Count);
; 3135 :                 _Traits::assign(_New_ptr[_Old_size + _Count], _Elem());
; 3136 :             },
; 3137 :             _Ptr, _Count);
; 3138 :     }

	pop	edi
	pop	esi
	pop	ebx
	add	esp, 252				; 000000fcH
	cmp	ebp, esp
	call	__RTC_CheckEsp
	mov	esp, ebp
	pop	ebp
	ret	8
?append@?$basic_string@DU?$char_traits@D@std@@V?$allocator@D@2@@std@@QAEAAV12@QBDI@Z ENDP ; std::basic_string<char,std::char_traits<char>,std::allocator<char> >::append
_TEXT	ENDS
; Function compile flags: /Odtp /RTCsu /ZI
; File C:\Program Files (x86)\Microsoft Visual Studio\2019\Community\VC\Tools\MSVC\14.29.30133\include\xstring
;	COMDAT ??1?$basic_string@DU?$char_traits@D@std@@V?$allocator@D@2@@std@@QAE@XZ
_TEXT	SEGMENT
__To_delete$ = -48					; size = 4
_$S8$ = -33						; size = 1
__Alproxy$ = -24					; size = 4
_this$ = -12						; size = 4
__$ArrayPad$ = -4					; size = 4
??1?$basic_string@DU?$char_traits@D@std@@V?$allocator@D@2@@std@@QAE@XZ PROC ; std::basic_string<char,std::char_traits<char>,std::allocator<char> >::~basic_string<char,std::char_traits<char>,std::allocator<char> >, COMDAT
; _this$ = ecx

; 2968 :     _CONSTEXPR20_CONTAINER ~basic_string() noexcept {

	push	ebp
	mov	ebp, esp
	sub	esp, 244				; 000000f4H
	push	ebx
	push	esi
	push	edi
	push	ecx
	lea	edi, DWORD PTR [ebp-52]
	mov	ecx, 13					; 0000000dH
	mov	eax, -858993460				; ccccccccH
	rep stosd
	pop	ecx
	mov	eax, DWORD PTR ___security_cookie
	xor	eax, ebp
	mov	DWORD PTR __$ArrayPad$[ebp], eax
	mov	DWORD PTR _this$[ebp], ecx
	mov	ecx, OFFSET __0D019051_xstring
	call	@__CheckForDebuggerJustMyCode@4

; 2969 :         _Tidy_deallocate();

	mov	ecx, DWORD PTR _this$[ebp]
	call	?_Tidy_deallocate@?$basic_string@DU?$char_traits@D@std@@V?$allocator@D@2@@std@@AAEXXZ ; std::basic_string<char,std::char_traits<char>,std::allocator<char> >::_Tidy_deallocate

; 2970 : #if _ITERATOR_DEBUG_LEVEL != 0
; 2971 :         auto&& _Alproxy          = _GET_PROXY_ALLOCATOR(_Alty, _Getal());

	mov	ecx, DWORD PTR _this$[ebp]
	call	?_Getal@?$basic_string@DU?$char_traits@D@std@@V?$allocator@D@2@@std@@AAEAAV?$allocator@D@2@XZ ; std::basic_string<char,std::char_traits<char>,std::allocator<char> >::_Getal
	push	eax
	lea	ecx, DWORD PTR _$S8$[ebp]
	call	??$?0D@?$allocator@U_Container_proxy@std@@@std@@QAE@ABV?$allocator@D@1@@Z ; std::allocator<std::_Container_proxy>::allocator<std::_Container_proxy><char>
	lea	eax, DWORD PTR _$S8$[ebp]
	mov	DWORD PTR __Alproxy$[ebp], eax

; 2972 :         const auto _To_delete    = _Mypair._Myval2._Myproxy;

	mov	eax, DWORD PTR _this$[ebp]
	mov	ecx, DWORD PTR [eax]
	mov	DWORD PTR __To_delete$[ebp], ecx

; 2973 :         _Mypair._Myval2._Myproxy = nullptr;

	mov	eax, DWORD PTR _this$[ebp]
	mov	DWORD PTR [eax], 0

; 2974 :         _Delete_plain_internal(_Alproxy, _To_delete);

	mov	eax, DWORD PTR __To_delete$[ebp]
	push	eax
	mov	ecx, DWORD PTR __Alproxy$[ebp]
	push	ecx
	call	??$_Delete_plain_internal@V?$allocator@U_Container_proxy@std@@@std@@@std@@YAXAAV?$allocator@U_Container_proxy@std@@@0@QAU_Container_proxy@0@@Z ; std::_Delete_plain_internal<std::allocator<std::_Container_proxy> >
	add	esp, 8

; 2975 : #endif // _ITERATOR_DEBUG_LEVEL != 0
; 2976 :     }

	mov	ecx, DWORD PTR _this$[ebp]
	call	??1?$_Compressed_pair@V?$allocator@D@std@@V?$_String_val@U?$_Simple_types@D@std@@@2@$00@std@@QAE@XZ
	push	edx
	mov	ecx, ebp
	push	eax
	lea	edx, DWORD PTR $LN5@basic_stri
	call	@_RTC_CheckStackVars@8
	pop	eax
	pop	edx
	pop	edi
	pop	esi
	pop	ebx
	mov	ecx, DWORD PTR __$ArrayPad$[ebp]
	xor	ecx, ebp
	call	@__security_check_cookie@4
	add	esp, 244				; 000000f4H
	cmp	ebp, esp
	call	__RTC_CheckEsp
	mov	esp, ebp
	pop	ebp
	ret	0
	npad	1
$LN5@basic_stri:
	DD	1
	DD	$LN4@basic_stri
$LN4@basic_stri:
	DD	-33					; ffffffdfH
	DD	1
	DD	$LN3@basic_stri
$LN3@basic_stri:
	DB	36					; 00000024H
	DB	83					; 00000053H
	DB	56					; 00000038H
	DB	0
??1?$basic_string@DU?$char_traits@D@std@@V?$allocator@D@2@@std@@QAE@XZ ENDP ; std::basic_string<char,std::char_traits<char>,std::allocator<char> >::~basic_string<char,std::char_traits<char>,std::allocator<char> >
_TEXT	ENDS
; Function compile flags: /Odtp /RTCsu /ZI
; File C:\Program Files (x86)\Microsoft Visual Studio\2019\Community\VC\Tools\MSVC\14.29.30133\include\xstring
;	COMDAT ?_Take_contents@?$basic_string@DU?$char_traits@D@std@@V?$allocator@D@2@@std@@AAEXAAV12@@Z
_TEXT	SEGMENT
__Right_data$ = -44					; size = 4
__My_data$ = -32					; size = 4
_this$ = -20						; size = 4
__$EHRec$ = -12						; size = 12
__Right$ = 8						; size = 4
?_Take_contents@?$basic_string@DU?$char_traits@D@std@@V?$allocator@D@2@@std@@AAEXAAV12@@Z PROC ; std::basic_string<char,std::char_traits<char>,std::allocator<char> >::_Take_contents, COMDAT
; _this$ = ecx

; 2838 :     _CONSTEXPR20_CONTAINER void _Take_contents(basic_string& _Right) noexcept {

	push	ebp
	mov	ebp, esp
	push	-1
	push	__ehhandler$?_Take_contents@?$basic_string@DU?$char_traits@D@std@@V?$allocator@D@2@@std@@AAEXAAV12@@Z
	mov	eax, DWORD PTR fs:0
	push	eax
	sub	esp, 228				; 000000e4H
	push	ebx
	push	esi
	push	edi
	push	ecx
	lea	edi, DWORD PTR [ebp-48]
	mov	ecx, 9
	mov	eax, -858993460				; ccccccccH
	rep stosd
	pop	ecx
	mov	eax, DWORD PTR ___security_cookie
	xor	eax, ebp
	push	eax
	lea	eax, DWORD PTR __$EHRec$[ebp]
	mov	DWORD PTR fs:0, eax
	mov	DWORD PTR _this$[ebp], ecx
	mov	ecx, OFFSET __0D019051_xstring
	call	@__CheckForDebuggerJustMyCode@4

; 2839 :         // assign by stealing _Right's buffer
; 2840 :         // pre: this != &_Right
; 2841 :         // pre: allocator propagation (POCMA) from _Right, if necessary, is complete
; 2842 :         // pre: *this owns no memory, iterators orphaned
; 2843 :         // (note: _Buf/_Ptr/_Mysize/_Myres may be garbage init)
; 2844 :         auto& _My_data    = _Mypair._Myval2;

	mov	eax, DWORD PTR _this$[ebp]
	mov	DWORD PTR __My_data$[ebp], eax

; 2845 :         auto& _Right_data = _Right._Mypair._Myval2;

	mov	eax, DWORD PTR __Right$[ebp]
	mov	DWORD PTR __Right_data$[ebp], eax

; 2846 : 
; 2847 :         if constexpr (_Can_memcpy_val) {
; 2848 : #ifdef __cpp_lib_constexpr_string
; 2849 :             if (!_STD is_constant_evaluated())
; 2850 : #endif // __cpp_lib_constexpr_string
; 2851 :             {
; 2852 : #if _ITERATOR_DEBUG_LEVEL != 0
; 2853 :                 if (_Right_data._Large_string_engaged()) {

	mov	ecx, DWORD PTR __Right_data$[ebp]
	call	?_Large_string_engaged@?$_String_val@U?$_Simple_types@D@std@@@std@@QBE_NXZ ; std::_String_val<std::_Simple_types<char> >::_Large_string_engaged
	movzx	eax, al
	test	eax, eax
	je	SHORT $LN2@Take_conte

; 2854 :                     // take ownership of _Right's iterators along with its buffer
; 2855 :                     _Swap_proxy_and_iterators(_Right);

	mov	eax, DWORD PTR __Right$[ebp]
	push	eax
	mov	ecx, DWORD PTR _this$[ebp]
	call	?_Swap_proxy_and_iterators@?$basic_string@DU?$char_traits@D@std@@V?$allocator@D@2@@std@@AAEXAAV12@@Z ; std::basic_string<char,std::char_traits<char>,std::allocator<char> >::_Swap_proxy_and_iterators

; 2856 :                 } else {

	jmp	SHORT $LN3@Take_conte
$LN2@Take_conte:

; 2857 :                     _Right_data._Orphan_all();

	mov	ecx, DWORD PTR __Right_data$[ebp]
	call	?_Orphan_all@_Container_base12@std@@QAEXXZ ; std::_Container_base12::_Orphan_all
$LN3@Take_conte:

; 2858 :                 }
; 2859 : #endif // _ITERATOR_DEBUG_LEVEL != 0
; 2860 : 
; 2861 :                 _Memcpy_val_from(_Right);

	mov	eax, DWORD PTR __Right$[ebp]
	push	eax
	mov	ecx, DWORD PTR _this$[ebp]
	call	?_Memcpy_val_from@?$basic_string@DU?$char_traits@D@std@@V?$allocator@D@2@@std@@AAEXABV12@@Z ; std::basic_string<char,std::char_traits<char>,std::allocator<char> >::_Memcpy_val_from

; 2862 :                 _Right._Tidy_init();

	mov	ecx, DWORD PTR __Right$[ebp]
	call	?_Tidy_init@?$basic_string@DU?$char_traits@D@std@@V?$allocator@D@2@@std@@AAEXXZ ; std::basic_string<char,std::char_traits<char>,std::allocator<char> >::_Tidy_init

; 2863 :                 return;

	jmp	$LN6@Take_conte

; 2864 :             }
; 2865 :         }
; 2866 : 
; 2867 :         if (_Right_data._Large_string_engaged()) { // steal buffer

	mov	ecx, DWORD PTR __Right_data$[ebp]
	call	?_Large_string_engaged@?$_String_val@U?$_Simple_types@D@std@@@std@@QBE_NXZ ; std::_String_val<std::_Simple_types<char> >::_Large_string_engaged
	movzx	eax, al
	test	eax, eax
	je	SHORT $LN4@Take_conte

; 2868 :             _Construct_in_place(_My_data._Bx._Ptr, _Right_data._Bx._Ptr);

	mov	eax, DWORD PTR __Right_data$[ebp]
	add	eax, 4
	push	eax
	mov	ecx, DWORD PTR __My_data$[ebp]
	add	ecx, 4
	push	ecx
	call	??$_Construct_in_place@PADAAPAD@std@@YAXAAPAD0@Z ; std::_Construct_in_place<char *,char * &>
	add	esp, 8

; 2869 :             _Right_data._Bx._Ptr = nullptr;

	mov	eax, DWORD PTR __Right_data$[ebp]
	mov	DWORD PTR [eax+4], 0

; 2870 :             _Swap_proxy_and_iterators(_Right);

	mov	eax, DWORD PTR __Right$[ebp]
	push	eax
	mov	ecx, DWORD PTR _this$[ebp]
	call	?_Swap_proxy_and_iterators@?$basic_string@DU?$char_traits@D@std@@V?$allocator@D@2@@std@@AAEXAAV12@@Z ; std::basic_string<char,std::char_traits<char>,std::allocator<char> >::_Swap_proxy_and_iterators

; 2871 :         } else { // copy small string buffer

	jmp	SHORT $LN5@Take_conte
$LN4@Take_conte:

; 2872 :             _Traits::copy(_My_data._Bx._Buf, _Right_data._Bx._Buf, _Right_data._Mysize + 1);

	mov	eax, DWORD PTR __Right_data$[ebp]
	mov	ecx, DWORD PTR [eax+20]
	add	ecx, 1
	push	ecx
	mov	edx, DWORD PTR __Right_data$[ebp]
	add	edx, 4
	push	edx
	mov	eax, DWORD PTR __My_data$[ebp]
	add	eax, 4
	push	eax
	call	?copy@?$_Char_traits@DH@std@@SAPADQADQBDI@Z ; std::_Char_traits<char,int>::copy
	add	esp, 12					; 0000000cH

; 2873 :             _Right_data._Orphan_all();

	mov	ecx, DWORD PTR __Right_data$[ebp]
	call	?_Orphan_all@_Container_base12@std@@QAEXXZ ; std::_Container_base12::_Orphan_all
$LN5@Take_conte:

; 2874 :         }
; 2875 : 
; 2876 :         _My_data._Mysize = _Right_data._Mysize;

	mov	eax, DWORD PTR __My_data$[ebp]
	mov	ecx, DWORD PTR __Right_data$[ebp]
	mov	edx, DWORD PTR [ecx+20]
	mov	DWORD PTR [eax+20], edx

; 2877 :         _My_data._Myres  = _Right_data._Myres;

	mov	eax, DWORD PTR __My_data$[ebp]
	mov	ecx, DWORD PTR __Right_data$[ebp]
	mov	edx, DWORD PTR [ecx+24]
	mov	DWORD PTR [eax+24], edx

; 2878 :         _Right._Tidy_init();

	mov	ecx, DWORD PTR __Right$[ebp]
	call	?_Tidy_init@?$basic_string@DU?$char_traits@D@std@@V?$allocator@D@2@@std@@AAEXXZ ; std::basic_string<char,std::char_traits<char>,std::allocator<char> >::_Tidy_init
$LN6@Take_conte:

; 2879 :     }

	mov	ecx, DWORD PTR __$EHRec$[ebp]
	mov	DWORD PTR fs:0, ecx
	pop	ecx
	pop	edi
	pop	esi
	pop	ebx
	add	esp, 240				; 000000f0H
	cmp	ebp, esp
	call	__RTC_CheckEsp
	mov	esp, ebp
	pop	ebp
	ret	4
	int	3
	int	3
	int	3
	int	3
	int	3
_TEXT	ENDS
;	COMDAT text$x
text$x	SEGMENT
__ehhandler$?_Take_contents@?$basic_string@DU?$char_traits@D@std@@V?$allocator@D@2@@std@@AAEXAAV12@@Z:
	npad	1
	npad	1
	mov	edx, DWORD PTR [esp+8]
	lea	eax, DWORD PTR [edx+12]
	mov	ecx, DWORD PTR [edx-244]
	xor	ecx, eax
	call	@__security_check_cookie@4
	mov	eax, OFFSET __ehfuncinfo$?_Take_contents@?$basic_string@DU?$char_traits@D@std@@V?$allocator@D@2@@std@@AAEXAAV12@@Z
	jmp	___CxxFrameHandler3
text$x	ENDS
?_Take_contents@?$basic_string@DU?$char_traits@D@std@@V?$allocator@D@2@@std@@AAEXAAV12@@Z ENDP ; std::basic_string<char,std::char_traits<char>,std::allocator<char> >::_Take_contents
; Function compile flags: /Odtp /RTCsu /ZI
; File C:\Program Files (x86)\Microsoft Visual Studio\2019\Community\VC\Tools\MSVC\14.29.30133\include\xstring
;	COMDAT ?_Memcpy_val_from@?$basic_string@DU?$char_traits@D@std@@V?$allocator@D@2@@std@@AAEXABV12@@Z
_TEXT	SEGMENT
__Right_data_mem$ = -32					; size = 4
__My_data_mem$ = -20					; size = 4
_this$ = -8						; size = 4
__Right$ = 8						; size = 4
?_Memcpy_val_from@?$basic_string@DU?$char_traits@D@std@@V?$allocator@D@2@@std@@AAEXABV12@@Z PROC ; std::basic_string<char,std::char_traits<char>,std::allocator<char> >::_Memcpy_val_from, COMDAT
; _this$ = ecx

; 2829 :     void _Memcpy_val_from(const basic_string& _Right) noexcept {

	push	ebp
	mov	ebp, esp
	sub	esp, 228				; 000000e4H
	push	ebx
	push	esi
	push	edi
	push	ecx
	lea	edi, DWORD PTR [ebp-36]
	mov	ecx, 9
	mov	eax, -858993460				; ccccccccH
	rep stosd
	pop	ecx
	mov	DWORD PTR _this$[ebp], ecx
	mov	ecx, OFFSET __0D019051_xstring
	call	@__CheckForDebuggerJustMyCode@4

; 2830 :         _STL_INTERNAL_CHECK(_Can_memcpy_val); // TRANSITION, if constexpr
; 2831 :         const auto _My_data_mem =

	mov	eax, DWORD PTR _this$[ebp]
	push	eax
	call	??$addressof@V?$_String_val@U?$_Simple_types@D@std@@@std@@@std@@YAPAV?$_String_val@U?$_Simple_types@D@std@@@0@AAV10@@Z ; std::addressof<std::_String_val<std::_Simple_types<char> > >
	add	esp, 4
	add	eax, 4
	mov	DWORD PTR __My_data_mem$[ebp], eax

; 2832 :             reinterpret_cast<unsigned char*>(_STD addressof(_Mypair._Myval2)) + _Memcpy_val_offset;
; 2833 :         const auto _Right_data_mem =

	mov	eax, DWORD PTR __Right$[ebp]
	push	eax
	call	??$addressof@$$CBV?$_String_val@U?$_Simple_types@D@std@@@std@@@std@@YAPBV?$_String_val@U?$_Simple_types@D@std@@@0@ABV10@@Z ; std::addressof<std::_String_val<std::_Simple_types<char> > const >
	add	esp, 4
	add	eax, 4
	mov	DWORD PTR __Right_data_mem$[ebp], eax

; 2834 :             reinterpret_cast<const unsigned char*>(_STD addressof(_Right._Mypair._Myval2)) + _Memcpy_val_offset;
; 2835 :         _CSTD memcpy(_My_data_mem, _Right_data_mem, _Memcpy_val_size);

	push	24					; 00000018H
	mov	eax, DWORD PTR __Right_data_mem$[ebp]
	push	eax
	mov	ecx, DWORD PTR __My_data_mem$[ebp]
	push	ecx
	call	_memcpy
	add	esp, 12					; 0000000cH

; 2836 :     }

	pop	edi
	pop	esi
	pop	ebx
	add	esp, 228				; 000000e4H
	cmp	ebp, esp
	call	__RTC_CheckEsp
	mov	esp, ebp
	pop	ebp
	ret	4
?_Memcpy_val_from@?$basic_string@DU?$char_traits@D@std@@V?$allocator@D@2@@std@@AAEXABV12@@Z ENDP ; std::basic_string<char,std::char_traits<char>,std::allocator<char> >::_Memcpy_val_from
_TEXT	ENDS
; Function compile flags: /Odtp /RTCsu /ZI
; File C:\Program Files (x86)\Microsoft Visual Studio\2019\Community\VC\Tools\MSVC\14.29.30133\include\xstring
;	COMDAT ??0?$basic_string@DU?$char_traits@D@std@@V?$allocator@D@2@@std@@QAE@$$QAV01@@Z
_TEXT	SEGMENT
$T2 = -233						; size = 1
$T3 = -221						; size = 1
_this$ = -20						; size = 4
__$EHRec$ = -12						; size = 12
__Right$ = 8						; size = 4
??0?$basic_string@DU?$char_traits@D@std@@V?$allocator@D@2@@std@@QAE@$$QAV01@@Z PROC ; std::basic_string<char,std::char_traits<char>,std::allocator<char> >::basic_string<char,std::char_traits<char>,std::allocator<char> >, COMDAT
; _this$ = ecx

; 2571 :         : _Mypair(_One_then_variadic_args_t{}, _STD move(_Right._Getal())) {

	push	ebp
	mov	ebp, esp
	push	-1
	push	__ehhandler$??0?$basic_string@DU?$char_traits@D@std@@V?$allocator@D@2@@std@@QAE@$$QAV01@@Z
	mov	eax, DWORD PTR fs:0
	push	eax
	sub	esp, 228				; 000000e4H
	push	ebx
	push	esi
	push	edi
	push	ecx
	lea	edi, DWORD PTR [ebp-48]
	mov	ecx, 9
	mov	eax, -858993460				; ccccccccH
	rep stosd
	pop	ecx
	mov	eax, DWORD PTR ___security_cookie
	xor	eax, ebp
	push	eax
	lea	eax, DWORD PTR __$EHRec$[ebp]
	mov	DWORD PTR fs:0, eax
	mov	DWORD PTR _this$[ebp], ecx
	mov	ecx, OFFSET __0D019051_xstring
	call	@__CheckForDebuggerJustMyCode@4
	mov	ecx, DWORD PTR __Right$[ebp]
	call	?_Getal@?$basic_string@DU?$char_traits@D@std@@V?$allocator@D@2@@std@@AAEAAV?$allocator@D@2@XZ ; std::basic_string<char,std::char_traits<char>,std::allocator<char> >::_Getal
	push	eax
	call	??$move@AAV?$allocator@D@std@@@std@@YA$$QAV?$allocator@D@0@AAV10@@Z ; std::move<std::allocator<char> &>
	add	esp, 4
	push	eax
	movzx	eax, BYTE PTR $T3[ebp]
	push	eax
	mov	ecx, DWORD PTR _this$[ebp]
	call	??$?0V?$allocator@D@std@@$$V@?$_Compressed_pair@V?$allocator@D@std@@V?$_String_val@U?$_Simple_types@D@std@@@2@$00@std@@QAE@U_One_then_variadic_args_t@1@$$QAV?$allocator@D@1@@Z ; std::_Compressed_pair<std::allocator<char>,std::_String_val<std::_Simple_types<char> >,1>::_Compressed_pair<std::allocator<char>,std::_String_val<std::_Simple_types<char> >,1><std::allocator<char> >

; 2572 :         _Mypair._Myval2._Alloc_proxy(_GET_PROXY_ALLOCATOR(_Alty, _Getal()));

	mov	ecx, DWORD PTR _this$[ebp]
	call	?_Getal@?$basic_string@DU?$char_traits@D@std@@V?$allocator@D@2@@std@@AAEAAV?$allocator@D@2@XZ ; std::basic_string<char,std::char_traits<char>,std::allocator<char> >::_Getal
	push	eax
	lea	ecx, DWORD PTR $T2[ebp]
	call	??$?0D@?$allocator@U_Container_proxy@std@@@std@@QAE@ABV?$allocator@D@1@@Z ; std::allocator<std::_Container_proxy>::allocator<std::_Container_proxy><char>
	push	eax
	mov	ecx, DWORD PTR _this$[ebp]
	call	??$_Alloc_proxy@V?$allocator@U_Container_proxy@std@@@std@@@_Container_base12@std@@QAEX$$QAV?$allocator@U_Container_proxy@std@@@1@@Z ; std::_Container_base12::_Alloc_proxy<std::allocator<std::_Container_proxy> >

; 2573 :         _Take_contents(_Right);

	mov	eax, DWORD PTR __Right$[ebp]
	push	eax
	mov	ecx, DWORD PTR _this$[ebp]
	call	?_Take_contents@?$basic_string@DU?$char_traits@D@std@@V?$allocator@D@2@@std@@AAEXAAV12@@Z ; std::basic_string<char,std::char_traits<char>,std::allocator<char> >::_Take_contents

; 2574 :     }

	mov	eax, DWORD PTR _this$[ebp]
	mov	ecx, DWORD PTR __$EHRec$[ebp]
	mov	DWORD PTR fs:0, ecx
	pop	ecx
	pop	edi
	pop	esi
	pop	ebx
	add	esp, 240				; 000000f0H
	cmp	ebp, esp
	call	__RTC_CheckEsp
	mov	esp, ebp
	pop	ebp
	ret	4
	int	3
	int	3
	int	3
	int	3
	int	3
_TEXT	ENDS
;	COMDAT text$x
text$x	SEGMENT
__ehhandler$??0?$basic_string@DU?$char_traits@D@std@@V?$allocator@D@2@@std@@QAE@$$QAV01@@Z:
	npad	1
	npad	1
	mov	edx, DWORD PTR [esp+8]
	lea	eax, DWORD PTR [edx+12]
	mov	ecx, DWORD PTR [edx-244]
	xor	ecx, eax
	call	@__security_check_cookie@4
	mov	eax, OFFSET __ehfuncinfo$??0?$basic_string@DU?$char_traits@D@std@@V?$allocator@D@2@@std@@QAE@$$QAV01@@Z
	jmp	___CxxFrameHandler3
text$x	ENDS
??0?$basic_string@DU?$char_traits@D@std@@V?$allocator@D@2@@std@@QAE@$$QAV01@@Z ENDP ; std::basic_string<char,std::char_traits<char>,std::allocator<char> >::basic_string<char,std::char_traits<char>,std::allocator<char> >
; Function compile flags: /Odtp /RTCsu /ZI
; File C:\Program Files (x86)\Microsoft Visual Studio\2019\Community\VC\Tools\MSVC\14.29.30133\include\xstring
;	COMDAT ??0?$basic_string@DU?$char_traits@D@std@@V?$allocator@D@2@@std@@QAE@QBD@Z
_TEXT	SEGMENT
$T2 = -265						; size = 1
__Proxy$ = -64						; size = 8
_$S10$ = -45						; size = 1
__Alproxy$ = -36					; size = 4
_this$ = -24						; size = 4
__$ArrayPad$ = -16					; size = 4
__$EHRec$ = -12						; size = 12
__Ptr$ = 8						; size = 4
??0?$basic_string@DU?$char_traits@D@std@@V?$allocator@D@2@@std@@QAE@QBD@Z PROC ; std::basic_string<char,std::char_traits<char>,std::allocator<char> >::basic_string<char,std::char_traits<char>,std::allocator<char> >, COMDAT
; _this$ = ecx

; 2483 :     _CONSTEXPR20_CONTAINER basic_string(_In_z_ const _Elem* const _Ptr) : _Mypair(_Zero_then_variadic_args_t{}) {

	push	ebp
	mov	ebp, esp
	push	-1
	push	__ehhandler$??0?$basic_string@DU?$char_traits@D@std@@V?$allocator@D@2@@std@@QAE@QBD@Z
	mov	eax, DWORD PTR fs:0
	push	eax
	sub	esp, 260				; 00000104H
	push	ebx
	push	esi
	push	edi
	push	ecx
	lea	edi, DWORD PTR [ebp-80]
	mov	ecx, 17					; 00000011H
	mov	eax, -858993460				; ccccccccH
	rep stosd
	pop	ecx
	mov	eax, DWORD PTR ___security_cookie
	xor	eax, ebp
	mov	DWORD PTR __$ArrayPad$[ebp], eax
	push	eax
	lea	eax, DWORD PTR __$EHRec$[ebp]
	mov	DWORD PTR fs:0, eax
	mov	DWORD PTR _this$[ebp], ecx
	mov	ecx, OFFSET __0D019051_xstring
	call	@__CheckForDebuggerJustMyCode@4
	movzx	eax, BYTE PTR $T2[ebp]
	push	eax
	mov	ecx, DWORD PTR _this$[ebp]
	call	??$?0$$V@?$_Compressed_pair@V?$allocator@D@std@@V?$_String_val@U?$_Simple_types@D@std@@@2@$00@std@@QAE@U_Zero_then_variadic_args_t@1@@Z ; std::_Compressed_pair<std::allocator<char>,std::_String_val<std::_Simple_types<char> >,1>::_Compressed_pair<std::allocator<char>,std::_String_val<std::_Simple_types<char> >,1><>
	mov	DWORD PTR __$EHRec$[ebp+8], 0

; 2484 :         auto&& _Alproxy = _GET_PROXY_ALLOCATOR(_Alty, _Getal());

	mov	ecx, DWORD PTR _this$[ebp]
	call	?_Getal@?$basic_string@DU?$char_traits@D@std@@V?$allocator@D@2@@std@@AAEAAV?$allocator@D@2@XZ ; std::basic_string<char,std::char_traits<char>,std::allocator<char> >::_Getal
	push	eax
	lea	ecx, DWORD PTR _$S10$[ebp]
	call	??$?0D@?$allocator@U_Container_proxy@std@@@std@@QAE@ABV?$allocator@D@1@@Z ; std::allocator<std::_Container_proxy>::allocator<std::_Container_proxy><char>
	lea	eax, DWORD PTR _$S10$[ebp]
	mov	DWORD PTR __Alproxy$[ebp], eax

; 2485 :         _Container_proxy_ptr<_Alty> _Proxy(_Alproxy, _Mypair._Myval2);

	mov	eax, DWORD PTR _this$[ebp]
	push	eax
	mov	ecx, DWORD PTR __Alproxy$[ebp]
	push	ecx
	lea	ecx, DWORD PTR __Proxy$[ebp]
	call	??0?$_Container_proxy_ptr12@V?$allocator@U_Container_proxy@std@@@std@@@std@@QAE@AAV?$allocator@U_Container_proxy@std@@@1@AAU_Container_base12@1@@Z ; std::_Container_proxy_ptr12<std::allocator<std::_Container_proxy> >::_Container_proxy_ptr12<std::allocator<std::_Container_proxy> >
	mov	BYTE PTR __$EHRec$[ebp+8], 1

; 2486 :         _Tidy_init();

	mov	ecx, DWORD PTR _this$[ebp]
	call	?_Tidy_init@?$basic_string@DU?$char_traits@D@std@@V?$allocator@D@2@@std@@AAEXXZ ; std::basic_string<char,std::char_traits<char>,std::allocator<char> >::_Tidy_init

; 2487 :         assign(_Ptr);

	mov	eax, DWORD PTR __Ptr$[ebp]
	push	eax
	mov	ecx, DWORD PTR _this$[ebp]
	call	?assign@?$basic_string@DU?$char_traits@D@std@@V?$allocator@D@2@@std@@QAEAAV12@QBD@Z ; std::basic_string<char,std::char_traits<char>,std::allocator<char> >::assign

; 2488 :         _Proxy._Release();

	lea	ecx, DWORD PTR __Proxy$[ebp]
	call	?_Release@_Basic_container_proxy_ptr12@std@@QAEXXZ ; std::_Basic_container_proxy_ptr12::_Release

; 2489 :     }

	mov	BYTE PTR __$EHRec$[ebp+8], 0
	lea	ecx, DWORD PTR __Proxy$[ebp]
	call	??1?$_Container_proxy_ptr12@V?$allocator@U_Container_proxy@std@@@std@@@std@@QAE@XZ ; std::_Container_proxy_ptr12<std::allocator<std::_Container_proxy> >::~_Container_proxy_ptr12<std::allocator<std::_Container_proxy> >
	mov	DWORD PTR __$EHRec$[ebp+8], -1
	mov	eax, DWORD PTR _this$[ebp]
	push	edx
	mov	ecx, ebp
	push	eax
	lea	edx, DWORD PTR $LN9@basic_stri
	call	@_RTC_CheckStackVars@8
	pop	eax
	pop	edx
	mov	ecx, DWORD PTR __$EHRec$[ebp]
	mov	DWORD PTR fs:0, ecx
	pop	ecx
	pop	edi
	pop	esi
	pop	ebx
	mov	ecx, DWORD PTR __$ArrayPad$[ebp]
	xor	ecx, ebp
	call	@__security_check_cookie@4
	add	esp, 272				; 00000110H
	cmp	ebp, esp
	call	__RTC_CheckEsp
	mov	esp, ebp
	pop	ebp
	ret	4
$LN9@basic_stri:
	DD	2
	DD	$LN8@basic_stri
$LN8@basic_stri:
	DD	-45					; ffffffd3H
	DD	1
	DD	$LN5@basic_stri
	DD	-64					; ffffffc0H
	DD	8
	DD	$LN6@basic_stri
$LN6@basic_stri:
	DB	95					; 0000005fH
	DB	80					; 00000050H
	DB	114					; 00000072H
	DB	111					; 0000006fH
	DB	120					; 00000078H
	DB	121					; 00000079H
	DB	0
$LN5@basic_stri:
	DB	36					; 00000024H
	DB	83					; 00000053H
	DB	49					; 00000031H
	DB	48					; 00000030H
	DB	0
_TEXT	ENDS
;	COMDAT text$x
text$x	SEGMENT
__unwindfunclet$??0?$basic_string@DU?$char_traits@D@std@@V?$allocator@D@2@@std@@QAE@QBD@Z$0:
	mov	ecx, DWORD PTR _this$[ebp]
	jmp	??1?$_Compressed_pair@V?$allocator@D@std@@V?$_String_val@U?$_Simple_types@D@std@@@2@$00@std@@QAE@XZ
__unwindfunclet$??0?$basic_string@DU?$char_traits@D@std@@V?$allocator@D@2@@std@@QAE@QBD@Z$1:
	lea	ecx, DWORD PTR __Proxy$[ebp]
	jmp	??1?$_Container_proxy_ptr12@V?$allocator@U_Container_proxy@std@@@std@@@std@@QAE@XZ ; std::_Container_proxy_ptr12<std::allocator<std::_Container_proxy> >::~_Container_proxy_ptr12<std::allocator<std::_Container_proxy> >
	int	3
	int	3
	int	3
	int	3
	int	3
__ehhandler$??0?$basic_string@DU?$char_traits@D@std@@V?$allocator@D@2@@std@@QAE@QBD@Z:
	npad	1
	npad	1
	mov	edx, DWORD PTR [esp+8]
	lea	eax, DWORD PTR [edx+12]
	mov	ecx, DWORD PTR [edx-276]
	xor	ecx, eax
	call	@__security_check_cookie@4
	mov	ecx, DWORD PTR [edx-4]
	xor	ecx, eax
	call	@__security_check_cookie@4
	mov	eax, OFFSET __ehfuncinfo$??0?$basic_string@DU?$char_traits@D@std@@V?$allocator@D@2@@std@@QAE@QBD@Z
	jmp	___CxxFrameHandler3
text$x	ENDS
??0?$basic_string@DU?$char_traits@D@std@@V?$allocator@D@2@@std@@QAE@QBD@Z ENDP ; std::basic_string<char,std::char_traits<char>,std::allocator<char> >::basic_string<char,std::char_traits<char>,std::allocator<char> >
; Function compile flags: /Odtp /RTCsu /ZI
; File C:\Program Files (x86)\Microsoft Visual Studio\2019\Community\VC\Tools\MSVC\14.29.30133\include\xstring
;	COMDAT ??0?$basic_string@DU?$char_traits@D@std@@V?$allocator@D@2@@std@@QAE@QBDI@Z
_TEXT	SEGMENT
$T2 = -265						; size = 1
__Proxy$ = -64						; size = 8
_$S11$ = -45						; size = 1
__Alproxy$ = -36					; size = 4
_this$ = -24						; size = 4
__$ArrayPad$ = -16					; size = 4
__$EHRec$ = -12						; size = 12
__Ptr$ = 8						; size = 4
__Count$ = 12						; size = 4
??0?$basic_string@DU?$char_traits@D@std@@V?$allocator@D@2@@std@@QAE@QBDI@Z PROC ; std::basic_string<char,std::char_traits<char>,std::allocator<char> >::basic_string<char,std::char_traits<char>,std::allocator<char> >, COMDAT
; _this$ = ecx

; 2465 :         : _Mypair(_Zero_then_variadic_args_t{}) {

	push	ebp
	mov	ebp, esp
	push	-1
	push	__ehhandler$??0?$basic_string@DU?$char_traits@D@std@@V?$allocator@D@2@@std@@QAE@QBDI@Z
	mov	eax, DWORD PTR fs:0
	push	eax
	sub	esp, 260				; 00000104H
	push	ebx
	push	esi
	push	edi
	push	ecx
	lea	edi, DWORD PTR [ebp-80]
	mov	ecx, 17					; 00000011H
	mov	eax, -858993460				; ccccccccH
	rep stosd
	pop	ecx
	mov	eax, DWORD PTR ___security_cookie
	xor	eax, ebp
	mov	DWORD PTR __$ArrayPad$[ebp], eax
	push	eax
	lea	eax, DWORD PTR __$EHRec$[ebp]
	mov	DWORD PTR fs:0, eax
	mov	DWORD PTR _this$[ebp], ecx
	mov	ecx, OFFSET __0D019051_xstring
	call	@__CheckForDebuggerJustMyCode@4
	movzx	eax, BYTE PTR $T2[ebp]
	push	eax
	mov	ecx, DWORD PTR _this$[ebp]
	call	??$?0$$V@?$_Compressed_pair@V?$allocator@D@std@@V?$_String_val@U?$_Simple_types@D@std@@@2@$00@std@@QAE@U_Zero_then_variadic_args_t@1@@Z ; std::_Compressed_pair<std::allocator<char>,std::_String_val<std::_Simple_types<char> >,1>::_Compressed_pair<std::allocator<char>,std::_String_val<std::_Simple_types<char> >,1><>
	mov	DWORD PTR __$EHRec$[ebp+8], 0

; 2466 :         auto&& _Alproxy = _GET_PROXY_ALLOCATOR(_Alty, _Getal());

	mov	ecx, DWORD PTR _this$[ebp]
	call	?_Getal@?$basic_string@DU?$char_traits@D@std@@V?$allocator@D@2@@std@@AAEAAV?$allocator@D@2@XZ ; std::basic_string<char,std::char_traits<char>,std::allocator<char> >::_Getal
	push	eax
	lea	ecx, DWORD PTR _$S11$[ebp]
	call	??$?0D@?$allocator@U_Container_proxy@std@@@std@@QAE@ABV?$allocator@D@1@@Z ; std::allocator<std::_Container_proxy>::allocator<std::_Container_proxy><char>
	lea	eax, DWORD PTR _$S11$[ebp]
	mov	DWORD PTR __Alproxy$[ebp], eax

; 2467 :         _Container_proxy_ptr<_Alty> _Proxy(_Alproxy, _Mypair._Myval2);

	mov	eax, DWORD PTR _this$[ebp]
	push	eax
	mov	ecx, DWORD PTR __Alproxy$[ebp]
	push	ecx
	lea	ecx, DWORD PTR __Proxy$[ebp]
	call	??0?$_Container_proxy_ptr12@V?$allocator@U_Container_proxy@std@@@std@@@std@@QAE@AAV?$allocator@U_Container_proxy@std@@@1@AAU_Container_base12@1@@Z ; std::_Container_proxy_ptr12<std::allocator<std::_Container_proxy> >::_Container_proxy_ptr12<std::allocator<std::_Container_proxy> >
	mov	BYTE PTR __$EHRec$[ebp+8], 1

; 2468 :         _Tidy_init();

	mov	ecx, DWORD PTR _this$[ebp]
	call	?_Tidy_init@?$basic_string@DU?$char_traits@D@std@@V?$allocator@D@2@@std@@AAEXXZ ; std::basic_string<char,std::char_traits<char>,std::allocator<char> >::_Tidy_init

; 2469 :         assign(_Ptr, _Count);

	mov	eax, DWORD PTR __Count$[ebp]
	push	eax
	mov	ecx, DWORD PTR __Ptr$[ebp]
	push	ecx
	mov	ecx, DWORD PTR _this$[ebp]
	call	?assign@?$basic_string@DU?$char_traits@D@std@@V?$allocator@D@2@@std@@QAEAAV12@QBDI@Z ; std::basic_string<char,std::char_traits<char>,std::allocator<char> >::assign

; 2470 :         _Proxy._Release();

	lea	ecx, DWORD PTR __Proxy$[ebp]
	call	?_Release@_Basic_container_proxy_ptr12@std@@QAEXXZ ; std::_Basic_container_proxy_ptr12::_Release

; 2471 :     }

	mov	BYTE PTR __$EHRec$[ebp+8], 0
	lea	ecx, DWORD PTR __Proxy$[ebp]
	call	??1?$_Container_proxy_ptr12@V?$allocator@U_Container_proxy@std@@@std@@@std@@QAE@XZ ; std::_Container_proxy_ptr12<std::allocator<std::_Container_proxy> >::~_Container_proxy_ptr12<std::allocator<std::_Container_proxy> >
	mov	DWORD PTR __$EHRec$[ebp+8], -1
	mov	eax, DWORD PTR _this$[ebp]
	push	edx
	mov	ecx, ebp
	push	eax
	lea	edx, DWORD PTR $LN9@basic_stri
	call	@_RTC_CheckStackVars@8
	pop	eax
	pop	edx
	mov	ecx, DWORD PTR __$EHRec$[ebp]
	mov	DWORD PTR fs:0, ecx
	pop	ecx
	pop	edi
	pop	esi
	pop	ebx
	mov	ecx, DWORD PTR __$ArrayPad$[ebp]
	xor	ecx, ebp
	call	@__security_check_cookie@4
	add	esp, 272				; 00000110H
	cmp	ebp, esp
	call	__RTC_CheckEsp
	mov	esp, ebp
	pop	ebp
	ret	8
$LN9@basic_stri:
	DD	2
	DD	$LN8@basic_stri
$LN8@basic_stri:
	DD	-45					; ffffffd3H
	DD	1
	DD	$LN5@basic_stri
	DD	-64					; ffffffc0H
	DD	8
	DD	$LN6@basic_stri
$LN6@basic_stri:
	DB	95					; 0000005fH
	DB	80					; 00000050H
	DB	114					; 00000072H
	DB	111					; 0000006fH
	DB	120					; 00000078H
	DB	121					; 00000079H
	DB	0
$LN5@basic_stri:
	DB	36					; 00000024H
	DB	83					; 00000053H
	DB	49					; 00000031H
	DB	49					; 00000031H
	DB	0
_TEXT	ENDS
;	COMDAT text$x
text$x	SEGMENT
__unwindfunclet$??0?$basic_string@DU?$char_traits@D@std@@V?$allocator@D@2@@std@@QAE@QBDI@Z$0:
	mov	ecx, DWORD PTR _this$[ebp]
	jmp	??1?$_Compressed_pair@V?$allocator@D@std@@V?$_String_val@U?$_Simple_types@D@std@@@2@$00@std@@QAE@XZ
__unwindfunclet$??0?$basic_string@DU?$char_traits@D@std@@V?$allocator@D@2@@std@@QAE@QBDI@Z$1:
	lea	ecx, DWORD PTR __Proxy$[ebp]
	jmp	??1?$_Container_proxy_ptr12@V?$allocator@U_Container_proxy@std@@@std@@@std@@QAE@XZ ; std::_Container_proxy_ptr12<std::allocator<std::_Container_proxy> >::~_Container_proxy_ptr12<std::allocator<std::_Container_proxy> >
	int	3
	int	3
	int	3
	int	3
	int	3
__ehhandler$??0?$basic_string@DU?$char_traits@D@std@@V?$allocator@D@2@@std@@QAE@QBDI@Z:
	npad	1
	npad	1
	mov	edx, DWORD PTR [esp+8]
	lea	eax, DWORD PTR [edx+12]
	mov	ecx, DWORD PTR [edx-276]
	xor	ecx, eax
	call	@__security_check_cookie@4
	mov	ecx, DWORD PTR [edx-4]
	xor	ecx, eax
	call	@__security_check_cookie@4
	mov	eax, OFFSET __ehfuncinfo$??0?$basic_string@DU?$char_traits@D@std@@V?$allocator@D@2@@std@@QAE@QBDI@Z
	jmp	___CxxFrameHandler3
text$x	ENDS
??0?$basic_string@DU?$char_traits@D@std@@V?$allocator@D@2@@std@@QAE@QBDI@Z ENDP ; std::basic_string<char,std::char_traits<char>,std::allocator<char> >::basic_string<char,std::char_traits<char>,std::allocator<char> >
; Function compile flags: /Odtp /RTCsu /ZI
;	COMDAT ??1?$_String_val@U?$_Simple_types@D@std@@@std@@QAE@XZ
_TEXT	SEGMENT
_this$ = -8						; size = 4
??1?$_String_val@U?$_Simple_types@D@std@@@std@@QAE@XZ PROC ; std::_String_val<std::_Simple_types<char> >::~_String_val<std::_Simple_types<char> >, COMDAT
; _this$ = ecx
	push	ebp
	mov	ebp, esp
	sub	esp, 204				; 000000ccH
	push	ebx
	push	esi
	push	edi
	push	ecx
	lea	edi, DWORD PTR [ebp-12]
	mov	ecx, 3
	mov	eax, -858993460				; ccccccccH
	rep stosd
	pop	ecx
	mov	DWORD PTR _this$[ebp], ecx
	mov	ecx, DWORD PTR _this$[ebp]
	add	ecx, 4
	call	??1_Bxty@?$_String_val@U?$_Simple_types@D@std@@@std@@QAE@XZ ; std::_String_val<std::_Simple_types<char> >::_Bxty::~_Bxty
	pop	edi
	pop	esi
	pop	ebx
	add	esp, 204				; 000000ccH
	cmp	ebp, esp
	call	__RTC_CheckEsp
	mov	esp, ebp
	pop	ebp
	ret	0
??1?$_String_val@U?$_Simple_types@D@std@@@std@@QAE@XZ ENDP ; std::_String_val<std::_Simple_types<char> >::~_String_val<std::_Simple_types<char> >
_TEXT	ENDS
; Function compile flags: /Odtp /RTCsu /ZI
; File C:\Program Files (x86)\Microsoft Visual Studio\2019\Community\VC\Tools\MSVC\14.29.30133\include\xstring
;	COMDAT ??1_Bxty@?$_String_val@U?$_Simple_types@D@std@@@std@@QAE@XZ
_TEXT	SEGMENT
_this$ = -8						; size = 4
??1_Bxty@?$_String_val@U?$_Simple_types@D@std@@@std@@QAE@XZ PROC ; std::_String_val<std::_Simple_types<char> >::_Bxty::~_Bxty, COMDAT
; _this$ = ecx

; 2315 :         _CONSTEXPR20_CONTAINER ~_Bxty() noexcept {} // user-provided, for fancy pointers

	push	ebp
	mov	ebp, esp
	sub	esp, 204				; 000000ccH
	push	ebx
	push	esi
	push	edi
	push	ecx
	lea	edi, DWORD PTR [ebp-12]
	mov	ecx, 3
	mov	eax, -858993460				; ccccccccH
	rep stosd
	pop	ecx
	mov	DWORD PTR _this$[ebp], ecx
	mov	ecx, OFFSET __0D019051_xstring
	call	@__CheckForDebuggerJustMyCode@4
	pop	edi
	pop	esi
	pop	ebx
	add	esp, 204				; 000000ccH
	cmp	ebp, esp
	call	__RTC_CheckEsp
	mov	esp, ebp
	pop	ebp
	ret	0
??1_Bxty@?$_String_val@U?$_Simple_types@D@std@@@std@@QAE@XZ ENDP ; std::_String_val<std::_Simple_types<char> >::_Bxty::~_Bxty
_TEXT	ENDS
; Function compile flags: /Odtp /RTCsu /ZI
; File C:\Program Files (x86)\Microsoft Visual Studio\2019\Community\VC\Tools\MSVC\14.29.30133\include\xstring
;	COMDAT ??0_Bxty@?$_String_val@U?$_Simple_types@D@std@@@std@@QAE@XZ
_TEXT	SEGMENT
_this$ = -8						; size = 4
??0_Bxty@?$_String_val@U?$_Simple_types@D@std@@@std@@QAE@XZ PROC ; std::_String_val<std::_Simple_types<char> >::_Bxty::_Bxty, COMDAT
; _this$ = ecx

; 2313 :         _CONSTEXPR20_CONTAINER _Bxty() noexcept : _Ptr() {} // user-provided, for fancy pointers

	push	ebp
	mov	ebp, esp
	sub	esp, 204				; 000000ccH
	push	ebx
	push	esi
	push	edi
	push	ecx
	lea	edi, DWORD PTR [ebp-12]
	mov	ecx, 3
	mov	eax, -858993460				; ccccccccH
	rep stosd
	pop	ecx
	mov	DWORD PTR _this$[ebp], ecx
	mov	ecx, OFFSET __0D019051_xstring
	call	@__CheckForDebuggerJustMyCode@4
	mov	eax, DWORD PTR _this$[ebp]
	mov	DWORD PTR [eax], 0
	mov	eax, DWORD PTR _this$[ebp]
	pop	edi
	pop	esi
	pop	ebx
	add	esp, 204				; 000000ccH
	cmp	ebp, esp
	call	__RTC_CheckEsp
	mov	esp, ebp
	pop	ebp
	ret	0
??0_Bxty@?$_String_val@U?$_Simple_types@D@std@@@std@@QAE@XZ ENDP ; std::_String_val<std::_Simple_types<char> >::_Bxty::_Bxty
_TEXT	ENDS
; Function compile flags: /Odtp /RTCsu /ZI
; File C:\Program Files (x86)\Microsoft Visual Studio\2019\Community\VC\Tools\MSVC\14.29.30133\include\xstring
;	COMDAT ?_Large_string_engaged@?$_String_val@U?$_Simple_types@D@std@@@std@@QBE_NXZ
_TEXT	SEGMENT
tv66 = -208						; size = 4
_this$ = -8						; size = 4
?_Large_string_engaged@?$_String_val@U?$_Simple_types@D@std@@@std@@QBE_NXZ PROC ; std::_String_val<std::_Simple_types<char> >::_Large_string_engaged, COMDAT
; _this$ = ecx

; 2280 :     _CONSTEXPR20_CONTAINER bool _Large_string_engaged() const noexcept {

	push	ebp
	mov	ebp, esp
	sub	esp, 208				; 000000d0H
	push	ebx
	push	esi
	push	edi
	push	ecx
	lea	edi, DWORD PTR [ebp-16]
	mov	ecx, 4
	mov	eax, -858993460				; ccccccccH
	rep stosd
	pop	ecx
	mov	DWORD PTR _this$[ebp], ecx
	mov	ecx, OFFSET __0D019051_xstring
	call	@__CheckForDebuggerJustMyCode@4

; 2281 : #ifdef __cpp_lib_constexpr_string
; 2282 :         if (_STD is_constant_evaluated()) {
; 2283 :             return true;
; 2284 :         }
; 2285 : #endif // __cpp_lib_constexpr_string
; 2286 :         return _BUF_SIZE <= _Myres;

	mov	eax, DWORD PTR _this$[ebp]
	cmp	DWORD PTR [eax+24], 16			; 00000010H
	jb	SHORT $LN3@Large_stri
	mov	DWORD PTR tv66[ebp], 1
	jmp	SHORT $LN4@Large_stri
$LN3@Large_stri:
	mov	DWORD PTR tv66[ebp], 0
$LN4@Large_stri:
	mov	al, BYTE PTR tv66[ebp]

; 2287 :     }

	pop	edi
	pop	esi
	pop	ebx
	add	esp, 208				; 000000d0H
	cmp	ebp, esp
	call	__RTC_CheckEsp
	mov	esp, ebp
	pop	ebp
	ret	0
?_Large_string_engaged@?$_String_val@U?$_Simple_types@D@std@@@std@@QBE_NXZ ENDP ; std::_String_val<std::_Simple_types<char> >::_Large_string_engaged
_TEXT	ENDS
; Function compile flags: /Odtp /RTCsu /ZI
; File C:\Program Files (x86)\Microsoft Visual Studio\2019\Community\VC\Tools\MSVC\14.29.30133\include\xstring
;	COMDAT ?_Myptr@?$_String_val@U?$_Simple_types@D@std@@@std@@QBEPBDXZ
_TEXT	SEGMENT
__Result$ = -20						; size = 4
_this$ = -8						; size = 4
?_Myptr@?$_String_val@U?$_Simple_types@D@std@@@std@@QBEPBDXZ PROC ; std::_String_val<std::_Simple_types<char> >::_Myptr, COMDAT
; _this$ = ecx

; 2271 :     _CONSTEXPR20_CONTAINER const value_type* _Myptr() const noexcept {

	push	ebp
	mov	ebp, esp
	sub	esp, 216				; 000000d8H
	push	ebx
	push	esi
	push	edi
	push	ecx
	lea	edi, DWORD PTR [ebp-24]
	mov	ecx, 6
	mov	eax, -858993460				; ccccccccH
	rep stosd
	pop	ecx
	mov	DWORD PTR _this$[ebp], ecx
	mov	ecx, OFFSET __0D019051_xstring
	call	@__CheckForDebuggerJustMyCode@4

; 2272 :         const value_type* _Result = _Bx._Buf;

	mov	eax, DWORD PTR _this$[ebp]
	add	eax, 4
	mov	DWORD PTR __Result$[ebp], eax

; 2273 :         if (_Large_string_engaged()) {

	mov	ecx, DWORD PTR _this$[ebp]
	call	?_Large_string_engaged@?$_String_val@U?$_Simple_types@D@std@@@std@@QBE_NXZ ; std::_String_val<std::_Simple_types<char> >::_Large_string_engaged
	movzx	eax, al
	test	eax, eax
	je	SHORT $LN2@Myptr

; 2274 :             _Result = _Unfancy(_Bx._Ptr);

	mov	eax, DWORD PTR _this$[ebp]
	mov	ecx, DWORD PTR [eax+4]
	push	ecx
	call	??$_Unfancy@D@std@@YAPADPAD@Z		; std::_Unfancy<char>
	add	esp, 4
	mov	DWORD PTR __Result$[ebp], eax
$LN2@Myptr:

; 2275 :         }
; 2276 : 
; 2277 :         return _Result;

	mov	eax, DWORD PTR __Result$[ebp]

; 2278 :     }

	pop	edi
	pop	esi
	pop	ebx
	add	esp, 216				; 000000d8H
	cmp	ebp, esp
	call	__RTC_CheckEsp
	mov	esp, ebp
	pop	ebp
	ret	0
?_Myptr@?$_String_val@U?$_Simple_types@D@std@@@std@@QBEPBDXZ ENDP ; std::_String_val<std::_Simple_types<char> >::_Myptr
_TEXT	ENDS
; Function compile flags: /Odtp /RTCsu /ZI
; File C:\Program Files (x86)\Microsoft Visual Studio\2019\Community\VC\Tools\MSVC\14.29.30133\include\xstring
;	COMDAT ?_Myptr@?$_String_val@U?$_Simple_types@D@std@@@std@@QAEPADXZ
_TEXT	SEGMENT
__Result$ = -20						; size = 4
_this$ = -8						; size = 4
?_Myptr@?$_String_val@U?$_Simple_types@D@std@@@std@@QAEPADXZ PROC ; std::_String_val<std::_Simple_types<char> >::_Myptr, COMDAT
; _this$ = ecx

; 2262 :     _CONSTEXPR20_CONTAINER value_type* _Myptr() noexcept {

	push	ebp
	mov	ebp, esp
	sub	esp, 216				; 000000d8H
	push	ebx
	push	esi
	push	edi
	push	ecx
	lea	edi, DWORD PTR [ebp-24]
	mov	ecx, 6
	mov	eax, -858993460				; ccccccccH
	rep stosd
	pop	ecx
	mov	DWORD PTR _this$[ebp], ecx
	mov	ecx, OFFSET __0D019051_xstring
	call	@__CheckForDebuggerJustMyCode@4

; 2263 :         value_type* _Result = _Bx._Buf;

	mov	eax, DWORD PTR _this$[ebp]
	add	eax, 4
	mov	DWORD PTR __Result$[ebp], eax

; 2264 :         if (_Large_string_engaged()) {

	mov	ecx, DWORD PTR _this$[ebp]
	call	?_Large_string_engaged@?$_String_val@U?$_Simple_types@D@std@@@std@@QBE_NXZ ; std::_String_val<std::_Simple_types<char> >::_Large_string_engaged
	movzx	eax, al
	test	eax, eax
	je	SHORT $LN2@Myptr

; 2265 :             _Result = _Unfancy(_Bx._Ptr);

	mov	eax, DWORD PTR _this$[ebp]
	mov	ecx, DWORD PTR [eax+4]
	push	ecx
	call	??$_Unfancy@D@std@@YAPADPAD@Z		; std::_Unfancy<char>
	add	esp, 4
	mov	DWORD PTR __Result$[ebp], eax
$LN2@Myptr:

; 2266 :         }
; 2267 : 
; 2268 :         return _Result;

	mov	eax, DWORD PTR __Result$[ebp]

; 2269 :     }

	pop	edi
	pop	esi
	pop	ebx
	add	esp, 216				; 000000d8H
	cmp	ebp, esp
	call	__RTC_CheckEsp
	mov	esp, ebp
	pop	ebp
	ret	0
?_Myptr@?$_String_val@U?$_Simple_types@D@std@@@std@@QAEPADXZ ENDP ; std::_String_val<std::_Simple_types<char> >::_Myptr
_TEXT	ENDS
; Function compile flags: /Odtp /RTCsu /ZI
; File C:\Program Files (x86)\Microsoft Visual Studio\2019\Community\VC\Tools\MSVC\14.29.30133\include\xstring
;	COMDAT ??0?$_String_val@U?$_Simple_types@D@std@@@std@@QAE@XZ
_TEXT	SEGMENT
_this$ = -8						; size = 4
??0?$_String_val@U?$_Simple_types@D@std@@@std@@QAE@XZ PROC ; std::_String_val<std::_Simple_types<char> >::_String_val<std::_Simple_types<char> >, COMDAT
; _this$ = ecx

; 2251 :     _CONSTEXPR20_CONTAINER _String_val() noexcept : _Bx() {}

	push	ebp
	mov	ebp, esp
	sub	esp, 204				; 000000ccH
	push	ebx
	push	esi
	push	edi
	push	ecx
	lea	edi, DWORD PTR [ebp-12]
	mov	ecx, 3
	mov	eax, -858993460				; ccccccccH
	rep stosd
	pop	ecx
	mov	DWORD PTR _this$[ebp], ecx
	mov	ecx, OFFSET __0D019051_xstring
	call	@__CheckForDebuggerJustMyCode@4
	mov	ecx, DWORD PTR _this$[ebp]
	call	??0_Container_base12@std@@QAE@XZ	; std::_Container_base12::_Container_base12
	mov	ecx, DWORD PTR _this$[ebp]
	add	ecx, 4
	call	??0_Bxty@?$_String_val@U?$_Simple_types@D@std@@@std@@QAE@XZ ; std::_String_val<std::_Simple_types<char> >::_Bxty::_Bxty

; 2252 : 
; 2253 :     // length of internal buffer, [1, 16]:
; 2254 :     static constexpr size_type _BUF_SIZE = 16 / sizeof(value_type) < 1 ? 1 : 16 / sizeof(value_type);
; 2255 :     // roundup mask for allocated buffers, [0, 15]:
; 2256 :     static constexpr size_type _ALLOC_MASK = sizeof(value_type) <= 1 ? 15
; 2257 :                                            : sizeof(value_type) <= 2 ? 7
; 2258 :                                            : sizeof(value_type) <= 4 ? 3
; 2259 :                                            : sizeof(value_type) <= 8 ? 1
; 2260 :                                                                      : 0;
; 2261 : 
; 2262 :     _CONSTEXPR20_CONTAINER value_type* _Myptr() noexcept {
; 2263 :         value_type* _Result = _Bx._Buf;
; 2264 :         if (_Large_string_engaged()) {
; 2265 :             _Result = _Unfancy(_Bx._Ptr);
; 2266 :         }
; 2267 : 
; 2268 :         return _Result;
; 2269 :     }
; 2270 : 
; 2271 :     _CONSTEXPR20_CONTAINER const value_type* _Myptr() const noexcept {
; 2272 :         const value_type* _Result = _Bx._Buf;
; 2273 :         if (_Large_string_engaged()) {
; 2274 :             _Result = _Unfancy(_Bx._Ptr);
; 2275 :         }
; 2276 : 
; 2277 :         return _Result;
; 2278 :     }
; 2279 : 
; 2280 :     _CONSTEXPR20_CONTAINER bool _Large_string_engaged() const noexcept {
; 2281 : #ifdef __cpp_lib_constexpr_string
; 2282 :         if (_STD is_constant_evaluated()) {
; 2283 :             return true;
; 2284 :         }
; 2285 : #endif // __cpp_lib_constexpr_string
; 2286 :         return _BUF_SIZE <= _Myres;
; 2287 :     }
; 2288 : 
; 2289 :     _CONSTEXPR20_CONTAINER void _Check_offset(const size_type _Off) const {
; 2290 :         // checks whether _Off is in the bounds of [0, size()]
; 2291 :         if (_Mysize < _Off) {
; 2292 :             _Xran();
; 2293 :         }
; 2294 :     }
; 2295 : 
; 2296 :     _CONSTEXPR20_CONTAINER void _Check_offset_exclusive(const size_type _Off) const {
; 2297 :         // checks whether _Off is in the bounds of [0, size())
; 2298 :         if (_Mysize <= _Off) {
; 2299 :             _Xran();
; 2300 :         }
; 2301 :     }
; 2302 : 
; 2303 :     [[noreturn]] static void _Xran() {
; 2304 :         _Xout_of_range("invalid string position");
; 2305 :     }
; 2306 : 
; 2307 :     _CONSTEXPR20_CONTAINER size_type _Clamp_suffix_size(const size_type _Off, const size_type _Size) const noexcept {
; 2308 :         // trims _Size to the longest it can be assuming a string at/after _Off
; 2309 :         return (_STD min)(_Size, _Mysize - _Off);
; 2310 :     }
; 2311 : 
; 2312 :     union _Bxty { // storage for small buffer or pointer to larger one
; 2313 :         _CONSTEXPR20_CONTAINER _Bxty() noexcept : _Ptr() {} // user-provided, for fancy pointers
; 2314 : 
; 2315 :         _CONSTEXPR20_CONTAINER ~_Bxty() noexcept {} // user-provided, for fancy pointers
; 2316 : 
; 2317 :         value_type _Buf[_BUF_SIZE];
; 2318 :         pointer _Ptr;
; 2319 :         char _Alias[_BUF_SIZE]; // TRANSITION, ABI: _Alias is preserved for binary compatibility (especially /clr)
; 2320 :     } _Bx;
; 2321 : 
; 2322 :     size_type _Mysize = 0; // current length of string

	mov	eax, DWORD PTR _this$[ebp]
	mov	DWORD PTR [eax+20], 0

; 2323 :     size_type _Myres  = 0; // current storage reserved for string

	mov	eax, DWORD PTR _this$[ebp]
	mov	DWORD PTR [eax+24], 0

; 2251 :     _CONSTEXPR20_CONTAINER _String_val() noexcept : _Bx() {}

	mov	eax, DWORD PTR _this$[ebp]
	pop	edi
	pop	esi
	pop	ebx
	add	esp, 204				; 000000ccH
	cmp	ebp, esp
	call	__RTC_CheckEsp
	mov	esp, ebp
	pop	ebp
	ret	0
??0?$_String_val@U?$_Simple_types@D@std@@@std@@QAE@XZ ENDP ; std::_String_val<std::_Simple_types<char> >::_String_val<std::_Simple_types<char> >
_TEXT	ENDS
; Function compile flags: /Odtp /RTCsu /ZI
; File C:\Program Files (x86)\Microsoft Visual Studio\2019\Community\VC\Tools\MSVC\14.29.30133\include\xmemory
;	COMDAT ?max_size@?$_Default_allocator_traits@V?$allocator@D@std@@@std@@SAIABV?$allocator@D@2@@Z
_TEXT	SEGMENT
___formal$ = 8						; size = 4
?max_size@?$_Default_allocator_traits@V?$allocator@D@std@@@std@@SAIABV?$allocator@D@2@@Z PROC ; std::_Default_allocator_traits<std::allocator<char> >::max_size, COMDAT

; 694  :     _NODISCARD static _CONSTEXPR20_DYNALLOC size_type max_size(const _Alloc&) noexcept {

	push	ebp
	mov	ebp, esp
	sub	esp, 192				; 000000c0H
	push	ebx
	push	esi
	push	edi
	mov	edi, ebp
	xor	ecx, ecx
	mov	eax, -858993460				; ccccccccH
	rep stosd
	mov	ecx, OFFSET __79D216CD_xmemory
	call	@__CheckForDebuggerJustMyCode@4

; 695  :         return static_cast<size_t>(-1) / sizeof(value_type);

	or	eax, -1

; 696  :     }

	pop	edi
	pop	esi
	pop	ebx
	add	esp, 192				; 000000c0H
	cmp	ebp, esp
	call	__RTC_CheckEsp
	mov	esp, ebp
	pop	ebp
	ret	0
?max_size@?$_Default_allocator_traits@V?$allocator@D@std@@@std@@SAIABV?$allocator@D@2@@Z ENDP ; std::_Default_allocator_traits<std::allocator<char> >::max_size
_TEXT	ENDS
; Function compile flags: /Odtp /RTCsu /ZI
; File C:\Program Files (x86)\Microsoft Visual Studio\2019\Community\VC\Tools\MSVC\14.29.30133\include\xmemory
;	COMDAT ?allocate@?$allocator@D@std@@QAEPADI@Z
_TEXT	SEGMENT
_this$ = -8						; size = 4
__Count$ = 8						; size = 4
?allocate@?$allocator@D@std@@QAEPADI@Z PROC		; std::allocator<char>::allocate, COMDAT
; _this$ = ecx

; 800  :     _NODISCARD _CONSTEXPR20_DYNALLOC __declspec(allocator) _Ty* allocate(_CRT_GUARDOVERFLOW const size_t _Count) {

	push	ebp
	mov	ebp, esp
	sub	esp, 204				; 000000ccH
	push	ebx
	push	esi
	push	edi
	push	ecx
	lea	edi, DWORD PTR [ebp-12]
	mov	ecx, 3
	mov	eax, -858993460				; ccccccccH
	rep stosd
	pop	ecx
	mov	DWORD PTR _this$[ebp], ecx
	mov	ecx, OFFSET __79D216CD_xmemory
	call	@__CheckForDebuggerJustMyCode@4

; 801  :         return static_cast<_Ty*>(_Allocate<_New_alignof<_Ty>>(_Get_size_of_n<sizeof(_Ty)>(_Count)));

	mov	eax, DWORD PTR __Count$[ebp]
	push	eax
	call	??$_Get_size_of_n@$00@std@@YAII@Z	; std::_Get_size_of_n<1>
	add	esp, 4
	push	eax
	call	??$_Allocate@$07U_Default_allocate_traits@std@@$0A@@std@@YAPAXI@Z ; std::_Allocate<8,std::_Default_allocate_traits,0>
	add	esp, 4

; 802  :     }

	pop	edi
	pop	esi
	pop	ebx
	add	esp, 204				; 000000ccH
	cmp	ebp, esp
	call	__RTC_CheckEsp
	mov	esp, ebp
	pop	ebp
	ret	4
?allocate@?$allocator@D@std@@QAEPADI@Z ENDP		; std::allocator<char>::allocate
_TEXT	ENDS
; Function compile flags: /Odtp /RTCsu /ZI
; File C:\Program Files (x86)\Microsoft Visual Studio\2019\Community\VC\Tools\MSVC\14.29.30133\include\xmemory
;	COMDAT ?deallocate@?$allocator@D@std@@QAEXQADI@Z
_TEXT	SEGMENT
_this$ = -8						; size = 4
__Ptr$ = 8						; size = 4
__Count$ = 12						; size = 4
?deallocate@?$allocator@D@std@@QAEXQADI@Z PROC		; std::allocator<char>::deallocate, COMDAT
; _this$ = ecx

; 795  :     _CONSTEXPR20_DYNALLOC void deallocate(_Ty* const _Ptr, const size_t _Count) {

	push	ebp
	mov	ebp, esp
	sub	esp, 204				; 000000ccH
	push	ebx
	push	esi
	push	edi
	push	ecx
	lea	edi, DWORD PTR [ebp-12]
	mov	ecx, 3
	mov	eax, -858993460				; ccccccccH
	rep stosd
	pop	ecx
	mov	DWORD PTR _this$[ebp], ecx
	mov	ecx, OFFSET __79D216CD_xmemory
	call	@__CheckForDebuggerJustMyCode@4

; 796  :         // no overflow check on the following multiply; we assume _Allocate did that check
; 797  :         _Deallocate<_New_alignof<_Ty>>(_Ptr, sizeof(_Ty) * _Count);

	mov	eax, DWORD PTR __Count$[ebp]
	push	eax
	mov	ecx, DWORD PTR __Ptr$[ebp]
	push	ecx
	call	??$_Deallocate@$07$0A@@std@@YAXPAXI@Z	; std::_Deallocate<8,0>
	add	esp, 8

; 798  :     }

	pop	edi
	pop	esi
	pop	ebx
	add	esp, 204				; 000000ccH
	cmp	ebp, esp
	call	__RTC_CheckEsp
	mov	esp, ebp
	pop	ebp
	ret	8
?deallocate@?$allocator@D@std@@QAEXQADI@Z ENDP		; std::allocator<char>::deallocate
_TEXT	ENDS
; Function compile flags: /Odtp /RTCsu /ZI
; File C:\Program Files (x86)\Microsoft Visual Studio\2019\Community\VC\Tools\MSVC\14.29.30133\include\xmemory
;	COMDAT ??0?$allocator@D@std@@QAE@XZ
_TEXT	SEGMENT
_this$ = -8						; size = 4
??0?$allocator@D@std@@QAE@XZ PROC			; std::allocator<char>::allocator<char>, COMDAT
; _this$ = ecx

; 787  :     constexpr allocator() noexcept {}

	push	ebp
	mov	ebp, esp
	sub	esp, 204				; 000000ccH
	push	ebx
	push	esi
	push	edi
	push	ecx
	lea	edi, DWORD PTR [ebp-12]
	mov	ecx, 3
	mov	eax, -858993460				; ccccccccH
	rep stosd
	pop	ecx
	mov	DWORD PTR _this$[ebp], ecx
	mov	ecx, OFFSET __79D216CD_xmemory
	call	@__CheckForDebuggerJustMyCode@4
	mov	eax, DWORD PTR _this$[ebp]
	pop	edi
	pop	esi
	pop	ebx
	add	esp, 204				; 000000ccH
	cmp	ebp, esp
	call	__RTC_CheckEsp
	mov	esp, ebp
	pop	ebp
	ret	0
??0?$allocator@D@std@@QAE@XZ ENDP			; std::allocator<char>::allocator<char>
_TEXT	ENDS
; Function compile flags: /Odtp /RTCsu /ZI
; File C:\Program Files (x86)\Microsoft Visual Studio\2019\Community\VC\Tools\MSVC\14.29.30133\include\xstring
;	COMDAT ??__Ks@string_literals@literals@std@@YA?AV?$basic_string@DU?$char_traits@D@std@@V?$allocator@D@2@@3@PBDI@Z
_TEXT	SEGMENT
$T1 = -200						; size = 4
___$ReturnUdt$ = 8					; size = 4
__Str$ = 12						; size = 4
__Len$ = 16						; size = 4
??__Ks@string_literals@literals@std@@YA?AV?$basic_string@DU?$char_traits@D@std@@V?$allocator@D@2@@3@PBDI@Z PROC ; std::literals::string_literals::operator "" s, COMDAT

; 4959 :         _NODISCARD _CONSTEXPR20_STRING_LITERALS string operator"" s(const char* _Str, size_t _Len) {

	push	ebp
	mov	ebp, esp
	sub	esp, 204				; 000000ccH
	push	ebx
	push	esi
	push	edi
	lea	edi, DWORD PTR [ebp-12]
	mov	ecx, 3
	mov	eax, -858993460				; ccccccccH
	rep stosd
	mov	DWORD PTR $T1[ebp], 0
	mov	ecx, OFFSET __0D019051_xstring
	call	@__CheckForDebuggerJustMyCode@4

; 4960 :             return string(_Str, _Len);

	mov	eax, DWORD PTR __Len$[ebp]
	push	eax
	mov	ecx, DWORD PTR __Str$[ebp]
	push	ecx
	mov	ecx, DWORD PTR ___$ReturnUdt$[ebp]
	call	??0?$basic_string@DU?$char_traits@D@std@@V?$allocator@D@2@@std@@QAE@QBDI@Z ; std::basic_string<char,std::char_traits<char>,std::allocator<char> >::basic_string<char,std::char_traits<char>,std::allocator<char> >
	mov	edx, DWORD PTR $T1[ebp]
	or	edx, 1
	mov	DWORD PTR $T1[ebp], edx
	mov	eax, DWORD PTR ___$ReturnUdt$[ebp]

; 4961 :         }

	pop	edi
	pop	esi
	pop	ebx
	add	esp, 204				; 000000ccH
	cmp	ebp, esp
	call	__RTC_CheckEsp
	mov	esp, ebp
	pop	ebp
	ret	0
??__Ks@string_literals@literals@std@@YA?AV?$basic_string@DU?$char_traits@D@std@@V?$allocator@D@2@@3@PBDI@Z ENDP ; std::literals::string_literals::operator "" s
_TEXT	ENDS
; Function compile flags: /Odtp /RTCsu /ZI
; File C:\Program Files (x86)\Microsoft Visual Studio\2019\Community\VC\Tools\MSVC\14.29.30133\include\xstring
;	COMDAT ?_Xlen_string@std@@YAXXZ
_TEXT	SEGMENT
?_Xlen_string@std@@YAXXZ PROC				; std::_Xlen_string, COMDAT

; 2339 : [[noreturn]] inline void _Xlen_string() {

	push	ebp
	mov	ebp, esp
	sub	esp, 192				; 000000c0H
	push	ebx
	push	esi
	push	edi
	mov	edi, ebp
	xor	ecx, ecx
	mov	eax, -858993460				; ccccccccH
	rep stosd
	mov	ecx, OFFSET __0D019051_xstring
	call	@__CheckForDebuggerJustMyCode@4

; 2340 :     _Xlength_error("string too long");

	push	OFFSET ??_C@_0BA@JFNIOLAK@string?5too?5long@
	call	?_Xlength_error@std@@YAXPBD@Z		; std::_Xlength_error
$LN2@Xlen_strin:

; 2341 : }

	pop	edi
	pop	esi
	pop	ebx
	add	esp, 192				; 000000c0H
	cmp	ebp, esp
	call	__RTC_CheckEsp
	mov	esp, ebp
	pop	ebp
	ret	0
?_Xlen_string@std@@YAXXZ ENDP				; std::_Xlen_string
_TEXT	ENDS
; Function compile flags: /Odtp /RTCsu /ZI
; File C:\Program Files (x86)\Microsoft Visual Studio\2019\Community\VC\Tools\MSVC\14.29.30133\include\xstring
;	COMDAT ?eof@?$_Narrow_char_traits@DH@std@@SAHXZ
_TEXT	SEGMENT
?eof@?$_Narrow_char_traits@DH@std@@SAHXZ PROC		; std::_Narrow_char_traits<char,int>::eof, COMDAT

; 469  :     _NODISCARD static constexpr int_type eof() noexcept {

	push	ebp
	mov	ebp, esp
	sub	esp, 192				; 000000c0H
	push	ebx
	push	esi
	push	edi
	mov	edi, ebp
	xor	ecx, ecx
	mov	eax, -858993460				; ccccccccH
	rep stosd
	mov	ecx, OFFSET __0D019051_xstring
	call	@__CheckForDebuggerJustMyCode@4

; 470  :         return static_cast<int_type>(EOF);

	or	eax, -1

; 471  :     }

	pop	edi
	pop	esi
	pop	ebx
	add	esp, 192				; 000000c0H
	cmp	ebp, esp
	call	__RTC_CheckEsp
	mov	esp, ebp
	pop	ebp
	ret	0
?eof@?$_Narrow_char_traits@DH@std@@SAHXZ ENDP		; std::_Narrow_char_traits<char,int>::eof
_TEXT	ENDS
; Function compile flags: /Odtp /RTCsu /ZI
; File C:\Program Files (x86)\Microsoft Visual Studio\2019\Community\VC\Tools\MSVC\14.29.30133\include\xstring
;	COMDAT ?eq_int_type@?$_Narrow_char_traits@DH@std@@SA_NABH0@Z
_TEXT	SEGMENT
tv65 = -196						; size = 4
__Left$ = 8						; size = 4
__Right$ = 12						; size = 4
?eq_int_type@?$_Narrow_char_traits@DH@std@@SA_NABH0@Z PROC ; std::_Narrow_char_traits<char,int>::eq_int_type, COMDAT

; 461  :     _NODISCARD static constexpr bool eq_int_type(const int_type& _Left, const int_type& _Right) noexcept {

	push	ebp
	mov	ebp, esp
	sub	esp, 196				; 000000c4H
	push	ebx
	push	esi
	push	edi
	lea	edi, DWORD PTR [ebp-4]
	mov	ecx, 1
	mov	eax, -858993460				; ccccccccH
	rep stosd
	mov	ecx, OFFSET __0D019051_xstring
	call	@__CheckForDebuggerJustMyCode@4

; 462  :         return _Left == _Right;

	mov	eax, DWORD PTR __Left$[ebp]
	mov	ecx, DWORD PTR __Right$[ebp]
	mov	edx, DWORD PTR [eax]
	cmp	edx, DWORD PTR [ecx]
	jne	SHORT $LN3@eq_int_typ
	mov	DWORD PTR tv65[ebp], 1
	jmp	SHORT $LN4@eq_int_typ
$LN3@eq_int_typ:
	mov	DWORD PTR tv65[ebp], 0
$LN4@eq_int_typ:
	mov	al, BYTE PTR tv65[ebp]

; 463  :     }

	pop	edi
	pop	esi
	pop	ebx
	add	esp, 196				; 000000c4H
	cmp	ebp, esp
	call	__RTC_CheckEsp
	mov	esp, ebp
	pop	ebp
	ret	0
?eq_int_type@?$_Narrow_char_traits@DH@std@@SA_NABH0@Z ENDP ; std::_Narrow_char_traits<char,int>::eq_int_type
_TEXT	ENDS
; Function compile flags: /Odtp /RTCsu /ZI
; File C:\Program Files (x86)\Microsoft Visual Studio\2019\Community\VC\Tools\MSVC\14.29.30133\include\xstring
;	COMDAT ?assign@?$_Narrow_char_traits@DH@std@@SAXAADABD@Z
_TEXT	SEGMENT
__Left$ = 8						; size = 4
__Right$ = 12						; size = 4
?assign@?$_Narrow_char_traits@DH@std@@SAXAADABD@Z PROC	; std::_Narrow_char_traits<char,int>::assign, COMDAT

; 441  :     static _CONSTEXPR17 void assign(_Elem& _Left, const _Elem& _Right) noexcept {

	push	ebp
	mov	ebp, esp
	sub	esp, 192				; 000000c0H
	push	ebx
	push	esi
	push	edi
	mov	edi, ebp
	xor	ecx, ecx
	mov	eax, -858993460				; ccccccccH
	rep stosd
	mov	ecx, OFFSET __0D019051_xstring
	call	@__CheckForDebuggerJustMyCode@4

; 442  :         _Left = _Right;

	mov	eax, DWORD PTR __Left$[ebp]
	mov	ecx, DWORD PTR __Right$[ebp]
	mov	dl, BYTE PTR [ecx]
	mov	BYTE PTR [eax], dl

; 443  :     }

	pop	edi
	pop	esi
	pop	ebx
	add	esp, 192				; 000000c0H
	cmp	ebp, esp
	call	__RTC_CheckEsp
	mov	esp, ebp
	pop	ebp
	ret	0
?assign@?$_Narrow_char_traits@DH@std@@SAXAADABD@Z ENDP	; std::_Narrow_char_traits<char,int>::assign
_TEXT	ENDS
; Function compile flags: /Odtp /RTCsu /ZI
; File C:\Program Files (x86)\Microsoft Visual Studio\2019\Community\VC\Tools\MSVC\14.29.30133\include\xstring
;	COMDAT ?length@?$_Narrow_char_traits@DH@std@@SAIQBD@Z
_TEXT	SEGMENT
__First$ = 8						; size = 4
?length@?$_Narrow_char_traits@DH@std@@SAIQBD@Z PROC	; std::_Narrow_char_traits<char,int>::length, COMDAT

; 388  :     _NODISCARD static _CONSTEXPR17 size_t length(_In_z_ const _Elem* const _First) noexcept /* strengthened */ {

	push	ebp
	mov	ebp, esp
	sub	esp, 192				; 000000c0H
	push	ebx
	push	esi
	push	edi
	mov	edi, ebp
	xor	ecx, ecx
	mov	eax, -858993460				; ccccccccH
	rep stosd
	mov	ecx, OFFSET __0D019051_xstring
	call	@__CheckForDebuggerJustMyCode@4

; 389  :         // find length of null-terminated string
; 390  : #if _HAS_CXX17
; 391  : #ifdef __cpp_char8_t
; 392  :         if constexpr (is_same_v<_Elem, char8_t>) {
; 393  : #if _HAS_U8_INTRINSICS
; 394  :             return __builtin_u8strlen(_First);
; 395  : #else // ^^^ use u8 intrinsics / no u8 intrinsics vvv
; 396  :             return _Primary_char_traits::length(_First);
; 397  : #endif // _HAS_U8_INTRINSICS
; 398  :         } else
; 399  : #endif // __cpp_char8_t
; 400  :         {
; 401  :             return __builtin_strlen(_First);
; 402  :         }
; 403  : #else // _HAS_CXX17
; 404  :         return _CSTD strlen(reinterpret_cast<const char*>(_First));

	mov	eax, DWORD PTR __First$[ebp]
	push	eax
	call	_strlen
	add	esp, 4

; 405  : #endif // _HAS_CXX17
; 406  :     }

	pop	edi
	pop	esi
	pop	ebx
	add	esp, 192				; 000000c0H
	cmp	ebp, esp
	call	__RTC_CheckEsp
	mov	esp, ebp
	pop	ebp
	ret	0
?length@?$_Narrow_char_traits@DH@std@@SAIQBD@Z ENDP	; std::_Narrow_char_traits<char,int>::length
_TEXT	ENDS
; Function compile flags: /Odtp /RTCsu /ZI
; File C:\Program Files (x86)\Microsoft Visual Studio\2019\Community\VC\Tools\MSVC\14.29.30133\include\xstring
;	COMDAT ?move@?$_Char_traits@DH@std@@SAPADQADQBDI@Z
_TEXT	SEGMENT
__First1$ = 8						; size = 4
__First2$ = 12						; size = 4
__Count$ = 16						; size = 4
?move@?$_Char_traits@DH@std@@SAPADQADQBDI@Z PROC	; std::_Char_traits<char,int>::move, COMDAT

; 79   :         _In_reads_(_Count) const _Elem* const _First2, const size_t _Count) noexcept /* strengthened */ {

	push	ebp
	mov	ebp, esp
	sub	esp, 192				; 000000c0H
	push	ebx
	push	esi
	push	edi
	mov	edi, ebp
	xor	ecx, ecx
	mov	eax, -858993460				; ccccccccH
	rep stosd
	mov	ecx, OFFSET __0D019051_xstring
	call	@__CheckForDebuggerJustMyCode@4

; 80   :         // copy [_First2, _First2 + _Count) to [_First1, ...), allowing overlap
; 81   : #if _HAS_MEMCPY_MEMMOVE_INTRINSICS
; 82   :         __builtin_memmove(_First1, _First2, _Count * sizeof(_Elem));
; 83   : #else // ^^^ _HAS_MEMCPY_MEMMOVE_INTRINSICS ^^^ / vvv !_HAS_MEMCPY_MEMMOVE_INTRINSICS vvv
; 84   : #ifdef __cpp_lib_is_constant_evaluated
; 85   :         if (_STD is_constant_evaluated()) {
; 86   :             // dest: [_First1, _First1 + _Count)
; 87   :             // src: [_First2, _First2 + _Count)
; 88   :             // We need to handle overlapping ranges.
; 89   :             // If _First1 is in the src range, we need a backward loop.
; 90   :             // Otherwise, the forward loop works (even if the back of dest overlaps the front of src).
; 91   : 
; 92   :             if (_First1 == _First2) {
; 93   :                 return _First1; // Self-assignment; either loop would work, but returning immediately is faster.
; 94   :             }
; 95   : 
; 96   :             // Usually, we would compare pointers with less-than, even though they could belong to different arrays.
; 97   :             // However, we're not allowed to do that during constant evaluation, so we need a linear scan for equality.
; 98   :             bool _Loop_forward = true;
; 99   : 
; 100  :             for (const _Elem* _Src = _First2; _Src != _First2 + _Count; ++_Src) {
; 101  :                 if (_First1 == _Src) {
; 102  :                     _Loop_forward = false;
; 103  :                     break;
; 104  :                 }
; 105  :             }
; 106  : 
; 107  :             if (_Loop_forward) {
; 108  :                 for (size_t _Idx = 0; _Idx < _Count; ++_Idx) {
; 109  :                     _First1[_Idx] = _First2[_Idx];
; 110  :                 }
; 111  :             } else {
; 112  :                 for (size_t _Idx = 0; _Idx < _Count; ++_Idx) {
; 113  :                     _First1[_Count - 1 - _Idx] = _First2[_Count - 1 - _Idx];
; 114  :                 }
; 115  :             }
; 116  : 
; 117  :             return _First1;
; 118  :         }
; 119  : #endif // __cpp_lib_is_constant_evaluated
; 120  : 
; 121  :         _CSTD memmove(_First1, _First2, _Count * sizeof(_Elem));

	mov	eax, DWORD PTR __Count$[ebp]
	push	eax
	mov	ecx, DWORD PTR __First2$[ebp]
	push	ecx
	mov	edx, DWORD PTR __First1$[ebp]
	push	edx
	call	_memmove
	add	esp, 12					; 0000000cH

; 122  : #endif // ^^^ !_HAS_MEMCPY_MEMMOVE_INTRINSICS ^^^
; 123  : 
; 124  :         return _First1;

	mov	eax, DWORD PTR __First1$[ebp]

; 125  :     }

	pop	edi
	pop	esi
	pop	ebx
	add	esp, 192				; 000000c0H
	cmp	ebp, esp
	call	__RTC_CheckEsp
	mov	esp, ebp
	pop	ebp
	ret	0
?move@?$_Char_traits@DH@std@@SAPADQADQBDI@Z ENDP	; std::_Char_traits<char,int>::move
_TEXT	ENDS
; Function compile flags: /Odtp /RTCsu /ZI
; File C:\Program Files (x86)\Microsoft Visual Studio\2019\Community\VC\Tools\MSVC\14.29.30133\include\xstring
;	COMDAT ?copy@?$_Char_traits@DH@std@@SAPADQADQBDI@Z
_TEXT	SEGMENT
__First1$ = 8						; size = 4
__First2$ = 12						; size = 4
__Count$ = 16						; size = 4
?copy@?$_Char_traits@DH@std@@SAPADQADQBDI@Z PROC	; std::_Char_traits<char,int>::copy, COMDAT

; 48   :         _In_reads_(_Count) const _Elem* const _First2, const size_t _Count) noexcept /* strengthened */ {

	push	ebp
	mov	ebp, esp
	sub	esp, 192				; 000000c0H
	push	ebx
	push	esi
	push	edi
	mov	edi, ebp
	xor	ecx, ecx
	mov	eax, -858993460				; ccccccccH
	rep stosd
	mov	ecx, OFFSET __0D019051_xstring
	call	@__CheckForDebuggerJustMyCode@4

; 49   :         // copy [_First2, _First2 + _Count) to [_First1, ...)
; 50   : #if _HAS_MEMCPY_MEMMOVE_INTRINSICS
; 51   :         __builtin_memcpy(_First1, _First2, _Count * sizeof(_Elem));
; 52   : #else // ^^^ _HAS_MEMCPY_MEMMOVE_INTRINSICS ^^^ / vvv !_HAS_MEMCPY_MEMMOVE_INTRINSICS vvv
; 53   : #ifdef __cpp_lib_is_constant_evaluated
; 54   :         if (_STD is_constant_evaluated()) {
; 55   :             // pre: [_First1, _First1 + _Count) and [_First2, _First2 + _Count) do not overlap; see LWG-3085
; 56   :             for (size_t _Idx = 0; _Idx < _Count; ++_Idx) {
; 57   :                 _First1[_Idx] = _First2[_Idx];
; 58   :             }
; 59   : 
; 60   :             return _First1;
; 61   :         }
; 62   : #endif // __cpp_lib_is_constant_evaluated
; 63   : 
; 64   :         _CSTD memcpy(_First1, _First2, _Count * sizeof(_Elem));

	mov	eax, DWORD PTR __Count$[ebp]
	push	eax
	mov	ecx, DWORD PTR __First2$[ebp]
	push	ecx
	mov	edx, DWORD PTR __First1$[ebp]
	push	edx
	call	_memcpy
	add	esp, 12					; 0000000cH

; 65   : #endif // ^^^ !_HAS_MEMCPY_MEMMOVE_INTRINSICS ^^^
; 66   : 
; 67   :         return _First1;

	mov	eax, DWORD PTR __First1$[ebp]

; 68   :     }

	pop	edi
	pop	esi
	pop	ebx
	add	esp, 192				; 000000c0H
	cmp	ebp, esp
	call	__RTC_CheckEsp
	mov	esp, ebp
	pop	ebp
	ret	0
?copy@?$_Char_traits@DH@std@@SAPADQADQBDI@Z ENDP	; std::_Char_traits<char,int>::copy
_TEXT	ENDS
; Function compile flags: /Odtp /RTCsu /ZI
; File C:\Program Files (x86)\Microsoft Visual Studio\2019\Community\VC\Tools\MSVC\14.29.30133\include\xstring
;	COMDAT ?eof@?$_WChar_traits@_W@std@@SAGXZ
_TEXT	SEGMENT
?eof@?$_WChar_traits@_W@std@@SAGXZ PROC			; std::_WChar_traits<wchar_t>::eof, COMDAT

; 326  :     _NODISCARD static constexpr int_type eof() noexcept {

	push	ebp
	mov	ebp, esp
	sub	esp, 192				; 000000c0H
	push	ebx
	push	esi
	push	edi
	mov	edi, ebp
	xor	ecx, ecx
	mov	eax, -858993460				; ccccccccH
	rep stosd
	mov	ecx, OFFSET __0D019051_xstring
	call	@__CheckForDebuggerJustMyCode@4

; 327  :         return WEOF;

	mov	eax, 65535				; 0000ffffH

; 328  :     }

	pop	edi
	pop	esi
	pop	ebx
	add	esp, 192				; 000000c0H
	cmp	ebp, esp
	call	__RTC_CheckEsp
	mov	esp, ebp
	pop	ebp
	ret	0
?eof@?$_WChar_traits@_W@std@@SAGXZ ENDP			; std::_WChar_traits<wchar_t>::eof
_TEXT	ENDS
; Function compile flags: /Odtp /RTCsu /ZI
; File C:\Program Files (x86)\Microsoft Visual Studio\2019\Community\VC\Tools\MSVC\14.29.30133\include\xstring
;	COMDAT ?eq_int_type@?$_WChar_traits@_W@std@@SA_NABG0@Z
_TEXT	SEGMENT
tv67 = -196						; size = 4
__Left$ = 8						; size = 4
__Right$ = 12						; size = 4
?eq_int_type@?$_WChar_traits@_W@std@@SA_NABG0@Z PROC	; std::_WChar_traits<wchar_t>::eq_int_type, COMDAT

; 318  :     _NODISCARD static constexpr bool eq_int_type(const int_type& _Left, const int_type& _Right) noexcept {

	push	ebp
	mov	ebp, esp
	sub	esp, 196				; 000000c4H
	push	ebx
	push	esi
	push	edi
	lea	edi, DWORD PTR [ebp-4]
	mov	ecx, 1
	mov	eax, -858993460				; ccccccccH
	rep stosd
	mov	ecx, OFFSET __0D019051_xstring
	call	@__CheckForDebuggerJustMyCode@4

; 319  :         return _Left == _Right;

	mov	eax, DWORD PTR __Left$[ebp]
	movzx	ecx, WORD PTR [eax]
	mov	edx, DWORD PTR __Right$[ebp]
	movzx	eax, WORD PTR [edx]
	cmp	ecx, eax
	jne	SHORT $LN3@eq_int_typ
	mov	DWORD PTR tv67[ebp], 1
	jmp	SHORT $LN4@eq_int_typ
$LN3@eq_int_typ:
	mov	DWORD PTR tv67[ebp], 0
$LN4@eq_int_typ:
	mov	al, BYTE PTR tv67[ebp]

; 320  :     }

	pop	edi
	pop	esi
	pop	ebx
	add	esp, 196				; 000000c4H
	cmp	ebp, esp
	call	__RTC_CheckEsp
	mov	esp, ebp
	pop	ebp
	ret	0
?eq_int_type@?$_WChar_traits@_W@std@@SA_NABG0@Z ENDP	; std::_WChar_traits<wchar_t>::eq_int_type
_TEXT	ENDS
; Function compile flags: /Odtp /RTCsu /ZI
; File C:\Program Files (x86)\Microsoft Visual Studio\2019\Community\VC\Tools\MSVC\14.29.30133\include\xstring
;	COMDAT ?assign@?$_WChar_traits@_W@std@@SAXAA_WAB_W@Z
_TEXT	SEGMENT
__Left$ = 8						; size = 4
__Right$ = 12						; size = 4
?assign@?$_WChar_traits@_W@std@@SAXAA_WAB_W@Z PROC	; std::_WChar_traits<wchar_t>::assign, COMDAT

; 298  :     static _CONSTEXPR17 void assign(_Elem& _Left, const _Elem& _Right) noexcept {

	push	ebp
	mov	ebp, esp
	sub	esp, 192				; 000000c0H
	push	ebx
	push	esi
	push	edi
	mov	edi, ebp
	xor	ecx, ecx
	mov	eax, -858993460				; ccccccccH
	rep stosd
	mov	ecx, OFFSET __0D019051_xstring
	call	@__CheckForDebuggerJustMyCode@4

; 299  :         _Left = _Right;

	mov	eax, DWORD PTR __Left$[ebp]
	mov	ecx, DWORD PTR __Right$[ebp]
	mov	dx, WORD PTR [ecx]
	mov	WORD PTR [eax], dx

; 300  :     }

	pop	edi
	pop	esi
	pop	ebx
	add	esp, 192				; 000000c0H
	cmp	ebp, esp
	call	__RTC_CheckEsp
	mov	esp, ebp
	pop	ebp
	ret	0
?assign@?$_WChar_traits@_W@std@@SAXAA_WAB_W@Z ENDP	; std::_WChar_traits<wchar_t>::assign
_TEXT	ENDS
; Function compile flags: /Odtp /RTCsu /ZI
; File C:\Program Files (x86)\Microsoft Visual Studio\2019\Community\VC\Tools\MSVC\14.29.30133\include\xstring
;	COMDAT ?length@?$_WChar_traits@_W@std@@SAIPB_W@Z
_TEXT	SEGMENT
__First$ = 8						; size = 4
?length@?$_WChar_traits@_W@std@@SAIPB_W@Z PROC		; std::_WChar_traits<wchar_t>::length, COMDAT

; 259  :     _NODISCARD static _CONSTEXPR17 size_t length(_In_z_ const _Elem* _First) noexcept /* strengthened */ {

	push	ebp
	mov	ebp, esp
	sub	esp, 192				; 000000c0H
	push	ebx
	push	esi
	push	edi
	mov	edi, ebp
	xor	ecx, ecx
	mov	eax, -858993460				; ccccccccH
	rep stosd
	mov	ecx, OFFSET __0D019051_xstring
	call	@__CheckForDebuggerJustMyCode@4

; 260  :         // find length of null-terminated sequence
; 261  : #if _HAS_CXX17
; 262  :         if constexpr (is_same_v<_Elem, wchar_t>) {
; 263  :             return __builtin_wcslen(_First);
; 264  :         } else {
; 265  :             return _Primary_char_traits::length(_First);
; 266  :         }
; 267  : #else // _HAS_CXX17
; 268  :         return _CSTD wcslen(reinterpret_cast<const wchar_t*>(_First));

	mov	esi, esp
	mov	eax, DWORD PTR __First$[ebp]
	push	eax
	call	DWORD PTR __imp__wcslen
	add	esp, 4
	cmp	esi, esp
	call	__RTC_CheckEsp

; 269  : #endif // _HAS_CXX17
; 270  :     }

	pop	edi
	pop	esi
	pop	ebx
	add	esp, 192				; 000000c0H
	cmp	ebp, esp
	call	__RTC_CheckEsp
	mov	esp, ebp
	pop	ebp
	ret	0
?length@?$_WChar_traits@_W@std@@SAIPB_W@Z ENDP		; std::_WChar_traits<wchar_t>::length
_TEXT	ENDS
; Function compile flags: /Odtp /RTCsu /ZI
; File C:\Program Files (x86)\Microsoft Visual Studio\2019\Community\VC\Tools\MSVC\14.29.30133\include\xstring
;	COMDAT ?move@?$_Char_traits@_WG@std@@SAPA_WQA_WQB_WI@Z
_TEXT	SEGMENT
__First1$ = 8						; size = 4
__First2$ = 12						; size = 4
__Count$ = 16						; size = 4
?move@?$_Char_traits@_WG@std@@SAPA_WQA_WQB_WI@Z PROC	; std::_Char_traits<wchar_t,unsigned short>::move, COMDAT

; 79   :         _In_reads_(_Count) const _Elem* const _First2, const size_t _Count) noexcept /* strengthened */ {

	push	ebp
	mov	ebp, esp
	sub	esp, 192				; 000000c0H
	push	ebx
	push	esi
	push	edi
	mov	edi, ebp
	xor	ecx, ecx
	mov	eax, -858993460				; ccccccccH
	rep stosd
	mov	ecx, OFFSET __0D019051_xstring
	call	@__CheckForDebuggerJustMyCode@4

; 80   :         // copy [_First2, _First2 + _Count) to [_First1, ...), allowing overlap
; 81   : #if _HAS_MEMCPY_MEMMOVE_INTRINSICS
; 82   :         __builtin_memmove(_First1, _First2, _Count * sizeof(_Elem));
; 83   : #else // ^^^ _HAS_MEMCPY_MEMMOVE_INTRINSICS ^^^ / vvv !_HAS_MEMCPY_MEMMOVE_INTRINSICS vvv
; 84   : #ifdef __cpp_lib_is_constant_evaluated
; 85   :         if (_STD is_constant_evaluated()) {
; 86   :             // dest: [_First1, _First1 + _Count)
; 87   :             // src: [_First2, _First2 + _Count)
; 88   :             // We need to handle overlapping ranges.
; 89   :             // If _First1 is in the src range, we need a backward loop.
; 90   :             // Otherwise, the forward loop works (even if the back of dest overlaps the front of src).
; 91   : 
; 92   :             if (_First1 == _First2) {
; 93   :                 return _First1; // Self-assignment; either loop would work, but returning immediately is faster.
; 94   :             }
; 95   : 
; 96   :             // Usually, we would compare pointers with less-than, even though they could belong to different arrays.
; 97   :             // However, we're not allowed to do that during constant evaluation, so we need a linear scan for equality.
; 98   :             bool _Loop_forward = true;
; 99   : 
; 100  :             for (const _Elem* _Src = _First2; _Src != _First2 + _Count; ++_Src) {
; 101  :                 if (_First1 == _Src) {
; 102  :                     _Loop_forward = false;
; 103  :                     break;
; 104  :                 }
; 105  :             }
; 106  : 
; 107  :             if (_Loop_forward) {
; 108  :                 for (size_t _Idx = 0; _Idx < _Count; ++_Idx) {
; 109  :                     _First1[_Idx] = _First2[_Idx];
; 110  :                 }
; 111  :             } else {
; 112  :                 for (size_t _Idx = 0; _Idx < _Count; ++_Idx) {
; 113  :                     _First1[_Count - 1 - _Idx] = _First2[_Count - 1 - _Idx];
; 114  :                 }
; 115  :             }
; 116  : 
; 117  :             return _First1;
; 118  :         }
; 119  : #endif // __cpp_lib_is_constant_evaluated
; 120  : 
; 121  :         _CSTD memmove(_First1, _First2, _Count * sizeof(_Elem));

	mov	eax, DWORD PTR __Count$[ebp]
	shl	eax, 1
	push	eax
	mov	ecx, DWORD PTR __First2$[ebp]
	push	ecx
	mov	edx, DWORD PTR __First1$[ebp]
	push	edx
	call	_memmove
	add	esp, 12					; 0000000cH

; 122  : #endif // ^^^ !_HAS_MEMCPY_MEMMOVE_INTRINSICS ^^^
; 123  : 
; 124  :         return _First1;

	mov	eax, DWORD PTR __First1$[ebp]

; 125  :     }

	pop	edi
	pop	esi
	pop	ebx
	add	esp, 192				; 000000c0H
	cmp	ebp, esp
	call	__RTC_CheckEsp
	mov	esp, ebp
	pop	ebp
	ret	0
?move@?$_Char_traits@_WG@std@@SAPA_WQA_WQB_WI@Z ENDP	; std::_Char_traits<wchar_t,unsigned short>::move
_TEXT	ENDS
; Function compile flags: /Odtp /RTCsu /ZI
; File C:\Program Files (x86)\Microsoft Visual Studio\2019\Community\VC\Tools\MSVC\14.29.30133\include\xstring
;	COMDAT ?copy@?$_Char_traits@_WG@std@@SAPA_WQA_WQB_WI@Z
_TEXT	SEGMENT
__First1$ = 8						; size = 4
__First2$ = 12						; size = 4
__Count$ = 16						; size = 4
?copy@?$_Char_traits@_WG@std@@SAPA_WQA_WQB_WI@Z PROC	; std::_Char_traits<wchar_t,unsigned short>::copy, COMDAT

; 48   :         _In_reads_(_Count) const _Elem* const _First2, const size_t _Count) noexcept /* strengthened */ {

	push	ebp
	mov	ebp, esp
	sub	esp, 192				; 000000c0H
	push	ebx
	push	esi
	push	edi
	mov	edi, ebp
	xor	ecx, ecx
	mov	eax, -858993460				; ccccccccH
	rep stosd
	mov	ecx, OFFSET __0D019051_xstring
	call	@__CheckForDebuggerJustMyCode@4

; 49   :         // copy [_First2, _First2 + _Count) to [_First1, ...)
; 50   : #if _HAS_MEMCPY_MEMMOVE_INTRINSICS
; 51   :         __builtin_memcpy(_First1, _First2, _Count * sizeof(_Elem));
; 52   : #else // ^^^ _HAS_MEMCPY_MEMMOVE_INTRINSICS ^^^ / vvv !_HAS_MEMCPY_MEMMOVE_INTRINSICS vvv
; 53   : #ifdef __cpp_lib_is_constant_evaluated
; 54   :         if (_STD is_constant_evaluated()) {
; 55   :             // pre: [_First1, _First1 + _Count) and [_First2, _First2 + _Count) do not overlap; see LWG-3085
; 56   :             for (size_t _Idx = 0; _Idx < _Count; ++_Idx) {
; 57   :                 _First1[_Idx] = _First2[_Idx];
; 58   :             }
; 59   : 
; 60   :             return _First1;
; 61   :         }
; 62   : #endif // __cpp_lib_is_constant_evaluated
; 63   : 
; 64   :         _CSTD memcpy(_First1, _First2, _Count * sizeof(_Elem));

	mov	eax, DWORD PTR __Count$[ebp]
	shl	eax, 1
	push	eax
	mov	ecx, DWORD PTR __First2$[ebp]
	push	ecx
	mov	edx, DWORD PTR __First1$[ebp]
	push	edx
	call	_memcpy
	add	esp, 12					; 0000000cH

; 65   : #endif // ^^^ !_HAS_MEMCPY_MEMMOVE_INTRINSICS ^^^
; 66   : 
; 67   :         return _First1;

	mov	eax, DWORD PTR __First1$[ebp]

; 68   :     }

	pop	edi
	pop	esi
	pop	ebx
	add	esp, 192				; 000000c0H
	cmp	ebp, esp
	call	__RTC_CheckEsp
	mov	esp, ebp
	pop	ebp
	ret	0
?copy@?$_Char_traits@_WG@std@@SAPA_WQA_WQB_WI@Z ENDP	; std::_Char_traits<wchar_t,unsigned short>::copy
_TEXT	ENDS
; Function compile flags: /Odtp /RTCsu /ZI
; File C:\Program Files (x86)\Microsoft Visual Studio\2019\Community\VC\Tools\MSVC\14.29.30133\include\xstring
;	COMDAT ?assign@?$_Char_traits@_UI@std@@SAXAA_UAB_U@Z
_TEXT	SEGMENT
__Left$ = 8						; size = 4
__Right$ = 12						; size = 4
?assign@?$_Char_traits@_UI@std@@SAXAA_UAB_U@Z PROC	; std::_Char_traits<char32_t,unsigned int>::assign, COMDAT

; 184  :     static _CONSTEXPR17 void assign(_Elem& _Left, const _Elem& _Right) noexcept {

	push	ebp
	mov	ebp, esp
	sub	esp, 192				; 000000c0H
	push	ebx
	push	esi
	push	edi
	mov	edi, ebp
	xor	ecx, ecx
	mov	eax, -858993460				; ccccccccH
	rep stosd
	mov	ecx, OFFSET __0D019051_xstring
	call	@__CheckForDebuggerJustMyCode@4

; 185  : #ifdef __cpp_lib_constexpr_string
; 186  :         if (_STD is_constant_evaluated()) {
; 187  :             _STD construct_at(_STD addressof(_Left), _Right);
; 188  :         } else
; 189  : #endif // __cpp_lib_constexpr_string
; 190  :         {
; 191  :             _Left = _Right;

	mov	eax, DWORD PTR __Left$[ebp]
	mov	ecx, DWORD PTR __Right$[ebp]
	mov	edx, DWORD PTR [ecx]
	mov	DWORD PTR [eax], edx

; 192  :         }
; 193  :     }

	pop	edi
	pop	esi
	pop	ebx
	add	esp, 192				; 000000c0H
	cmp	ebp, esp
	call	__RTC_CheckEsp
	mov	esp, ebp
	pop	ebp
	ret	0
?assign@?$_Char_traits@_UI@std@@SAXAA_UAB_U@Z ENDP	; std::_Char_traits<char32_t,unsigned int>::assign
_TEXT	ENDS
; Function compile flags: /Odtp /RTCsu /ZI
; File C:\Program Files (x86)\Microsoft Visual Studio\2019\Community\VC\Tools\MSVC\14.29.30133\include\xstring
;	COMDAT ?length@?$_Char_traits@_UI@std@@SAIPB_U@Z
_TEXT	SEGMENT
__Count$ = -8						; size = 4
__First$ = 8						; size = 4
?length@?$_Char_traits@_UI@std@@SAIPB_U@Z PROC		; std::_Char_traits<char32_t,unsigned int>::length, COMDAT

; 142  :     _NODISCARD static _CONSTEXPR17 size_t length(_In_z_ const _Elem* _First) noexcept /* strengthened */ {

	push	ebp
	mov	ebp, esp
	sub	esp, 204				; 000000ccH
	push	ebx
	push	esi
	push	edi
	lea	edi, DWORD PTR [ebp-12]
	mov	ecx, 3
	mov	eax, -858993460				; ccccccccH
	rep stosd
	mov	ecx, OFFSET __0D019051_xstring
	call	@__CheckForDebuggerJustMyCode@4

; 143  :         // find length of null-terminated sequence
; 144  :         size_t _Count = 0;

	mov	DWORD PTR __Count$[ebp], 0
$LN2@length:

; 145  :         while (*_First != _Elem()) {

	mov	eax, DWORD PTR __First$[ebp]
	cmp	DWORD PTR [eax], 0
	je	SHORT $LN3@length

; 146  :             ++_Count;

	mov	eax, DWORD PTR __Count$[ebp]
	add	eax, 1
	mov	DWORD PTR __Count$[ebp], eax

; 147  :             ++_First;

	mov	eax, DWORD PTR __First$[ebp]
	add	eax, 4
	mov	DWORD PTR __First$[ebp], eax

; 148  :         }

	jmp	SHORT $LN2@length
$LN3@length:

; 149  : 
; 150  :         return _Count;

	mov	eax, DWORD PTR __Count$[ebp]

; 151  :     }

	pop	edi
	pop	esi
	pop	ebx
	add	esp, 204				; 000000ccH
	cmp	ebp, esp
	call	__RTC_CheckEsp
	mov	esp, ebp
	pop	ebp
	ret	0
?length@?$_Char_traits@_UI@std@@SAIPB_U@Z ENDP		; std::_Char_traits<char32_t,unsigned int>::length
_TEXT	ENDS
; Function compile flags: /Odtp /RTCsu /ZI
; File C:\Program Files (x86)\Microsoft Visual Studio\2019\Community\VC\Tools\MSVC\14.29.30133\include\xstring
;	COMDAT ?move@?$_Char_traits@_UI@std@@SAPA_UQA_UQB_UI@Z
_TEXT	SEGMENT
__First1$ = 8						; size = 4
__First2$ = 12						; size = 4
__Count$ = 16						; size = 4
?move@?$_Char_traits@_UI@std@@SAPA_UQA_UQB_UI@Z PROC	; std::_Char_traits<char32_t,unsigned int>::move, COMDAT

; 79   :         _In_reads_(_Count) const _Elem* const _First2, const size_t _Count) noexcept /* strengthened */ {

	push	ebp
	mov	ebp, esp
	sub	esp, 192				; 000000c0H
	push	ebx
	push	esi
	push	edi
	mov	edi, ebp
	xor	ecx, ecx
	mov	eax, -858993460				; ccccccccH
	rep stosd
	mov	ecx, OFFSET __0D019051_xstring
	call	@__CheckForDebuggerJustMyCode@4

; 80   :         // copy [_First2, _First2 + _Count) to [_First1, ...), allowing overlap
; 81   : #if _HAS_MEMCPY_MEMMOVE_INTRINSICS
; 82   :         __builtin_memmove(_First1, _First2, _Count * sizeof(_Elem));
; 83   : #else // ^^^ _HAS_MEMCPY_MEMMOVE_INTRINSICS ^^^ / vvv !_HAS_MEMCPY_MEMMOVE_INTRINSICS vvv
; 84   : #ifdef __cpp_lib_is_constant_evaluated
; 85   :         if (_STD is_constant_evaluated()) {
; 86   :             // dest: [_First1, _First1 + _Count)
; 87   :             // src: [_First2, _First2 + _Count)
; 88   :             // We need to handle overlapping ranges.
; 89   :             // If _First1 is in the src range, we need a backward loop.
; 90   :             // Otherwise, the forward loop works (even if the back of dest overlaps the front of src).
; 91   : 
; 92   :             if (_First1 == _First2) {
; 93   :                 return _First1; // Self-assignment; either loop would work, but returning immediately is faster.
; 94   :             }
; 95   : 
; 96   :             // Usually, we would compare pointers with less-than, even though they could belong to different arrays.
; 97   :             // However, we're not allowed to do that during constant evaluation, so we need a linear scan for equality.
; 98   :             bool _Loop_forward = true;
; 99   : 
; 100  :             for (const _Elem* _Src = _First2; _Src != _First2 + _Count; ++_Src) {
; 101  :                 if (_First1 == _Src) {
; 102  :                     _Loop_forward = false;
; 103  :                     break;
; 104  :                 }
; 105  :             }
; 106  : 
; 107  :             if (_Loop_forward) {
; 108  :                 for (size_t _Idx = 0; _Idx < _Count; ++_Idx) {
; 109  :                     _First1[_Idx] = _First2[_Idx];
; 110  :                 }
; 111  :             } else {
; 112  :                 for (size_t _Idx = 0; _Idx < _Count; ++_Idx) {
; 113  :                     _First1[_Count - 1 - _Idx] = _First2[_Count - 1 - _Idx];
; 114  :                 }
; 115  :             }
; 116  : 
; 117  :             return _First1;
; 118  :         }
; 119  : #endif // __cpp_lib_is_constant_evaluated
; 120  : 
; 121  :         _CSTD memmove(_First1, _First2, _Count * sizeof(_Elem));

	mov	eax, DWORD PTR __Count$[ebp]
	shl	eax, 2
	push	eax
	mov	ecx, DWORD PTR __First2$[ebp]
	push	ecx
	mov	edx, DWORD PTR __First1$[ebp]
	push	edx
	call	_memmove
	add	esp, 12					; 0000000cH

; 122  : #endif // ^^^ !_HAS_MEMCPY_MEMMOVE_INTRINSICS ^^^
; 123  : 
; 124  :         return _First1;

	mov	eax, DWORD PTR __First1$[ebp]

; 125  :     }

	pop	edi
	pop	esi
	pop	ebx
	add	esp, 192				; 000000c0H
	cmp	ebp, esp
	call	__RTC_CheckEsp
	mov	esp, ebp
	pop	ebp
	ret	0
?move@?$_Char_traits@_UI@std@@SAPA_UQA_UQB_UI@Z ENDP	; std::_Char_traits<char32_t,unsigned int>::move
_TEXT	ENDS
; Function compile flags: /Odtp /RTCsu /ZI
; File C:\Program Files (x86)\Microsoft Visual Studio\2019\Community\VC\Tools\MSVC\14.29.30133\include\xstring
;	COMDAT ?copy@?$_Char_traits@_UI@std@@SAPA_UQA_UQB_UI@Z
_TEXT	SEGMENT
__First1$ = 8						; size = 4
__First2$ = 12						; size = 4
__Count$ = 16						; size = 4
?copy@?$_Char_traits@_UI@std@@SAPA_UQA_UQB_UI@Z PROC	; std::_Char_traits<char32_t,unsigned int>::copy, COMDAT

; 48   :         _In_reads_(_Count) const _Elem* const _First2, const size_t _Count) noexcept /* strengthened */ {

	push	ebp
	mov	ebp, esp
	sub	esp, 192				; 000000c0H
	push	ebx
	push	esi
	push	edi
	mov	edi, ebp
	xor	ecx, ecx
	mov	eax, -858993460				; ccccccccH
	rep stosd
	mov	ecx, OFFSET __0D019051_xstring
	call	@__CheckForDebuggerJustMyCode@4

; 49   :         // copy [_First2, _First2 + _Count) to [_First1, ...)
; 50   : #if _HAS_MEMCPY_MEMMOVE_INTRINSICS
; 51   :         __builtin_memcpy(_First1, _First2, _Count * sizeof(_Elem));
; 52   : #else // ^^^ _HAS_MEMCPY_MEMMOVE_INTRINSICS ^^^ / vvv !_HAS_MEMCPY_MEMMOVE_INTRINSICS vvv
; 53   : #ifdef __cpp_lib_is_constant_evaluated
; 54   :         if (_STD is_constant_evaluated()) {
; 55   :             // pre: [_First1, _First1 + _Count) and [_First2, _First2 + _Count) do not overlap; see LWG-3085
; 56   :             for (size_t _Idx = 0; _Idx < _Count; ++_Idx) {
; 57   :                 _First1[_Idx] = _First2[_Idx];
; 58   :             }
; 59   : 
; 60   :             return _First1;
; 61   :         }
; 62   : #endif // __cpp_lib_is_constant_evaluated
; 63   : 
; 64   :         _CSTD memcpy(_First1, _First2, _Count * sizeof(_Elem));

	mov	eax, DWORD PTR __Count$[ebp]
	shl	eax, 2
	push	eax
	mov	ecx, DWORD PTR __First2$[ebp]
	push	ecx
	mov	edx, DWORD PTR __First1$[ebp]
	push	edx
	call	_memcpy
	add	esp, 12					; 0000000cH

; 65   : #endif // ^^^ !_HAS_MEMCPY_MEMMOVE_INTRINSICS ^^^
; 66   : 
; 67   :         return _First1;

	mov	eax, DWORD PTR __First1$[ebp]

; 68   :     }

	pop	edi
	pop	esi
	pop	ebx
	add	esp, 192				; 000000c0H
	cmp	ebp, esp
	call	__RTC_CheckEsp
	mov	esp, ebp
	pop	ebp
	ret	0
?copy@?$_Char_traits@_UI@std@@SAPA_UQA_UQB_UI@Z ENDP	; std::_Char_traits<char32_t,unsigned int>::copy
_TEXT	ENDS
; Function compile flags: /Odtp /RTCsu /ZI
; File C:\Program Files (x86)\Microsoft Visual Studio\2019\Community\VC\Tools\MSVC\14.29.30133\include\xstring
;	COMDAT ?assign@?$_WChar_traits@_S@std@@SAXAA_SAB_S@Z
_TEXT	SEGMENT
__Left$ = 8						; size = 4
__Right$ = 12						; size = 4
?assign@?$_WChar_traits@_S@std@@SAXAA_SAB_S@Z PROC	; std::_WChar_traits<char16_t>::assign, COMDAT

; 298  :     static _CONSTEXPR17 void assign(_Elem& _Left, const _Elem& _Right) noexcept {

	push	ebp
	mov	ebp, esp
	sub	esp, 192				; 000000c0H
	push	ebx
	push	esi
	push	edi
	mov	edi, ebp
	xor	ecx, ecx
	mov	eax, -858993460				; ccccccccH
	rep stosd
	mov	ecx, OFFSET __0D019051_xstring
	call	@__CheckForDebuggerJustMyCode@4

; 299  :         _Left = _Right;

	mov	eax, DWORD PTR __Left$[ebp]
	mov	ecx, DWORD PTR __Right$[ebp]
	mov	dx, WORD PTR [ecx]
	mov	WORD PTR [eax], dx

; 300  :     }

	pop	edi
	pop	esi
	pop	ebx
	add	esp, 192				; 000000c0H
	cmp	ebp, esp
	call	__RTC_CheckEsp
	mov	esp, ebp
	pop	ebp
	ret	0
?assign@?$_WChar_traits@_S@std@@SAXAA_SAB_S@Z ENDP	; std::_WChar_traits<char16_t>::assign
_TEXT	ENDS
; Function compile flags: /Odtp /RTCsu /ZI
; File C:\Program Files (x86)\Microsoft Visual Studio\2019\Community\VC\Tools\MSVC\14.29.30133\include\xstring
;	COMDAT ?length@?$_WChar_traits@_S@std@@SAIPB_S@Z
_TEXT	SEGMENT
__First$ = 8						; size = 4
?length@?$_WChar_traits@_S@std@@SAIPB_S@Z PROC		; std::_WChar_traits<char16_t>::length, COMDAT

; 259  :     _NODISCARD static _CONSTEXPR17 size_t length(_In_z_ const _Elem* _First) noexcept /* strengthened */ {

	push	ebp
	mov	ebp, esp
	sub	esp, 192				; 000000c0H
	push	ebx
	push	esi
	push	edi
	mov	edi, ebp
	xor	ecx, ecx
	mov	eax, -858993460				; ccccccccH
	rep stosd
	mov	ecx, OFFSET __0D019051_xstring
	call	@__CheckForDebuggerJustMyCode@4

; 260  :         // find length of null-terminated sequence
; 261  : #if _HAS_CXX17
; 262  :         if constexpr (is_same_v<_Elem, wchar_t>) {
; 263  :             return __builtin_wcslen(_First);
; 264  :         } else {
; 265  :             return _Primary_char_traits::length(_First);
; 266  :         }
; 267  : #else // _HAS_CXX17
; 268  :         return _CSTD wcslen(reinterpret_cast<const wchar_t*>(_First));

	mov	esi, esp
	mov	eax, DWORD PTR __First$[ebp]
	push	eax
	call	DWORD PTR __imp__wcslen
	add	esp, 4
	cmp	esi, esp
	call	__RTC_CheckEsp

; 269  : #endif // _HAS_CXX17
; 270  :     }

	pop	edi
	pop	esi
	pop	ebx
	add	esp, 192				; 000000c0H
	cmp	ebp, esp
	call	__RTC_CheckEsp
	mov	esp, ebp
	pop	ebp
	ret	0
?length@?$_WChar_traits@_S@std@@SAIPB_S@Z ENDP		; std::_WChar_traits<char16_t>::length
_TEXT	ENDS
; Function compile flags: /Odtp /RTCsu /ZI
; File C:\Program Files (x86)\Microsoft Visual Studio\2019\Community\VC\Tools\MSVC\14.29.30133\include\xstring
;	COMDAT ?move@?$_Char_traits@_SG@std@@SAPA_SQA_SQB_SI@Z
_TEXT	SEGMENT
__First1$ = 8						; size = 4
__First2$ = 12						; size = 4
__Count$ = 16						; size = 4
?move@?$_Char_traits@_SG@std@@SAPA_SQA_SQB_SI@Z PROC	; std::_Char_traits<char16_t,unsigned short>::move, COMDAT

; 79   :         _In_reads_(_Count) const _Elem* const _First2, const size_t _Count) noexcept /* strengthened */ {

	push	ebp
	mov	ebp, esp
	sub	esp, 192				; 000000c0H
	push	ebx
	push	esi
	push	edi
	mov	edi, ebp
	xor	ecx, ecx
	mov	eax, -858993460				; ccccccccH
	rep stosd
	mov	ecx, OFFSET __0D019051_xstring
	call	@__CheckForDebuggerJustMyCode@4

; 80   :         // copy [_First2, _First2 + _Count) to [_First1, ...), allowing overlap
; 81   : #if _HAS_MEMCPY_MEMMOVE_INTRINSICS
; 82   :         __builtin_memmove(_First1, _First2, _Count * sizeof(_Elem));
; 83   : #else // ^^^ _HAS_MEMCPY_MEMMOVE_INTRINSICS ^^^ / vvv !_HAS_MEMCPY_MEMMOVE_INTRINSICS vvv
; 84   : #ifdef __cpp_lib_is_constant_evaluated
; 85   :         if (_STD is_constant_evaluated()) {
; 86   :             // dest: [_First1, _First1 + _Count)
; 87   :             // src: [_First2, _First2 + _Count)
; 88   :             // We need to handle overlapping ranges.
; 89   :             // If _First1 is in the src range, we need a backward loop.
; 90   :             // Otherwise, the forward loop works (even if the back of dest overlaps the front of src).
; 91   : 
; 92   :             if (_First1 == _First2) {
; 93   :                 return _First1; // Self-assignment; either loop would work, but returning immediately is faster.
; 94   :             }
; 95   : 
; 96   :             // Usually, we would compare pointers with less-than, even though they could belong to different arrays.
; 97   :             // However, we're not allowed to do that during constant evaluation, so we need a linear scan for equality.
; 98   :             bool _Loop_forward = true;
; 99   : 
; 100  :             for (const _Elem* _Src = _First2; _Src != _First2 + _Count; ++_Src) {
; 101  :                 if (_First1 == _Src) {
; 102  :                     _Loop_forward = false;
; 103  :                     break;
; 104  :                 }
; 105  :             }
; 106  : 
; 107  :             if (_Loop_forward) {
; 108  :                 for (size_t _Idx = 0; _Idx < _Count; ++_Idx) {
; 109  :                     _First1[_Idx] = _First2[_Idx];
; 110  :                 }
; 111  :             } else {
; 112  :                 for (size_t _Idx = 0; _Idx < _Count; ++_Idx) {
; 113  :                     _First1[_Count - 1 - _Idx] = _First2[_Count - 1 - _Idx];
; 114  :                 }
; 115  :             }
; 116  : 
; 117  :             return _First1;
; 118  :         }
; 119  : #endif // __cpp_lib_is_constant_evaluated
; 120  : 
; 121  :         _CSTD memmove(_First1, _First2, _Count * sizeof(_Elem));

	mov	eax, DWORD PTR __Count$[ebp]
	shl	eax, 1
	push	eax
	mov	ecx, DWORD PTR __First2$[ebp]
	push	ecx
	mov	edx, DWORD PTR __First1$[ebp]
	push	edx
	call	_memmove
	add	esp, 12					; 0000000cH

; 122  : #endif // ^^^ !_HAS_MEMCPY_MEMMOVE_INTRINSICS ^^^
; 123  : 
; 124  :         return _First1;

	mov	eax, DWORD PTR __First1$[ebp]

; 125  :     }

	pop	edi
	pop	esi
	pop	ebx
	add	esp, 192				; 000000c0H
	cmp	ebp, esp
	call	__RTC_CheckEsp
	mov	esp, ebp
	pop	ebp
	ret	0
?move@?$_Char_traits@_SG@std@@SAPA_SQA_SQB_SI@Z ENDP	; std::_Char_traits<char16_t,unsigned short>::move
_TEXT	ENDS
; Function compile flags: /Odtp /RTCsu /ZI
; File C:\Program Files (x86)\Microsoft Visual Studio\2019\Community\VC\Tools\MSVC\14.29.30133\include\xstring
;	COMDAT ?copy@?$_Char_traits@_SG@std@@SAPA_SQA_SQB_SI@Z
_TEXT	SEGMENT
__First1$ = 8						; size = 4
__First2$ = 12						; size = 4
__Count$ = 16						; size = 4
?copy@?$_Char_traits@_SG@std@@SAPA_SQA_SQB_SI@Z PROC	; std::_Char_traits<char16_t,unsigned short>::copy, COMDAT

; 48   :         _In_reads_(_Count) const _Elem* const _First2, const size_t _Count) noexcept /* strengthened */ {

	push	ebp
	mov	ebp, esp
	sub	esp, 192				; 000000c0H
	push	ebx
	push	esi
	push	edi
	mov	edi, ebp
	xor	ecx, ecx
	mov	eax, -858993460				; ccccccccH
	rep stosd
	mov	ecx, OFFSET __0D019051_xstring
	call	@__CheckForDebuggerJustMyCode@4

; 49   :         // copy [_First2, _First2 + _Count) to [_First1, ...)
; 50   : #if _HAS_MEMCPY_MEMMOVE_INTRINSICS
; 51   :         __builtin_memcpy(_First1, _First2, _Count * sizeof(_Elem));
; 52   : #else // ^^^ _HAS_MEMCPY_MEMMOVE_INTRINSICS ^^^ / vvv !_HAS_MEMCPY_MEMMOVE_INTRINSICS vvv
; 53   : #ifdef __cpp_lib_is_constant_evaluated
; 54   :         if (_STD is_constant_evaluated()) {
; 55   :             // pre: [_First1, _First1 + _Count) and [_First2, _First2 + _Count) do not overlap; see LWG-3085
; 56   :             for (size_t _Idx = 0; _Idx < _Count; ++_Idx) {
; 57   :                 _First1[_Idx] = _First2[_Idx];
; 58   :             }
; 59   : 
; 60   :             return _First1;
; 61   :         }
; 62   : #endif // __cpp_lib_is_constant_evaluated
; 63   : 
; 64   :         _CSTD memcpy(_First1, _First2, _Count * sizeof(_Elem));

	mov	eax, DWORD PTR __Count$[ebp]
	shl	eax, 1
	push	eax
	mov	ecx, DWORD PTR __First2$[ebp]
	push	ecx
	mov	edx, DWORD PTR __First1$[ebp]
	push	edx
	call	_memcpy
	add	esp, 12					; 0000000cH

; 65   : #endif // ^^^ !_HAS_MEMCPY_MEMMOVE_INTRINSICS ^^^
; 66   : 
; 67   :         return _First1;

	mov	eax, DWORD PTR __First1$[ebp]

; 68   :     }

	pop	edi
	pop	esi
	pop	ebx
	add	esp, 192				; 000000c0H
	cmp	ebp, esp
	call	__RTC_CheckEsp
	mov	esp, ebp
	pop	ebp
	ret	0
?copy@?$_Char_traits@_SG@std@@SAPA_SQA_SQB_SI@Z ENDP	; std::_Char_traits<char16_t,unsigned short>::copy
_TEXT	ENDS
; Function compile flags: /Odtp /RTCsu /ZI
; File C:\Program Files (x86)\Microsoft Visual Studio\2019\Community\VC\Tools\MSVC\14.29.30133\include\xutility
;	COMDAT ??$_Construct_in_place@U_Container_proxy@std@@PAU_Container_base12@2@@std@@YAXAAU_Container_proxy@0@$$QAPAU_Container_base12@0@@Z
_TEXT	SEGMENT
$T1 = -200						; size = 4
__Obj$ = 8						; size = 4
_<_Args_0>$ = 12					; size = 4
??$_Construct_in_place@U_Container_proxy@std@@PAU_Container_base12@2@@std@@YAXAAU_Container_proxy@0@$$QAPAU_Container_base12@0@@Z PROC ; std::_Construct_in_place<std::_Container_proxy,std::_Container_base12 *>, COMDAT

; 142  :     is_nothrow_constructible_v<_Ty, _Types...>) {

	push	ebp
	mov	ebp, esp
	sub	esp, 204				; 000000ccH
	push	ebx
	push	esi
	push	edi
	lea	edi, DWORD PTR [ebp-12]
	mov	ecx, 3
	mov	eax, -858993460				; ccccccccH
	rep stosd
	mov	ecx, OFFSET __12269DE6_xutility
	call	@__CheckForDebuggerJustMyCode@4
	mov	eax, DWORD PTR __Obj$[ebp]
	push	eax
	call	??$addressof@U_Container_proxy@std@@@std@@YAPAU_Container_proxy@0@AAU10@@Z ; std::addressof<std::_Container_proxy>
	add	esp, 4
	push	eax
	call	??$_Voidify_iter@PAU_Container_proxy@std@@@std@@YAPAXPAU_Container_proxy@0@@Z ; std::_Voidify_iter<std::_Container_proxy *>
	add	esp, 4
	push	eax
	push	8
	call	??2@YAPAXIPAX@Z				; operator new
	add	esp, 8
	mov	DWORD PTR $T1[ebp], eax
	mov	ecx, DWORD PTR _<_Args_0>$[ebp]
	push	ecx
	call	??$forward@PAU_Container_base12@std@@@std@@YA$$QAPAU_Container_base12@0@AAPAU10@@Z ; std::forward<std::_Container_base12 *>
	add	esp, 4
	mov	edx, DWORD PTR [eax]
	push	edx
	mov	ecx, DWORD PTR $T1[ebp]
	call	??0_Container_proxy@std@@QAE@PAU_Container_base12@1@@Z ; std::_Container_proxy::_Container_proxy

; 143  : #ifdef __cpp_lib_constexpr_dynamic_alloc
; 144  :     if (_STD is_constant_evaluated()) {
; 145  :         _STD construct_at(_STD addressof(_Obj), _STD forward<_Types>(_Args)...);
; 146  :     } else
; 147  : #endif // __cpp_lib_constexpr_dynamic_alloc
; 148  :     {
; 149  :         ::new (_Voidify_iter(_STD addressof(_Obj))) _Ty(_STD forward<_Types>(_Args)...);
; 150  :     }
; 151  : }

	pop	edi
	pop	esi
	pop	ebx
	add	esp, 204				; 000000ccH
	cmp	ebp, esp
	call	__RTC_CheckEsp
	mov	esp, ebp
	pop	ebp
	ret	0
??$_Construct_in_place@U_Container_proxy@std@@PAU_Container_base12@2@@std@@YAXAAU_Container_proxy@0@$$QAPAU_Container_base12@0@@Z ENDP ; std::_Construct_in_place<std::_Container_proxy,std::_Container_base12 *>
_TEXT	ENDS
; Function compile flags: /Odtp /RTCsu /ZI
; File C:\Program Files (x86)\Microsoft Visual Studio\2019\Community\VC\Tools\MSVC\14.29.30133\include\xstddef
;	COMDAT ??$addressof@U_Container_base12@std@@@std@@YAPAU_Container_base12@0@AAU10@@Z
_TEXT	SEGMENT
__Val$ = 8						; size = 4
??$addressof@U_Container_base12@std@@@std@@YAPAU_Container_base12@0@AAU10@@Z PROC ; std::addressof<std::_Container_base12>, COMDAT

; 252  : _NODISCARD constexpr _Ty* addressof(_Ty& _Val) noexcept {

	push	ebp
	mov	ebp, esp
	sub	esp, 192				; 000000c0H
	push	ebx
	push	esi
	push	edi
	mov	edi, ebp
	xor	ecx, ecx
	mov	eax, -858993460				; ccccccccH
	rep stosd
	mov	ecx, OFFSET __E458E21C_xstddef
	call	@__CheckForDebuggerJustMyCode@4

; 253  :     return __builtin_addressof(_Val);

	mov	eax, DWORD PTR __Val$[ebp]

; 254  : }

	pop	edi
	pop	esi
	pop	ebx
	add	esp, 192				; 000000c0H
	cmp	ebp, esp
	call	__RTC_CheckEsp
	mov	esp, ebp
	pop	ebp
	ret	0
??$addressof@U_Container_base12@std@@@std@@YAPAU_Container_base12@0@AAU10@@Z ENDP ; std::addressof<std::_Container_base12>
_TEXT	ENDS
; Function compile flags: /Odtp /RTCsu /ZI
; File C:\Program Files (x86)\Microsoft Visual Studio\2019\Community\VC\Tools\MSVC\14.29.30133\include\xmemory
;	COMDAT ??0_Basic_container_proxy_ptr12@std@@IAE@XZ
_TEXT	SEGMENT
_this$ = -8						; size = 4
??0_Basic_container_proxy_ptr12@std@@IAE@XZ PROC	; std::_Basic_container_proxy_ptr12::_Basic_container_proxy_ptr12, COMDAT
; _this$ = ecx

; 1265 :     _CONSTEXPR20_CONTAINER _Basic_container_proxy_ptr12()             = default;

	push	ebp
	mov	ebp, esp
	sub	esp, 204				; 000000ccH
	push	ebx
	push	esi
	push	edi
	push	ecx
	lea	edi, DWORD PTR [ebp-12]
	mov	ecx, 3
	mov	eax, -858993460				; ccccccccH
	rep stosd
	pop	ecx
	mov	DWORD PTR _this$[ebp], ecx
	mov	ecx, OFFSET __79D216CD_xmemory
	call	@__CheckForDebuggerJustMyCode@4

; 1258 :     _Container_proxy* _Ptr = nullptr;

	mov	eax, DWORD PTR _this$[ebp]
	mov	DWORD PTR [eax], 0

; 1265 :     _CONSTEXPR20_CONTAINER _Basic_container_proxy_ptr12()             = default;

	mov	eax, DWORD PTR _this$[ebp]
	pop	edi
	pop	esi
	pop	ebx
	add	esp, 204				; 000000ccH
	cmp	ebp, esp
	call	__RTC_CheckEsp
	mov	esp, ebp
	pop	ebp
	ret	0
??0_Basic_container_proxy_ptr12@std@@IAE@XZ ENDP	; std::_Basic_container_proxy_ptr12::_Basic_container_proxy_ptr12
_TEXT	ENDS
; Function compile flags: /Odtp /RTCsu /ZI
; File C:\Program Files (x86)\Microsoft Visual Studio\2019\Community\VC\Tools\MSVC\14.29.30133\include\xmemory
;	COMDAT ?_Release@_Basic_container_proxy_ptr12@std@@QAEXXZ
_TEXT	SEGMENT
_this$ = -8						; size = 4
?_Release@_Basic_container_proxy_ptr12@std@@QAEXXZ PROC	; std::_Basic_container_proxy_ptr12::_Release, COMDAT
; _this$ = ecx

; 1260 :     constexpr void _Release() noexcept { // disengage this _Basic_container_proxy_ptr12

	push	ebp
	mov	ebp, esp
	sub	esp, 204				; 000000ccH
	push	ebx
	push	esi
	push	edi
	push	ecx
	lea	edi, DWORD PTR [ebp-12]
	mov	ecx, 3
	mov	eax, -858993460				; ccccccccH
	rep stosd
	pop	ecx
	mov	DWORD PTR _this$[ebp], ecx
	mov	ecx, OFFSET __79D216CD_xmemory
	call	@__CheckForDebuggerJustMyCode@4

; 1261 :         _Ptr = nullptr;

	mov	eax, DWORD PTR _this$[ebp]
	mov	DWORD PTR [eax], 0

; 1262 :     }

	pop	edi
	pop	esi
	pop	ebx
	add	esp, 204				; 000000ccH
	cmp	ebp, esp
	call	__RTC_CheckEsp
	mov	esp, ebp
	pop	ebp
	ret	0
?_Release@_Basic_container_proxy_ptr12@std@@QAEXXZ ENDP	; std::_Basic_container_proxy_ptr12::_Release
_TEXT	ENDS
; Function compile flags: /Odtp /RTCsu /ZI
; File C:\Program Files (x86)\Microsoft Visual Studio\2019\Community\VC\Tools\MSVC\14.29.30133\include\xmemory
;	COMDAT ?_Swap_proxy_and_iterators_locked@_Container_base12@std@@AAEXAAU12@@Z
_TEXT	SEGMENT
__Lock$ = -24						; size = 4
_this$ = -12						; size = 4
__$ArrayPad$ = -4					; size = 4
__Right$ = 8						; size = 4
?_Swap_proxy_and_iterators_locked@_Container_base12@std@@AAEXAAU12@@Z PROC ; std::_Container_base12::_Swap_proxy_and_iterators_locked, COMDAT
; _this$ = ecx

; 1044 :     void _Swap_proxy_and_iterators_locked(_Container_base12& _Right) noexcept {

	push	ebp
	mov	ebp, esp
	sub	esp, 220				; 000000dcH
	push	ebx
	push	esi
	push	edi
	push	ecx
	lea	edi, DWORD PTR [ebp-28]
	mov	ecx, 7
	mov	eax, -858993460				; ccccccccH
	rep stosd
	pop	ecx
	mov	eax, DWORD PTR ___security_cookie
	xor	eax, ebp
	mov	DWORD PTR __$ArrayPad$[ebp], eax
	mov	DWORD PTR _this$[ebp], ecx
	mov	ecx, OFFSET __79D216CD_xmemory
	call	@__CheckForDebuggerJustMyCode@4

; 1045 :         _Lockit _Lock(_LOCK_DEBUG);

	mov	esi, esp
	push	3
	lea	ecx, DWORD PTR __Lock$[ebp]
	call	DWORD PTR __imp_??0_Lockit@std@@QAE@H@Z
	cmp	esi, esp
	call	__RTC_CheckEsp

; 1046 :         _Swap_proxy_and_iterators_unlocked(_Right);

	mov	eax, DWORD PTR __Right$[ebp]
	push	eax
	mov	ecx, DWORD PTR _this$[ebp]
	call	?_Swap_proxy_and_iterators_unlocked@_Container_base12@std@@AAEXAAU12@@Z ; std::_Container_base12::_Swap_proxy_and_iterators_unlocked

; 1047 :     }

	mov	esi, esp
	lea	ecx, DWORD PTR __Lock$[ebp]
	call	DWORD PTR __imp_??1_Lockit@std@@QAE@XZ
	cmp	esi, esp
	call	__RTC_CheckEsp
	push	edx
	mov	ecx, ebp
	push	eax
	lea	edx, DWORD PTR $LN5@Swap_proxy
	call	@_RTC_CheckStackVars@8
	pop	eax
	pop	edx
	pop	edi
	pop	esi
	pop	ebx
	mov	ecx, DWORD PTR __$ArrayPad$[ebp]
	xor	ecx, ebp
	call	@__security_check_cookie@4
	add	esp, 220				; 000000dcH
	cmp	ebp, esp
	call	__RTC_CheckEsp
	mov	esp, ebp
	pop	ebp
	ret	4
	npad	1
$LN5@Swap_proxy:
	DD	1
	DD	$LN4@Swap_proxy
$LN4@Swap_proxy:
	DD	-24					; ffffffe8H
	DD	4
	DD	$LN3@Swap_proxy
$LN3@Swap_proxy:
	DB	95					; 0000005fH
	DB	76					; 0000004cH
	DB	111					; 0000006fH
	DB	99					; 00000063H
	DB	107					; 0000006bH
	DB	0
?_Swap_proxy_and_iterators_locked@_Container_base12@std@@AAEXAAU12@@Z ENDP ; std::_Container_base12::_Swap_proxy_and_iterators_locked
_TEXT	ENDS
; Function compile flags: /Odtp /RTCsu /ZI
; File C:\Program Files (x86)\Microsoft Visual Studio\2019\Community\VC\Tools\MSVC\14.29.30133\include\xmemory
;	COMDAT ?_Orphan_all_locked_v3@_Container_base12@std@@AAEXXZ
_TEXT	SEGMENT
__Lock$ = -24						; size = 4
_this$ = -12						; size = 4
__$ArrayPad$ = -4					; size = 4
?_Orphan_all_locked_v3@_Container_base12@std@@AAEXXZ PROC ; std::_Container_base12::_Orphan_all_locked_v3, COMDAT
; _this$ = ecx

; 1039 :     void _Orphan_all_locked_v3() noexcept {

	push	ebp
	mov	ebp, esp
	sub	esp, 220				; 000000dcH
	push	ebx
	push	esi
	push	edi
	push	ecx
	lea	edi, DWORD PTR [ebp-28]
	mov	ecx, 7
	mov	eax, -858993460				; ccccccccH
	rep stosd
	pop	ecx
	mov	eax, DWORD PTR ___security_cookie
	xor	eax, ebp
	mov	DWORD PTR __$ArrayPad$[ebp], eax
	mov	DWORD PTR _this$[ebp], ecx
	mov	ecx, OFFSET __79D216CD_xmemory
	call	@__CheckForDebuggerJustMyCode@4

; 1040 :         _Lockit _Lock(_LOCK_DEBUG);

	mov	esi, esp
	push	3
	lea	ecx, DWORD PTR __Lock$[ebp]
	call	DWORD PTR __imp_??0_Lockit@std@@QAE@H@Z
	cmp	esi, esp
	call	__RTC_CheckEsp

; 1041 :         _Orphan_all_unlocked_v3();

	mov	ecx, DWORD PTR _this$[ebp]
	call	?_Orphan_all_unlocked_v3@_Container_base12@std@@AAEXXZ ; std::_Container_base12::_Orphan_all_unlocked_v3

; 1042 :     }

	mov	esi, esp
	lea	ecx, DWORD PTR __Lock$[ebp]
	call	DWORD PTR __imp_??1_Lockit@std@@QAE@XZ
	cmp	esi, esp
	call	__RTC_CheckEsp
	push	edx
	mov	ecx, ebp
	push	eax
	lea	edx, DWORD PTR $LN5@Orphan_all
	call	@_RTC_CheckStackVars@8
	pop	eax
	pop	edx
	pop	edi
	pop	esi
	pop	ebx
	mov	ecx, DWORD PTR __$ArrayPad$[ebp]
	xor	ecx, ebp
	call	@__security_check_cookie@4
	add	esp, 220				; 000000dcH
	cmp	ebp, esp
	call	__RTC_CheckEsp
	mov	esp, ebp
	pop	ebp
	ret	0
	npad	3
$LN5@Orphan_all:
	DD	1
	DD	$LN4@Orphan_all
$LN4@Orphan_all:
	DD	-24					; ffffffe8H
	DD	4
	DD	$LN3@Orphan_all
$LN3@Orphan_all:
	DB	95					; 0000005fH
	DB	76					; 0000004cH
	DB	111					; 0000006fH
	DB	99					; 00000063H
	DB	107					; 0000006bH
	DB	0
?_Orphan_all_locked_v3@_Container_base12@std@@AAEXXZ ENDP ; std::_Container_base12::_Orphan_all_locked_v3
_TEXT	ENDS
; Function compile flags: /Odtp /RTCsu /ZI
; File C:\Program Files (x86)\Microsoft Visual Studio\2019\Community\VC\Tools\MSVC\14.29.30133\include\xmemory
;	COMDAT ?_Swap_proxy_and_iterators_unlocked@_Container_base12@std@@AAEXAAU12@@Z
_TEXT	SEGMENT
__Temp$ = -20						; size = 4
_this$ = -8						; size = 4
__Right$ = 8						; size = 4
?_Swap_proxy_and_iterators_unlocked@_Container_base12@std@@AAEXAAU12@@Z PROC ; std::_Container_base12::_Swap_proxy_and_iterators_unlocked, COMDAT
; _this$ = ecx

; 1205 : _CONSTEXPR20_CONTAINER void _Container_base12::_Swap_proxy_and_iterators_unlocked(_Container_base12& _Right) noexcept {

	push	ebp
	mov	ebp, esp
	sub	esp, 216				; 000000d8H
	push	ebx
	push	esi
	push	edi
	push	ecx
	lea	edi, DWORD PTR [ebp-24]
	mov	ecx, 6
	mov	eax, -858993460				; ccccccccH
	rep stosd
	pop	ecx
	mov	DWORD PTR _this$[ebp], ecx
	mov	ecx, OFFSET __79D216CD_xmemory
	call	@__CheckForDebuggerJustMyCode@4

; 1206 :     _Container_proxy* _Temp = _Myproxy;

	mov	eax, DWORD PTR _this$[ebp]
	mov	ecx, DWORD PTR [eax]
	mov	DWORD PTR __Temp$[ebp], ecx

; 1207 :     _Myproxy                = _Right._Myproxy;

	mov	eax, DWORD PTR _this$[ebp]
	mov	ecx, DWORD PTR __Right$[ebp]
	mov	edx, DWORD PTR [ecx]
	mov	DWORD PTR [eax], edx

; 1208 :     _Right._Myproxy         = _Temp;

	mov	eax, DWORD PTR __Right$[ebp]
	mov	ecx, DWORD PTR __Temp$[ebp]
	mov	DWORD PTR [eax], ecx

; 1209 : 
; 1210 :     if (_Myproxy) {

	mov	eax, DWORD PTR _this$[ebp]
	cmp	DWORD PTR [eax], 0
	je	SHORT $LN2@Swap_proxy

; 1211 :         _Myproxy->_Mycont = this;

	mov	eax, DWORD PTR _this$[ebp]
	mov	ecx, DWORD PTR [eax]
	mov	edx, DWORD PTR _this$[ebp]
	mov	DWORD PTR [ecx], edx
$LN2@Swap_proxy:

; 1212 :     }
; 1213 : 
; 1214 :     if (_Right._Myproxy) {

	mov	eax, DWORD PTR __Right$[ebp]
	cmp	DWORD PTR [eax], 0
	je	SHORT $LN4@Swap_proxy

; 1215 :         _Right._Myproxy->_Mycont = &_Right;

	mov	eax, DWORD PTR __Right$[ebp]
	mov	ecx, DWORD PTR [eax]
	mov	edx, DWORD PTR __Right$[ebp]
	mov	DWORD PTR [ecx], edx
$LN4@Swap_proxy:

; 1216 :     }
; 1217 : }

	pop	edi
	pop	esi
	pop	ebx
	add	esp, 216				; 000000d8H
	cmp	ebp, esp
	call	__RTC_CheckEsp
	mov	esp, ebp
	pop	ebp
	ret	4
?_Swap_proxy_and_iterators_unlocked@_Container_base12@std@@AAEXAAU12@@Z ENDP ; std::_Container_base12::_Swap_proxy_and_iterators_unlocked
_TEXT	ENDS
; Function compile flags: /Odtp /RTCsu /ZI
; File C:\Program Files (x86)\Microsoft Visual Studio\2019\Community\VC\Tools\MSVC\14.29.30133\include\xmemory
;	COMDAT ?_Orphan_all_unlocked_v3@_Container_base12@std@@AAEXXZ
_TEXT	SEGMENT
__Pnext$1 = -20						; size = 4
_this$ = -8						; size = 4
?_Orphan_all_unlocked_v3@_Container_base12@std@@AAEXXZ PROC ; std::_Container_base12::_Orphan_all_unlocked_v3, COMDAT
; _this$ = ecx

; 1180 : _CONSTEXPR20_CONTAINER void _Container_base12::_Orphan_all_unlocked_v3() noexcept {

	push	ebp
	mov	ebp, esp
	sub	esp, 216				; 000000d8H
	push	ebx
	push	esi
	push	edi
	push	ecx
	lea	edi, DWORD PTR [ebp-24]
	mov	ecx, 6
	mov	eax, -858993460				; ccccccccH
	rep stosd
	pop	ecx
	mov	DWORD PTR _this$[ebp], ecx
	mov	ecx, OFFSET __79D216CD_xmemory
	call	@__CheckForDebuggerJustMyCode@4

; 1181 :     if (!_Myproxy) { // no proxy, already done

	mov	eax, DWORD PTR _this$[ebp]
	cmp	DWORD PTR [eax], 0
	jne	SHORT $LN5@Orphan_all

; 1182 :         return;

	jmp	SHORT $LN6@Orphan_all
$LN5@Orphan_all:

; 1183 :     }
; 1184 : 
; 1185 :     // proxy allocated, drain it
; 1186 :     for (auto& _Pnext = _Myproxy->_Myfirstiter; _Pnext; _Pnext = _Pnext->_Mynextiter) { // TRANSITION, VSO-1269037

	mov	eax, DWORD PTR _this$[ebp]
	mov	ecx, DWORD PTR [eax]
	add	ecx, 4
	mov	DWORD PTR __Pnext$1[ebp], ecx
	jmp	SHORT $LN4@Orphan_all
$LN2@Orphan_all:
	mov	eax, DWORD PTR __Pnext$1[ebp]
	mov	ecx, DWORD PTR [eax]
	mov	edx, DWORD PTR __Pnext$1[ebp]
	mov	eax, DWORD PTR [ecx+4]
	mov	DWORD PTR [edx], eax
$LN4@Orphan_all:
	mov	eax, DWORD PTR __Pnext$1[ebp]
	cmp	DWORD PTR [eax], 0
	je	SHORT $LN3@Orphan_all

; 1187 :         _Pnext->_Myproxy = nullptr;

	mov	eax, DWORD PTR __Pnext$1[ebp]
	mov	ecx, DWORD PTR [eax]
	mov	DWORD PTR [ecx], 0

; 1188 :     }

	jmp	SHORT $LN2@Orphan_all
$LN3@Orphan_all:

; 1189 :     _Myproxy->_Myfirstiter = nullptr;

	mov	eax, DWORD PTR _this$[ebp]
	mov	ecx, DWORD PTR [eax]
	mov	DWORD PTR [ecx+4], 0
$LN6@Orphan_all:

; 1190 : }

	pop	edi
	pop	esi
	pop	ebx
	add	esp, 216				; 000000d8H
	cmp	ebp, esp
	call	__RTC_CheckEsp
	mov	esp, ebp
	pop	ebp
	ret	0
?_Orphan_all_unlocked_v3@_Container_base12@std@@AAEXXZ ENDP ; std::_Container_base12::_Orphan_all_unlocked_v3
_TEXT	ENDS
; Function compile flags: /Odtp /RTCsu /ZI
; File C:\Program Files (x86)\Microsoft Visual Studio\2019\Community\VC\Tools\MSVC\14.29.30133\include\xmemory
;	COMDAT ?_Swap_proxy_and_iterators@_Container_base12@std@@QAEXAAU12@@Z
_TEXT	SEGMENT
_this$ = -8						; size = 4
__Right$ = 8						; size = 4
?_Swap_proxy_and_iterators@_Container_base12@std@@QAEXAAU12@@Z PROC ; std::_Container_base12::_Swap_proxy_and_iterators, COMDAT
; _this$ = ecx

; 1219 : _CONSTEXPR20_CONTAINER void _Container_base12::_Swap_proxy_and_iterators(_Container_base12& _Right) noexcept {

	push	ebp
	mov	ebp, esp
	sub	esp, 204				; 000000ccH
	push	ebx
	push	esi
	push	edi
	push	ecx
	lea	edi, DWORD PTR [ebp-12]
	mov	ecx, 3
	mov	eax, -858993460				; ccccccccH
	rep stosd
	pop	ecx
	mov	DWORD PTR _this$[ebp], ecx
	mov	ecx, OFFSET __79D216CD_xmemory
	call	@__CheckForDebuggerJustMyCode@4

; 1220 : #if _ITERATOR_DEBUG_LEVEL == 2
; 1221 : #ifdef __cpp_lib_constexpr_dynamic_alloc
; 1222 :     if (_STD is_constant_evaluated()) {
; 1223 :         _Swap_proxy_and_iterators_unlocked(_Right);
; 1224 :     } else
; 1225 : #endif // __cpp_lib_constexpr_dynamic_alloc
; 1226 :     {
; 1227 :         _Swap_proxy_and_iterators_locked(_Right);

	mov	eax, DWORD PTR __Right$[ebp]
	push	eax
	mov	ecx, DWORD PTR _this$[ebp]
	call	?_Swap_proxy_and_iterators_locked@_Container_base12@std@@AAEXAAU12@@Z ; std::_Container_base12::_Swap_proxy_and_iterators_locked

; 1228 :     }
; 1229 : #else // ^^^ _ITERATOR_DEBUG_LEVEL == 2 ^^^ / vvv _ITERATOR_DEBUG_LEVEL != 2 vvv
; 1230 :     _Swap_proxy_and_iterators_unlocked(_Right);
; 1231 : #endif // _ITERATOR_DEBUG_LEVEL != 2
; 1232 : }

	pop	edi
	pop	esi
	pop	ebx
	add	esp, 204				; 000000ccH
	cmp	ebp, esp
	call	__RTC_CheckEsp
	mov	esp, ebp
	pop	ebp
	ret	4
?_Swap_proxy_and_iterators@_Container_base12@std@@QAEXAAU12@@Z ENDP ; std::_Container_base12::_Swap_proxy_and_iterators
_TEXT	ENDS
; Function compile flags: /Odtp /RTCsu /ZI
; File C:\Program Files (x86)\Microsoft Visual Studio\2019\Community\VC\Tools\MSVC\14.29.30133\include\xmemory
;	COMDAT ?_Orphan_all@_Container_base12@std@@QAEXXZ
_TEXT	SEGMENT
_this$ = -8						; size = 4
?_Orphan_all@_Container_base12@std@@QAEXXZ PROC		; std::_Container_base12::_Orphan_all, COMDAT
; _this$ = ecx

; 1192 : _CONSTEXPR20_CONTAINER void _Container_base12::_Orphan_all() noexcept {

	push	ebp
	mov	ebp, esp
	sub	esp, 204				; 000000ccH
	push	ebx
	push	esi
	push	edi
	push	ecx
	lea	edi, DWORD PTR [ebp-12]
	mov	ecx, 3
	mov	eax, -858993460				; ccccccccH
	rep stosd
	pop	ecx
	mov	DWORD PTR _this$[ebp], ecx
	mov	ecx, OFFSET __79D216CD_xmemory
	call	@__CheckForDebuggerJustMyCode@4

; 1193 : #if _ITERATOR_DEBUG_LEVEL == 2
; 1194 : #ifdef __cpp_lib_constexpr_dynamic_alloc
; 1195 :     if (_STD is_constant_evaluated()) {
; 1196 :         _Orphan_all_unlocked_v3();
; 1197 :     } else
; 1198 : #endif // __cpp_lib_constexpr_dynamic_alloc
; 1199 :     {
; 1200 :         _Orphan_all_locked_v3();

	mov	ecx, DWORD PTR _this$[ebp]
	call	?_Orphan_all_locked_v3@_Container_base12@std@@AAEXXZ ; std::_Container_base12::_Orphan_all_locked_v3

; 1201 :     }
; 1202 : #endif // _ITERATOR_DEBUG_LEVEL == 2
; 1203 : }

	pop	edi
	pop	esi
	pop	ebx
	add	esp, 204				; 000000ccH
	cmp	ebp, esp
	call	__RTC_CheckEsp
	mov	esp, ebp
	pop	ebp
	ret	0
?_Orphan_all@_Container_base12@std@@QAEXXZ ENDP		; std::_Container_base12::_Orphan_all
_TEXT	ENDS
; Function compile flags: /Odtp /RTCsu /ZI
; File C:\Program Files (x86)\Microsoft Visual Studio\2019\Community\VC\Tools\MSVC\14.29.30133\include\xmemory
;	COMDAT ??0_Container_base12@std@@QAE@XZ
_TEXT	SEGMENT
_this$ = -8						; size = 4
??0_Container_base12@std@@QAE@XZ PROC			; std::_Container_base12::_Container_base12, COMDAT
; _this$ = ecx

; 1008 :     _CONSTEXPR20_CONTAINER _Container_base12() noexcept = default;

	push	ebp
	mov	ebp, esp
	sub	esp, 204				; 000000ccH
	push	ebx
	push	esi
	push	edi
	push	ecx
	lea	edi, DWORD PTR [ebp-12]
	mov	ecx, 3
	mov	eax, -858993460				; ccccccccH
	rep stosd
	pop	ecx
	mov	DWORD PTR _this$[ebp], ecx
	mov	ecx, OFFSET __79D216CD_xmemory
	call	@__CheckForDebuggerJustMyCode@4

; 1009 : 
; 1010 :     _Container_base12(const _Container_base12&) = delete;
; 1011 :     _Container_base12& operator=(const _Container_base12&) = delete;
; 1012 : 
; 1013 :     _CONSTEXPR20_CONTAINER void _Orphan_all() noexcept;
; 1014 :     _CONSTEXPR20_CONTAINER void _Swap_proxy_and_iterators(_Container_base12&) noexcept;
; 1015 : 
; 1016 :     template <class _Alloc>
; 1017 :     _CONSTEXPR20_CONTAINER void _Alloc_proxy(_Alloc&& _Al) {
; 1018 :         _Container_proxy* const _New_proxy = _Unfancy(_Al.allocate(1));
; 1019 :         _Construct_in_place(*_New_proxy, this);
; 1020 :         _Myproxy            = _New_proxy;
; 1021 :         _New_proxy->_Mycont = this;
; 1022 :     }
; 1023 : 
; 1024 :     template <class _Alloc>
; 1025 :     _CONSTEXPR20_CONTAINER void _Reload_proxy(_Alloc&& _Old_alloc, _Alloc&& _New_alloc) {
; 1026 :         // pre: no iterators refer to the existing proxy
; 1027 :         _Container_proxy* const _New_proxy = _Unfancy(_New_alloc.allocate(1));
; 1028 :         _Construct_in_place(*_New_proxy, this);
; 1029 :         _New_proxy->_Mycont = this;
; 1030 :         _Delete_plain_internal(_Old_alloc, _STD exchange(_Myproxy, _New_proxy));
; 1031 :     }
; 1032 : 
; 1033 :     _Container_proxy* _Myproxy = nullptr;

	mov	eax, DWORD PTR _this$[ebp]
	mov	DWORD PTR [eax], 0

; 1008 :     _CONSTEXPR20_CONTAINER _Container_base12() noexcept = default;

	mov	eax, DWORD PTR _this$[ebp]
	pop	edi
	pop	esi
	pop	ebx
	add	esp, 204				; 000000ccH
	cmp	ebp, esp
	call	__RTC_CheckEsp
	mov	esp, ebp
	pop	ebp
	ret	0
??0_Container_base12@std@@QAE@XZ ENDP			; std::_Container_base12::_Container_base12
_TEXT	ENDS
; Function compile flags: /Odtp /RTCsu /ZI
; File C:\Program Files (x86)\Microsoft Visual Studio\2019\Community\VC\Tools\MSVC\14.29.30133\include\xmemory
;	COMDAT ??0_Container_proxy@std@@QAE@PAU_Container_base12@1@@Z
_TEXT	SEGMENT
_this$ = -8						; size = 4
__Mycont_$ = 8						; size = 4
??0_Container_proxy@std@@QAE@PAU_Container_base12@1@@Z PROC ; std::_Container_proxy::_Container_proxy, COMDAT
; _this$ = ecx

; 1000 :     _CONSTEXPR20_CONTAINER _Container_proxy(_Container_base12* _Mycont_) noexcept : _Mycont(_Mycont_) {}

	push	ebp
	mov	ebp, esp
	sub	esp, 204				; 000000ccH
	push	ebx
	push	esi
	push	edi
	push	ecx
	lea	edi, DWORD PTR [ebp-12]
	mov	ecx, 3
	mov	eax, -858993460				; ccccccccH
	rep stosd
	pop	ecx
	mov	DWORD PTR _this$[ebp], ecx
	mov	ecx, OFFSET __79D216CD_xmemory
	call	@__CheckForDebuggerJustMyCode@4
	mov	eax, DWORD PTR _this$[ebp]
	mov	ecx, DWORD PTR __Mycont_$[ebp]
	mov	DWORD PTR [eax], ecx

; 1001 : 
; 1002 :     const _Container_base12* _Mycont       = nullptr;
; 1003 :     mutable _Iterator_base12* _Myfirstiter = nullptr;

	mov	eax, DWORD PTR _this$[ebp]
	mov	DWORD PTR [eax+4], 0

; 1000 :     _CONSTEXPR20_CONTAINER _Container_proxy(_Container_base12* _Mycont_) noexcept : _Mycont(_Mycont_) {}

	mov	eax, DWORD PTR _this$[ebp]
	pop	edi
	pop	esi
	pop	ebx
	add	esp, 204				; 000000ccH
	cmp	ebp, esp
	call	__RTC_CheckEsp
	mov	esp, ebp
	pop	ebp
	ret	4
??0_Container_proxy@std@@QAE@PAU_Container_base12@1@@Z ENDP ; std::_Container_proxy::_Container_proxy
_TEXT	ENDS
; Function compile flags: /Odtp /RTCsu /ZI
; File C:\Program Files (x86)\Microsoft Visual Studio\2019\Community\VC\Tools\MSVC\14.29.30133\include\xmemory
;	COMDAT ?_Adjust_manually_vector_aligned@std@@YAXAAPAXAAI@Z
_TEXT	SEGMENT
__Back_shift$ = -44					; size = 4
__Min_back_shift$ = -32					; size = 4
__Ptr_container$ = -20					; size = 4
__Ptr_user$ = -8					; size = 4
__Ptr$ = 8						; size = 4
__Bytes$ = 12						; size = 4
?_Adjust_manually_vector_aligned@std@@YAXAAPAXAAI@Z PROC ; std::_Adjust_manually_vector_aligned, COMDAT

; 145  : inline void _Adjust_manually_vector_aligned(void*& _Ptr, size_t& _Bytes) {

	push	ebp
	mov	ebp, esp
	sub	esp, 240				; 000000f0H
	push	ebx
	push	esi
	push	edi
	lea	edi, DWORD PTR [ebp-48]
	mov	ecx, 12					; 0000000cH
	mov	eax, -858993460				; ccccccccH
	rep stosd
	mov	ecx, OFFSET __79D216CD_xmemory
	call	@__CheckForDebuggerJustMyCode@4

; 146  :     // adjust parameters from _Allocate_manually_vector_aligned to pass to operator delete
; 147  :     _Bytes += _Non_user_size;

	mov	eax, DWORD PTR __Bytes$[ebp]
	mov	ecx, DWORD PTR [eax]
	add	ecx, 39					; 00000027H
	mov	edx, DWORD PTR __Bytes$[ebp]
	mov	DWORD PTR [edx], ecx

; 148  : 
; 149  :     const uintptr_t* const _Ptr_user = reinterpret_cast<uintptr_t*>(_Ptr);

	mov	eax, DWORD PTR __Ptr$[ebp]
	mov	ecx, DWORD PTR [eax]
	mov	DWORD PTR __Ptr_user$[ebp], ecx

; 150  :     const uintptr_t _Ptr_container   = _Ptr_user[-1];

	mov	eax, 4
	imul	ecx, eax, -1
	mov	edx, DWORD PTR __Ptr_user$[ebp]
	mov	eax, DWORD PTR [edx+ecx]
	mov	DWORD PTR __Ptr_container$[ebp], eax
$LN4@Adjust_man:

; 151  : 
; 152  :     // If the following asserts, it likely means that we are performing
; 153  :     // an aligned delete on memory coming from an unaligned allocation.
; 154  :     _STL_ASSERT(_Ptr_user[-2] == _Big_allocation_sentinel, "invalid argument");

	mov	eax, 4
	imul	ecx, eax, -2
	mov	edx, DWORD PTR __Ptr_user$[ebp]
	cmp	DWORD PTR [edx+ecx], -84215046		; fafafafaH
	jne	SHORT $LN7@Adjust_man
	jmp	SHORT $LN2@Adjust_man
$LN7@Adjust_man:
	mov	esi, esp
	push	OFFSET ??_C@_0BB@FCMFBGOM@invalid?5argument@
	push	OFFSET ??_C@_02DKCKIIND@?$CFs@
	push	0
	mov	eax, DWORD PTR ?__LINE__Var@?0??_Adjust_manually_vector_aligned@std@@YAXAAPAXAAI@Z@4JA
	add	eax, 9
	push	eax
	push	OFFSET ??_C@_0GI@MNEMJBML@C?3?2Program?5Files?5?$CIx86?$CJ?2Microsof@
	push	2
	call	DWORD PTR __imp___CrtDbgReport
	add	esp, 24					; 00000018H
	cmp	esi, esp
	call	__RTC_CheckEsp
	cmp	eax, 1
	jne	SHORT $LN19@Adjust_man
	int	3
$LN19@Adjust_man:
	mov	esi, esp
	push	0
	mov	eax, DWORD PTR ?__LINE__Var@?0??_Adjust_manually_vector_aligned@std@@YAXAAPAXAAI@Z@4JA
	add	eax, 9
	push	eax
	push	OFFSET ??_C@_1NA@MJBOBEJL@?$AAC?$AA?3?$AA?2?$AAP?$AAr?$AAo?$AAg?$AAr?$AAa?$AAm?$AA?5?$AAF?$AAi?$AAl?$AAe@
	push	OFFSET ??_C@_11LOCGONAA@@
	push	OFFSET ??_C@_1CG@JNLFBNGN@?$AA?$CC?$AAi?$AAn?$AAv?$AAa?$AAl?$AAi?$AAd?$AA?5?$AAa?$AAr?$AAg?$AAu?$AAm?$AAe@
	call	DWORD PTR __imp___invalid_parameter
	add	esp, 20					; 00000014H
	cmp	esi, esp
	call	__RTC_CheckEsp
	xor	eax, eax
	jne	SHORT $LN7@Adjust_man
$LN2@Adjust_man:
	xor	eax, eax
	jne	SHORT $LN4@Adjust_man

; 155  : 
; 156  :     // Extra paranoia on aligned allocation/deallocation; ensure _Ptr_container is
; 157  :     // in range [_Min_back_shift, _Non_user_size]
; 158  : #ifdef _DEBUG
; 159  :     constexpr uintptr_t _Min_back_shift = 2 * sizeof(void*);

	mov	DWORD PTR __Min_back_shift$[ebp], 8

; 160  : #else // ^^^ _DEBUG ^^^ // vvv !_DEBUG vvv
; 161  :     constexpr uintptr_t _Min_back_shift = sizeof(void*);
; 162  : #endif // _DEBUG
; 163  :     const uintptr_t _Back_shift = reinterpret_cast<uintptr_t>(_Ptr) - _Ptr_container;

	mov	eax, DWORD PTR __Ptr$[ebp]
	mov	ecx, DWORD PTR [eax]
	sub	ecx, DWORD PTR __Ptr_container$[ebp]
	mov	DWORD PTR __Back_shift$[ebp], ecx
$LN10@Adjust_man:

; 164  :     _STL_VERIFY(_Back_shift >= _Min_back_shift && _Back_shift <= _Non_user_size, "invalid argument");

	cmp	DWORD PTR __Back_shift$[ebp], 8
	jb	SHORT $LN13@Adjust_man
	cmp	DWORD PTR __Back_shift$[ebp], 39	; 00000027H
	ja	SHORT $LN13@Adjust_man
	jmp	SHORT $LN8@Adjust_man
$LN13@Adjust_man:
	mov	esi, esp
	push	OFFSET ??_C@_0BB@FCMFBGOM@invalid?5argument@
	push	OFFSET ??_C@_02DKCKIIND@?$CFs@
	push	0
	mov	eax, DWORD PTR ?__LINE__Var@?0??_Adjust_manually_vector_aligned@std@@YAXAAPAXAAI@Z@4JA
	add	eax, 19					; 00000013H
	push	eax
	push	OFFSET ??_C@_0GI@MNEMJBML@C?3?2Program?5Files?5?$CIx86?$CJ?2Microsof@
	push	2
	call	DWORD PTR __imp___CrtDbgReport
	add	esp, 24					; 00000018H
	cmp	esi, esp
	call	__RTC_CheckEsp
	cmp	eax, 1
	jne	SHORT $LN20@Adjust_man
	int	3
$LN20@Adjust_man:
	mov	esi, esp
	push	0
	mov	eax, DWORD PTR ?__LINE__Var@?0??_Adjust_manually_vector_aligned@std@@YAXAAPAXAAI@Z@4JA
	add	eax, 19					; 00000013H
	push	eax
	push	OFFSET ??_C@_1NA@MJBOBEJL@?$AAC?$AA?3?$AA?2?$AAP?$AAr?$AAo?$AAg?$AAr?$AAa?$AAm?$AA?5?$AAF?$AAi?$AAl?$AAe@
	push	OFFSET ??_C@_11LOCGONAA@@
	push	OFFSET ??_C@_1CG@JNLFBNGN@?$AA?$CC?$AAi?$AAn?$AAv?$AAa?$AAl?$AAi?$AAd?$AA?5?$AAa?$AAr?$AAg?$AAu?$AAm?$AAe@
	call	DWORD PTR __imp___invalid_parameter
	add	esp, 20					; 00000014H
	cmp	esi, esp
	call	__RTC_CheckEsp
	xor	eax, eax
	jne	SHORT $LN13@Adjust_man
$LN8@Adjust_man:
	xor	eax, eax
	jne	SHORT $LN10@Adjust_man

; 165  :     _Ptr = reinterpret_cast<void*>(_Ptr_container);

	mov	eax, DWORD PTR __Ptr$[ebp]
	mov	ecx, DWORD PTR __Ptr_container$[ebp]
	mov	DWORD PTR [eax], ecx

; 166  : }

	pop	edi
	pop	esi
	pop	ebx
	add	esp, 240				; 000000f0H
	cmp	ebp, esp
	call	__RTC_CheckEsp
	mov	esp, ebp
	pop	ebp
	ret	0
?_Adjust_manually_vector_aligned@std@@YAXAAPAXAAI@Z ENDP ; std::_Adjust_manually_vector_aligned
_TEXT	ENDS
; Function compile flags: /Odtp /RTCsu /ZI
; File C:\Program Files (x86)\Microsoft Visual Studio\2019\Community\VC\Tools\MSVC\14.29.30133\include\xmemory
;	COMDAT ?_Allocate@_Default_allocate_traits@std@@SAPAXI@Z
_TEXT	SEGMENT
__Bytes$ = 8						; size = 4
?_Allocate@_Default_allocate_traits@std@@SAPAXI@Z PROC	; std::_Default_allocate_traits::_Allocate, COMDAT

; 78   :         void* _Allocate(const size_t _Bytes) {

	push	ebp
	mov	ebp, esp
	sub	esp, 192				; 000000c0H
	push	ebx
	push	esi
	push	edi
	mov	edi, ebp
	xor	ecx, ecx
	mov	eax, -858993460				; ccccccccH
	rep stosd
	mov	ecx, OFFSET __79D216CD_xmemory
	call	@__CheckForDebuggerJustMyCode@4

; 79   :         return ::operator new(_Bytes);

	mov	eax, DWORD PTR __Bytes$[ebp]
	push	eax
	call	??2@YAPAXI@Z				; operator new
	add	esp, 4

; 80   :     }

	pop	edi
	pop	esi
	pop	ebx
	add	esp, 192				; 000000c0H
	cmp	ebp, esp
	call	__RTC_CheckEsp
	mov	esp, ebp
	pop	ebp
	ret	0
?_Allocate@_Default_allocate_traits@std@@SAPAXI@Z ENDP	; std::_Default_allocate_traits::_Allocate
_TEXT	ENDS
; Function compile flags: /Odtp /RTCsu /ZI
; File C:\Program Files (x86)\Microsoft Visual Studio\2019\Community\VC\Tools\MSVC\14.29.30133\include\limits
;	COMDAT ?max@?$numeric_limits@H@std@@SAHXZ
_TEXT	SEGMENT
?max@?$numeric_limits@H@std@@SAHXZ PROC			; std::numeric_limits<int>::max, COMDAT

; 540  :     _NODISCARD static constexpr int(max)() noexcept {

	push	ebp
	mov	ebp, esp
	sub	esp, 192				; 000000c0H
	push	ebx
	push	esi
	push	edi
	mov	edi, ebp
	xor	ecx, ecx
	mov	eax, -858993460				; ccccccccH
	rep stosd
	mov	ecx, OFFSET __7FE5F402_limits
	call	@__CheckForDebuggerJustMyCode@4

; 541  :         return INT_MAX;

	mov	eax, 2147483647				; 7fffffffH

; 542  :     }

	pop	edi
	pop	esi
	pop	ebx
	add	esp, 192				; 000000c0H
	cmp	ebp, esp
	call	__RTC_CheckEsp
	mov	esp, ebp
	pop	ebp
	ret	0
?max@?$numeric_limits@H@std@@SAHXZ ENDP			; std::numeric_limits<int>::max
_TEXT	ENDS
; Function compile flags: /Odtp /RTCsu /ZI
; File C:\Program Files (x86)\Microsoft Visual Studio\2019\Community\VC\Tools\MSVC\14.29.30133\include\exception
;	COMDAT ?_Throw_bad_array_new_length@std@@YAXXZ
_TEXT	SEGMENT
$T1 = -208						; size = 12
?_Throw_bad_array_new_length@std@@YAXXZ PROC		; std::_Throw_bad_array_new_length, COMDAT

; 315  : [[noreturn]] inline void _Throw_bad_array_new_length() {

	push	ebp
	mov	ebp, esp
	sub	esp, 212				; 000000d4H
	push	ebx
	push	esi
	push	edi
	lea	edi, DWORD PTR [ebp-20]
	mov	ecx, 5
	mov	eax, -858993460				; ccccccccH
	rep stosd
	mov	ecx, OFFSET __FF458F76_exception
	call	@__CheckForDebuggerJustMyCode@4

; 316  :     _THROW(bad_array_new_length{});

	lea	ecx, DWORD PTR $T1[ebp]
	call	??0bad_array_new_length@std@@QAE@XZ	; std::bad_array_new_length::bad_array_new_length
	push	OFFSET __TI3?AVbad_array_new_length@std@@
	lea	eax, DWORD PTR $T1[ebp]
	push	eax
	call	__CxxThrowException@8
$LN2@Throw_bad_:

; 317  : }

	pop	edi
	pop	esi
	pop	ebx
	add	esp, 212				; 000000d4H
	cmp	ebp, esp
	call	__RTC_CheckEsp
	mov	esp, ebp
	pop	ebp
	ret	0
?_Throw_bad_array_new_length@std@@YAXXZ ENDP		; std::_Throw_bad_array_new_length
_TEXT	ENDS
; Function compile flags: /Odtp /RTCsu /ZI
;	COMDAT ??_Gbad_array_new_length@std@@UAEPAXI@Z
_TEXT	SEGMENT
_this$ = -8						; size = 4
___flags$ = 8						; size = 4
??_Gbad_array_new_length@std@@UAEPAXI@Z PROC		; std::bad_array_new_length::`scalar deleting destructor', COMDAT
; _this$ = ecx
	push	ebp
	mov	ebp, esp
	sub	esp, 204				; 000000ccH
	push	ebx
	push	esi
	push	edi
	push	ecx
	lea	edi, DWORD PTR [ebp-12]
	mov	ecx, 3
	mov	eax, -858993460				; ccccccccH
	rep stosd
	pop	ecx
	mov	DWORD PTR _this$[ebp], ecx
	mov	ecx, DWORD PTR _this$[ebp]
	call	??1bad_array_new_length@std@@UAE@XZ
	mov	eax, DWORD PTR ___flags$[ebp]
	and	eax, 1
	je	SHORT $LN2@scalar
	push	12					; 0000000cH
	mov	eax, DWORD PTR _this$[ebp]
	push	eax
	call	??3@YAXPAXI@Z				; operator delete
	add	esp, 8
$LN2@scalar:
	mov	eax, DWORD PTR _this$[ebp]
	pop	edi
	pop	esi
	pop	ebx
	add	esp, 204				; 000000ccH
	cmp	ebp, esp
	call	__RTC_CheckEsp
	mov	esp, ebp
	pop	ebp
	ret	4
??_Gbad_array_new_length@std@@UAEPAXI@Z ENDP		; std::bad_array_new_length::`scalar deleting destructor'
_TEXT	ENDS
; Function compile flags: /Odtp /RTCsu /ZI
;	COMDAT ??0bad_array_new_length@std@@QAE@ABV01@@Z
_TEXT	SEGMENT
_this$ = -8						; size = 4
___that$ = 8						; size = 4
??0bad_array_new_length@std@@QAE@ABV01@@Z PROC		; std::bad_array_new_length::bad_array_new_length, COMDAT
; _this$ = ecx
	push	ebp
	mov	ebp, esp
	sub	esp, 204				; 000000ccH
	push	ebx
	push	esi
	push	edi
	push	ecx
	lea	edi, DWORD PTR [ebp-12]
	mov	ecx, 3
	mov	eax, -858993460				; ccccccccH
	rep stosd
	pop	ecx
	mov	DWORD PTR _this$[ebp], ecx
	mov	eax, DWORD PTR ___that$[ebp]
	push	eax
	mov	ecx, DWORD PTR _this$[ebp]
	call	??0bad_alloc@std@@QAE@ABV01@@Z
	mov	eax, DWORD PTR _this$[ebp]
	mov	DWORD PTR [eax], OFFSET ??_7bad_array_new_length@std@@6B@
	mov	eax, DWORD PTR _this$[ebp]
	pop	edi
	pop	esi
	pop	ebx
	add	esp, 204				; 000000ccH
	cmp	ebp, esp
	call	__RTC_CheckEsp
	mov	esp, ebp
	pop	ebp
	ret	4
??0bad_array_new_length@std@@QAE@ABV01@@Z ENDP		; std::bad_array_new_length::bad_array_new_length
_TEXT	ENDS
; Function compile flags: /Odtp /RTCsu /ZI
;	COMDAT ??1bad_array_new_length@std@@UAE@XZ
_TEXT	SEGMENT
_this$ = -8						; size = 4
??1bad_array_new_length@std@@UAE@XZ PROC		; std::bad_array_new_length::~bad_array_new_length, COMDAT
; _this$ = ecx
	push	ebp
	mov	ebp, esp
	sub	esp, 204				; 000000ccH
	push	ebx
	push	esi
	push	edi
	push	ecx
	lea	edi, DWORD PTR [ebp-12]
	mov	ecx, 3
	mov	eax, -858993460				; ccccccccH
	rep stosd
	pop	ecx
	mov	DWORD PTR _this$[ebp], ecx
	mov	ecx, DWORD PTR _this$[ebp]
	call	??1bad_alloc@std@@UAE@XZ
	pop	edi
	pop	esi
	pop	ebx
	add	esp, 204				; 000000ccH
	cmp	ebp, esp
	call	__RTC_CheckEsp
	mov	esp, ebp
	pop	ebp
	ret	0
??1bad_array_new_length@std@@UAE@XZ ENDP		; std::bad_array_new_length::~bad_array_new_length
_TEXT	ENDS
; Function compile flags: /Odtp /RTCsu /ZI
; File C:\Program Files (x86)\Microsoft Visual Studio\2019\Community\VC\Tools\MSVC\14.29.30133\include\vcruntime_exception.h
;	COMDAT ??0bad_array_new_length@std@@QAE@XZ
_TEXT	SEGMENT
_this$ = -8						; size = 4
??0bad_array_new_length@std@@QAE@XZ PROC		; std::bad_array_new_length::bad_array_new_length, COMDAT
; _this$ = ecx

; 141  :     {

	push	ebp
	mov	ebp, esp
	sub	esp, 204				; 000000ccH
	push	ebx
	push	esi
	push	edi
	push	ecx
	lea	edi, DWORD PTR [ebp-12]
	mov	ecx, 3
	mov	eax, -858993460				; ccccccccH
	rep stosd
	pop	ecx
	mov	DWORD PTR _this$[ebp], ecx
	mov	ecx, OFFSET __B0A13A33_vcruntime_exception@h
	call	@__CheckForDebuggerJustMyCode@4

; 140  :         : bad_alloc("bad array new length")

	push	OFFSET ??_C@_0BF@KINCDENJ@bad?5array?5new?5length@
	mov	ecx, DWORD PTR _this$[ebp]
	call	??0bad_alloc@std@@AAE@QBD@Z		; std::bad_alloc::bad_alloc

; 141  :     {

	mov	eax, DWORD PTR _this$[ebp]
	mov	DWORD PTR [eax], OFFSET ??_7bad_array_new_length@std@@6B@

; 142  :     }

	mov	eax, DWORD PTR _this$[ebp]
	pop	edi
	pop	esi
	pop	ebx
	add	esp, 204				; 000000ccH
	cmp	ebp, esp
	call	__RTC_CheckEsp
	mov	esp, ebp
	pop	ebp
	ret	0
??0bad_array_new_length@std@@QAE@XZ ENDP		; std::bad_array_new_length::bad_array_new_length
_TEXT	ENDS
; Function compile flags: /Odtp /RTCsu /ZI
;	COMDAT ??_Gbad_alloc@std@@UAEPAXI@Z
_TEXT	SEGMENT
_this$ = -8						; size = 4
___flags$ = 8						; size = 4
??_Gbad_alloc@std@@UAEPAXI@Z PROC			; std::bad_alloc::`scalar deleting destructor', COMDAT
; _this$ = ecx
	push	ebp
	mov	ebp, esp
	sub	esp, 204				; 000000ccH
	push	ebx
	push	esi
	push	edi
	push	ecx
	lea	edi, DWORD PTR [ebp-12]
	mov	ecx, 3
	mov	eax, -858993460				; ccccccccH
	rep stosd
	pop	ecx
	mov	DWORD PTR _this$[ebp], ecx
	mov	ecx, DWORD PTR _this$[ebp]
	call	??1bad_alloc@std@@UAE@XZ
	mov	eax, DWORD PTR ___flags$[ebp]
	and	eax, 1
	je	SHORT $LN2@scalar
	push	12					; 0000000cH
	mov	eax, DWORD PTR _this$[ebp]
	push	eax
	call	??3@YAXPAXI@Z				; operator delete
	add	esp, 8
$LN2@scalar:
	mov	eax, DWORD PTR _this$[ebp]
	pop	edi
	pop	esi
	pop	ebx
	add	esp, 204				; 000000ccH
	cmp	ebp, esp
	call	__RTC_CheckEsp
	mov	esp, ebp
	pop	ebp
	ret	4
??_Gbad_alloc@std@@UAEPAXI@Z ENDP			; std::bad_alloc::`scalar deleting destructor'
_TEXT	ENDS
; Function compile flags: /Odtp /RTCsu /ZI
;	COMDAT ??0bad_alloc@std@@QAE@ABV01@@Z
_TEXT	SEGMENT
_this$ = -8						; size = 4
___that$ = 8						; size = 4
??0bad_alloc@std@@QAE@ABV01@@Z PROC			; std::bad_alloc::bad_alloc, COMDAT
; _this$ = ecx
	push	ebp
	mov	ebp, esp
	sub	esp, 204				; 000000ccH
	push	ebx
	push	esi
	push	edi
	push	ecx
	lea	edi, DWORD PTR [ebp-12]
	mov	ecx, 3
	mov	eax, -858993460				; ccccccccH
	rep stosd
	pop	ecx
	mov	DWORD PTR _this$[ebp], ecx
	mov	eax, DWORD PTR ___that$[ebp]
	push	eax
	mov	ecx, DWORD PTR _this$[ebp]
	call	??0exception@std@@QAE@ABV01@@Z		; std::exception::exception
	mov	eax, DWORD PTR _this$[ebp]
	mov	DWORD PTR [eax], OFFSET ??_7bad_alloc@std@@6B@
	mov	eax, DWORD PTR _this$[ebp]
	pop	edi
	pop	esi
	pop	ebx
	add	esp, 204				; 000000ccH
	cmp	ebp, esp
	call	__RTC_CheckEsp
	mov	esp, ebp
	pop	ebp
	ret	4
??0bad_alloc@std@@QAE@ABV01@@Z ENDP			; std::bad_alloc::bad_alloc
_TEXT	ENDS
; Function compile flags: /Odtp /RTCsu /ZI
;	COMDAT ??1bad_alloc@std@@UAE@XZ
_TEXT	SEGMENT
_this$ = -8						; size = 4
??1bad_alloc@std@@UAE@XZ PROC				; std::bad_alloc::~bad_alloc, COMDAT
; _this$ = ecx
	push	ebp
	mov	ebp, esp
	sub	esp, 204				; 000000ccH
	push	ebx
	push	esi
	push	edi
	push	ecx
	lea	edi, DWORD PTR [ebp-12]
	mov	ecx, 3
	mov	eax, -858993460				; ccccccccH
	rep stosd
	pop	ecx
	mov	DWORD PTR _this$[ebp], ecx
	mov	ecx, DWORD PTR _this$[ebp]
	call	??1exception@std@@UAE@XZ		; std::exception::~exception
	pop	edi
	pop	esi
	pop	ebx
	add	esp, 204				; 000000ccH
	cmp	ebp, esp
	call	__RTC_CheckEsp
	mov	esp, ebp
	pop	ebp
	ret	0
??1bad_alloc@std@@UAE@XZ ENDP				; std::bad_alloc::~bad_alloc
_TEXT	ENDS
; Function compile flags: /Odtp /RTCsu /ZI
; File C:\Program Files (x86)\Microsoft Visual Studio\2019\Community\VC\Tools\MSVC\14.29.30133\include\vcruntime_exception.h
;	COMDAT ??0bad_alloc@std@@AAE@QBD@Z
_TEXT	SEGMENT
_this$ = -8						; size = 4
__Message$ = 8						; size = 4
??0bad_alloc@std@@AAE@QBD@Z PROC			; std::bad_alloc::bad_alloc, COMDAT
; _this$ = ecx

; 130  :     {

	push	ebp
	mov	ebp, esp
	sub	esp, 204				; 000000ccH
	push	ebx
	push	esi
	push	edi
	push	ecx
	lea	edi, DWORD PTR [ebp-12]
	mov	ecx, 3
	mov	eax, -858993460				; ccccccccH
	rep stosd
	pop	ecx
	mov	DWORD PTR _this$[ebp], ecx
	mov	ecx, OFFSET __B0A13A33_vcruntime_exception@h
	call	@__CheckForDebuggerJustMyCode@4

; 129  :         : exception(_Message, 1)

	push	1
	mov	eax, DWORD PTR __Message$[ebp]
	push	eax
	mov	ecx, DWORD PTR _this$[ebp]
	call	??0exception@std@@QAE@QBDH@Z		; std::exception::exception

; 130  :     {

	mov	eax, DWORD PTR _this$[ebp]
	mov	DWORD PTR [eax], OFFSET ??_7bad_alloc@std@@6B@

; 131  :     }

	mov	eax, DWORD PTR _this$[ebp]
	pop	edi
	pop	esi
	pop	ebx
	add	esp, 204				; 000000ccH
	cmp	ebp, esp
	call	__RTC_CheckEsp
	mov	esp, ebp
	pop	ebp
	ret	4
??0bad_alloc@std@@AAE@QBD@Z ENDP			; std::bad_alloc::bad_alloc
_TEXT	ENDS
; Function compile flags: /Odtp /RTCsu /ZI
;	COMDAT ??_Gexception@std@@UAEPAXI@Z
_TEXT	SEGMENT
_this$ = -8						; size = 4
___flags$ = 8						; size = 4
??_Gexception@std@@UAEPAXI@Z PROC			; std::exception::`scalar deleting destructor', COMDAT
; _this$ = ecx
	push	ebp
	mov	ebp, esp
	sub	esp, 204				; 000000ccH
	push	ebx
	push	esi
	push	edi
	push	ecx
	lea	edi, DWORD PTR [ebp-12]
	mov	ecx, 3
	mov	eax, -858993460				; ccccccccH
	rep stosd
	pop	ecx
	mov	DWORD PTR _this$[ebp], ecx
	mov	ecx, DWORD PTR _this$[ebp]
	call	??1exception@std@@UAE@XZ		; std::exception::~exception
	mov	eax, DWORD PTR ___flags$[ebp]
	and	eax, 1
	je	SHORT $LN2@scalar
	push	12					; 0000000cH
	mov	eax, DWORD PTR _this$[ebp]
	push	eax
	call	??3@YAXPAXI@Z				; operator delete
	add	esp, 8
$LN2@scalar:
	mov	eax, DWORD PTR _this$[ebp]
	pop	edi
	pop	esi
	pop	ebx
	add	esp, 204				; 000000ccH
	cmp	ebp, esp
	call	__RTC_CheckEsp
	mov	esp, ebp
	pop	ebp
	ret	4
??_Gexception@std@@UAEPAXI@Z ENDP			; std::exception::`scalar deleting destructor'
_TEXT	ENDS
; Function compile flags: /Odtp /RTCsu /ZI
; File C:\Program Files (x86)\Microsoft Visual Studio\2019\Community\VC\Tools\MSVC\14.29.30133\include\vcruntime_exception.h
;	COMDAT ?what@exception@std@@UBEPBDXZ
_TEXT	SEGMENT
tv69 = -208						; size = 4
_this$ = -8						; size = 4
?what@exception@std@@UBEPBDXZ PROC			; std::exception::what, COMDAT
; _this$ = ecx

; 94   :     {

	push	ebp
	mov	ebp, esp
	sub	esp, 208				; 000000d0H
	push	ebx
	push	esi
	push	edi
	push	ecx
	lea	edi, DWORD PTR [ebp-16]
	mov	ecx, 4
	mov	eax, -858993460				; ccccccccH
	rep stosd
	pop	ecx
	mov	DWORD PTR _this$[ebp], ecx
	mov	ecx, OFFSET __B0A13A33_vcruntime_exception@h
	call	@__CheckForDebuggerJustMyCode@4

; 95   :         return _Data._What ? _Data._What : "Unknown exception";

	mov	eax, DWORD PTR _this$[ebp]
	cmp	DWORD PTR [eax+4], 0
	je	SHORT $LN3@what
	mov	ecx, DWORD PTR _this$[ebp]
	mov	edx, DWORD PTR [ecx+4]
	mov	DWORD PTR tv69[ebp], edx
	jmp	SHORT $LN4@what
$LN3@what:
	mov	DWORD PTR tv69[ebp], OFFSET ??_C@_0BC@EOODALEL@Unknown?5exception@
$LN4@what:
	mov	eax, DWORD PTR tv69[ebp]

; 96   :     }

	pop	edi
	pop	esi
	pop	ebx
	add	esp, 208				; 000000d0H
	cmp	ebp, esp
	call	__RTC_CheckEsp
	mov	esp, ebp
	pop	ebp
	ret	0
?what@exception@std@@UBEPBDXZ ENDP			; std::exception::what
_TEXT	ENDS
; Function compile flags: /Odtp /RTCsu /ZI
; File C:\Program Files (x86)\Microsoft Visual Studio\2019\Community\VC\Tools\MSVC\14.29.30133\include\vcruntime_exception.h
;	COMDAT ??1exception@std@@UAE@XZ
_TEXT	SEGMENT
_this$ = -8						; size = 4
??1exception@std@@UAE@XZ PROC				; std::exception::~exception, COMDAT
; _this$ = ecx

; 89   :     {

	push	ebp
	mov	ebp, esp
	sub	esp, 204				; 000000ccH
	push	ebx
	push	esi
	push	edi
	push	ecx
	lea	edi, DWORD PTR [ebp-12]
	mov	ecx, 3
	mov	eax, -858993460				; ccccccccH
	rep stosd
	pop	ecx
	mov	DWORD PTR _this$[ebp], ecx
	mov	ecx, OFFSET __B0A13A33_vcruntime_exception@h
	call	@__CheckForDebuggerJustMyCode@4
	mov	eax, DWORD PTR _this$[ebp]
	mov	DWORD PTR [eax], OFFSET ??_7exception@std@@6B@

; 90   :         __std_exception_destroy(&_Data);

	mov	eax, DWORD PTR _this$[ebp]
	add	eax, 4
	push	eax
	call	___std_exception_destroy
	add	esp, 4

; 91   :     }

	pop	edi
	pop	esi
	pop	ebx
	add	esp, 204				; 000000ccH
	cmp	ebp, esp
	call	__RTC_CheckEsp
	mov	esp, ebp
	pop	ebp
	ret	0
??1exception@std@@UAE@XZ ENDP				; std::exception::~exception
_TEXT	ENDS
; Function compile flags: /Odtp /RTCsu /ZI
; File C:\Program Files (x86)\Microsoft Visual Studio\2019\Community\VC\Tools\MSVC\14.29.30133\include\vcruntime_exception.h
;	COMDAT ??0exception@std@@QAE@ABV01@@Z
_TEXT	SEGMENT
_this$ = -8						; size = 4
__Other$ = 8						; size = 4
??0exception@std@@QAE@ABV01@@Z PROC			; std::exception::exception, COMDAT
; _this$ = ecx

; 72   :     {

	push	ebp
	mov	ebp, esp
	sub	esp, 204				; 000000ccH
	push	ebx
	push	esi
	push	edi
	push	ecx
	lea	edi, DWORD PTR [ebp-12]
	mov	ecx, 3
	mov	eax, -858993460				; ccccccccH
	rep stosd
	pop	ecx
	mov	DWORD PTR _this$[ebp], ecx
	mov	ecx, OFFSET __B0A13A33_vcruntime_exception@h
	call	@__CheckForDebuggerJustMyCode@4
	mov	eax, DWORD PTR _this$[ebp]
	mov	DWORD PTR [eax], OFFSET ??_7exception@std@@6B@

; 71   :         : _Data()

	xor	eax, eax
	mov	ecx, DWORD PTR _this$[ebp]
	add	ecx, 4
	mov	DWORD PTR [ecx], eax
	mov	DWORD PTR [ecx+4], eax

; 73   :         __std_exception_copy(&_Other._Data, &_Data);

	mov	eax, DWORD PTR _this$[ebp]
	add	eax, 4
	push	eax
	mov	ecx, DWORD PTR __Other$[ebp]
	add	ecx, 4
	push	ecx
	call	___std_exception_copy
	add	esp, 8

; 74   :     }

	mov	eax, DWORD PTR _this$[ebp]
	pop	edi
	pop	esi
	pop	ebx
	add	esp, 204				; 000000ccH
	cmp	ebp, esp
	call	__RTC_CheckEsp
	mov	esp, ebp
	pop	ebp
	ret	4
??0exception@std@@QAE@ABV01@@Z ENDP			; std::exception::exception
_TEXT	ENDS
; Function compile flags: /Odtp /RTCsu /ZI
; File C:\Program Files (x86)\Microsoft Visual Studio\2019\Community\VC\Tools\MSVC\14.29.30133\include\vcruntime_exception.h
;	COMDAT ??0exception@std@@QAE@QBDH@Z
_TEXT	SEGMENT
_this$ = -8						; size = 4
__Message$ = 8						; size = 4
___formal$ = 12						; size = 4
??0exception@std@@QAE@QBDH@Z PROC			; std::exception::exception, COMDAT
; _this$ = ecx

; 66   :     {

	push	ebp
	mov	ebp, esp
	sub	esp, 204				; 000000ccH
	push	ebx
	push	esi
	push	edi
	push	ecx
	lea	edi, DWORD PTR [ebp-12]
	mov	ecx, 3
	mov	eax, -858993460				; ccccccccH
	rep stosd
	pop	ecx
	mov	DWORD PTR _this$[ebp], ecx
	mov	ecx, OFFSET __B0A13A33_vcruntime_exception@h
	call	@__CheckForDebuggerJustMyCode@4
	mov	eax, DWORD PTR _this$[ebp]
	mov	DWORD PTR [eax], OFFSET ??_7exception@std@@6B@

; 65   :         : _Data()

	xor	eax, eax
	mov	ecx, DWORD PTR _this$[ebp]
	add	ecx, 4
	mov	DWORD PTR [ecx], eax
	mov	DWORD PTR [ecx+4], eax

; 67   :         _Data._What = _Message;

	mov	eax, DWORD PTR _this$[ebp]
	mov	ecx, DWORD PTR __Message$[ebp]
	mov	DWORD PTR [eax+4], ecx

; 68   :     }

	mov	eax, DWORD PTR _this$[ebp]
	pop	edi
	pop	esi
	pop	ebx
	add	esp, 204				; 000000ccH
	cmp	ebp, esp
	call	__RTC_CheckEsp
	mov	esp, ebp
	pop	ebp
	ret	8
??0exception@std@@QAE@QBDH@Z ENDP			; std::exception::exception
_TEXT	ENDS
; Function compile flags: /Odtp /RTCsu /ZI
; File E:\Windows Kits\10\Include\10.0.22621.0\ucrt\wchar.h
;	COMDAT _wmemcpy
_TEXT	SEGMENT
__S1$ = 8						; size = 4
__S2$ = 12						; size = 4
__N$ = 16						; size = 4
_wmemcpy PROC						; COMDAT

; 234  :     {

	push	ebp
	mov	ebp, esp
	sub	esp, 192				; 000000c0H
	push	ebx
	push	esi
	push	edi
	mov	edi, ebp
	xor	ecx, ecx
	mov	eax, -858993460				; ccccccccH
	rep stosd
	mov	ecx, OFFSET __649BE487_wchar@h
	call	@__CheckForDebuggerJustMyCode@4

; 235  :         #pragma warning(suppress: 6386) // Buffer overrun
; 236  :         return (wchar_t*)memcpy(_S1, _S2, _N*sizeof(wchar_t));

	mov	eax, DWORD PTR __N$[ebp]
	shl	eax, 1
	push	eax
	mov	ecx, DWORD PTR __S2$[ebp]
	push	ecx
	mov	edx, DWORD PTR __S1$[ebp]
	push	edx
	call	_memcpy
	add	esp, 12					; 0000000cH

; 237  :     }

	pop	edi
	pop	esi
	pop	ebx
	add	esp, 192				; 000000c0H
	cmp	ebp, esp
	call	__RTC_CheckEsp
	mov	esp, ebp
	pop	ebp
	ret	0
_wmemcpy ENDP
_TEXT	ENDS
; Function compile flags: /Odtp /RTCsu /ZI
; File C:\Program Files (x86)\Microsoft Visual Studio\2019\Community\VC\Tools\MSVC\14.29.30133\include\vcruntime_new.h
;	COMDAT ??2@YAPAXIPAX@Z
_TEXT	SEGMENT
__Size$ = 8						; size = 4
__Where$ = 12						; size = 4
??2@YAPAXIPAX@Z PROC					; operator new, COMDAT

; 167  :     {

	push	ebp
	mov	ebp, esp
	sub	esp, 192				; 000000c0H
	push	ebx
	push	esi
	push	edi
	mov	edi, ebp
	xor	ecx, ecx
	mov	eax, -858993460				; ccccccccH
	rep stosd
	mov	ecx, OFFSET __97D3638F_vcruntime_new@h
	call	@__CheckForDebuggerJustMyCode@4

; 168  :         (void)_Size;
; 169  :         return _Where;

	mov	eax, DWORD PTR __Where$[ebp]

; 170  :     }

	pop	edi
	pop	esi
	pop	ebx
	add	esp, 192				; 000000c0H
	cmp	ebp, esp
	call	__RTC_CheckEsp
	mov	esp, ebp
	pop	ebp
	ret	0
??2@YAPAXIPAX@Z ENDP					; operator new
_TEXT	ENDS
; Function compile flags: /Odtp /RTCsu /ZI
; File C:\dev\StringLiterals\StringLiterals\src\main.cpp
;	COMDAT ?__empty_global_delete@@YAXPAXI@Z
_TEXT	SEGMENT
___formal$ = 8						; size = 4
___formal$ = 12						; size = 4
?__empty_global_delete@@YAXPAXI@Z PROC			; __empty_global_delete, COMDAT

	push	ebp
	mov	ebp, esp
	sub	esp, 192				; 000000c0H
	push	ebx
	push	esi
	push	edi
	mov	edi, ebp
	xor	ecx, ecx
	mov	eax, -858993460				; ccccccccH
	rep stosd
	mov	ecx, OFFSET __B0E46530_main@cpp
	call	@__CheckForDebuggerJustMyCode@4
	pop	edi
	pop	esi
	pop	ebx
	add	esp, 192				; 000000c0H
	cmp	ebp, esp
	call	__RTC_CheckEsp
	mov	esp, ebp
	pop	ebp
	ret	0
?__empty_global_delete@@YAXPAXI@Z ENDP			; __empty_global_delete
_TEXT	ENDS
; Function compile flags: /Odtp /RTCsu /ZI
; File C:\dev\StringLiterals\StringLiterals\src\main.cpp
;	COMDAT ?__empty_global_delete@@YAXPAX@Z
_TEXT	SEGMENT
___formal$ = 8						; size = 4
?__empty_global_delete@@YAXPAX@Z PROC			; __empty_global_delete, COMDAT

	push	ebp
	mov	ebp, esp
	sub	esp, 192				; 000000c0H
	push	ebx
	push	esi
	push	edi
	mov	edi, ebp
	xor	ecx, ecx
	mov	eax, -858993460				; ccccccccH
	rep stosd
	mov	ecx, OFFSET __B0E46530_main@cpp
	call	@__CheckForDebuggerJustMyCode@4
	pop	edi
	pop	esi
	pop	ebx
	add	esp, 192				; 000000c0H
	cmp	ebp, esp
	call	__RTC_CheckEsp
	mov	esp, ebp
	pop	ebp
	ret	0
?__empty_global_delete@@YAXPAX@Z ENDP			; __empty_global_delete
_TEXT	ENDS
END
